
cr7_loader.elf:     file format elf32-littlearm
cr7_loader.elf
architecture: arm, flags 0x00000112:
EXEC_P, HAS_SYMS, D_PAGED
start address 0xe6304000

Program Header:
    LOAD off    0x00000000 vaddr 0xe6300000 paddr 0xe6300000 align 2**16
         filesz 0x00004480 memsz 0x00004480 flags r-x
    LOAD off    0x00010000 vaddr 0xeb000000 paddr 0xe6304480 align 2**16
         filesz 0x00001808 memsz 0x00001808 flags r-x
    LOAD off    0x00020000 vaddr 0x00000000 paddr 0xe6305c88 align 2**16
         filesz 0x0000002c memsz 0x0000002c flags r-x
    LOAD off    0x00025cb8 vaddr 0xe6305cb8 paddr 0xe6305cb8 align 2**16
         filesz 0x00011928 memsz 0x00011928 flags r-x
    LOAD off    0x00040000 vaddr 0xeb020000 paddr 0xe63175e0 align 2**16
         filesz 0x00000000 memsz 0x00002000 flags rw-
    LOAD off    0x00042000 vaddr 0xeb022000 paddr 0xe63175e0 align 2**16
         filesz 0x00000000 memsz 0x00002024 flags rw-
private flags = 5000200: [Version5 EABI] [soft-float ABI]

Sections:
Idx Name          Size      VMA       LMA       File off  Algn
  0 .loader_start 00000480  e6304000  e6304000  00004000  2**5
                  CONTENTS, ALLOC, LOAD, READONLY, CODE
  1 .tcm_loader   00001808  eb000000  e6304480  00010000  2**5
                  CONTENTS, ALLOC, LOAD, READONLY, CODE
  2 .dummy_vect   0000002c  00000000  e6305c88  00020000  2**5
                  CONTENTS, ALLOC, LOAD, READONLY, CODE
  3 .loader_ro    00011928  e6305cb8  e6305cb8  00025cb8  2**3
                  CONTENTS, ALLOC, LOAD, READONLY, CODE
  4 .data         00000000  eb020000  eb020000  000375e0  2**0
                  CONTENTS, ALLOC, LOAD, DATA
  5 stacks        00002000  eb020000  e63175e0  00040000  2**5
                  ALLOC
  6 .bss          00002024  eb022000  e63175e0  00042000  2**6
                  ALLOC
  7 .ARM.attributes 0000002b  00000000  00000000  000375e0  2**0
                  CONTENTS, READONLY
  8 .comment      0000005e  00000000  00000000  0003760b  2**0
                  CONTENTS, READONLY
SYMBOL TABLE:
e6304000 l    d  .loader_start	00000000 .loader_start
eb000000 l    d  .tcm_loader	00000000 .tcm_loader
00000000 l    d  .dummy_vect	00000000 .dummy_vect
e6305cb8 l    d  .loader_ro	00000000 .loader_ro
eb020000 l    d  .data	00000000 .data
eb020000 l    d  stacks	00000000 stacks
eb022000 l    d  .bss	00000000 .bss
00000000 l    d  .ARM.attributes	00000000 .ARM.attributes
00000000 l    d  .comment	00000000 .comment
00000000 l    df *ABS*	00000000 loader/loader.o
e6304130 l       .loader_start	00000000 inv_d_cache_loop2
e6304134 l       .loader_start	00000000 inv_d_cache_loop3
e630415c l       .loader_start	00000000 bss_loop
e630416c l       .loader_start	00000000 bss_end
e6304178 l       .loader_start	00000000 data_loop
e630418c l       .loader_start	00000000 data_end
e63041a4 l       .loader_start	00000000 dummy_vet_cp_loop
e63041b8 l       .loader_start	00000000 dummy_vet_cp_end
00000000 l    df *ABS*	00000000 rcar_version.c
00000000 l    df *ABS*	00000000 tcm_loader/tcm_loader.o
eb000020 l       .tcm_loader	00000000 Start
eb00005c l       .tcm_loader	00000000 Undef
eb000064 l       .tcm_loader	00000000 SWI
eb000070 l       .tcm_loader	00000000 PAbort
eb000078 l       .tcm_loader	00000000 DAbort
eb000080 l       .tcm_loader	00000000 IRQ
eb000088 l       .tcm_loader	00000000 FIQ
00000000 l    df *ABS*	00000000 tcm_loader_main.c
eb000090 l     F .tcm_loader	0000008c check_load_area
eb000268 l     O .tcm_loader	00000010 add_list.3967
00000000 l    df *ABS*	00000000 common/scif.o
00000000 l    df *ABS*	00000000 common/cpsr_acc.o
00000000 l    df *ABS*	00000000 common/report_exception.o
eb000610 l       .tcm_loader	00000000 rep_exec_panic_id
00000000 l    df *ABS*	00000000 arm_gic.c
eb022008 l     O .bss	00000004 g_gicc_base
eb02200c l     O .bss	00000004 g_gicd_base
eb022010 l     O .bss	00000004 g_irq_sec_ptr
eb022014 l     O .bss	00000004 g_num_irqs
00000000 l    df *ABS*	00000000 gic_v2.c
00000000 l    df *ABS*	00000000 error_output.c
00000000 l    df *ABS*	00000000 micro_wait.c
00000000 l    df *ABS*	00000000 protection_setting.c
00000000 l    df *ABS*	00000000 rom_api.c
eb000bc8 l     F .tcm_loader	00000054 get_table_index
eb000c40 l     O .tcm_loader	00000010 ROM_GetLcs_table.3845
00000000 l    df *ABS*	00000000 swdt.c
00000000 l    df *ABS*	00000000 dma_driver.c
00000000 l    df *ABS*	00000000 printf.c
eb00103c l     F .tcm_loader	0000007c uint32_sprint
eb0010b8 l     F .tcm_loader	00000068 uint32_print
00000000 l    df *ABS*	00000000 rcar_pwrc.c
00000000 l    df *ABS*	00000000 rpc_driver.c
00000000 l    df *ABS*	00000000 auth.c
eb022018 l     O .bss	00000004 magicNumber
00000000 l    df *ABS*	00000000 lifec_init.c
00000000 l    df *ABS*	00000000 ecc_init.c
00000000 l    df *ABS*	00000000 cpg_init.c
00000000 l    df *ABS*	00000000 common/div.o
00000000 l    df *ABS*	00000000 loader/dummy_vector_table.o
00000024 l       .dummy_vect	00000000 loop
00000020 l       .dummy_vect	00000000 DAbort
00000000 l    df *ABS*	00000000 common/tcm_cpy.o
00000000 l    df *ABS*	00000000 loader_main.c
e630c0a0 l     O .loader_ro	00000024 CSWTCH.3
e630c0c4 l     O .loader_ro	00000020 CSWTCH.4
e630c0e4 l     O .loader_ro	00000004 irq_sec_array.3954
00000000 l    df *ABS*	00000000 pfc_init_m3n.c
00000000 l    df *ABS*	00000000 pfc_init.c
00000000 l    df *ABS*	00000000 boot_init_dram_regcheck.c
e63066ec l     F .loader_ro	00000030 pfc_write_and_poll
e630671c l     F .loader_ro	00000028 vch_nxt
e6306744 l     F .loader_ro	000002d8 pll3_control
e6306a1c l     F .loader_ro	00000024 wait_dbcmd
e6306a40 l     F .loader_ro	0000001c send_dbcmd
e6306a5c l     F .loader_ro	00000018 ddr_regdef_adr
e6306a74 l     F .loader_ro	0000001c _tblcopy
e6306a90 l     F .loader_ro	00000054 _f_scale
e6306ae4 l     F .loader_ro	00000044 _f_scale_adj
e6306b28 l     F .loader_ro	000000e0 wait_freqchgreq
e6306c08 l     F .loader_ro	0000003c set_freqchgack
e6306c44 l     F .loader_ro	000000f0 reg_ddrphy_read
e6306d34 l     F .loader_ro	00000020 ddrphy_regif_idle
e6306d54 l     F .loader_ro	000000f0 reg_ddrphy_write
e6306e44 l     F .loader_ro	00000060 ddr_setval_s
e6306ea4 l     F .loader_ro	00000010 ddr_setval
e6306eb4 l     F .loader_ro	00000040 ddr_setval_ach_s
e6306ef4 l     F .loader_ro	00000010 ddr_setval_ach
e6306f04 l     F .loader_ro	00000020 update_dly
e6306f24 l     F .loader_ro	00000030 ddr_setval_ach_as
e6306f54 l     F .loader_ro	0000012c wdqdm_cp
eb022db4 l     O .bss	00001200 rdqdm_dly
e6307080 l     F .loader_ro	000000e0 reg_ddrphy_write_a
e6307160 l     F .loader_ro	00000074 _rx_offset_cal_updn
e63071d4 l     F .loader_ro	000000dc pll3_freq.part.5
e63072b0 l     F .loader_ro	00000040 ddrtbl_getval
e63072f0 l     F .loader_ro	00000054 ddrtbl_setval
e6307344 l     F .loader_ro	000009d0 ddr_config
e6307d14 l     F .loader_ro	0000003c ddr_getval_s
e6307d50 l     F .loader_ro	0000000c ddr_getval
e6307d5c l     F .loader_ro	00000080 change_lpddr4_en
e6307ddc l     F .loader_ro	00000128 swlvl1
e6307f04 l     F .loader_ro	000002fc wdqdm_man1
e6308200 l     F .loader_ro	000002d8 rx_offset_cal
e63084d8 l     F .loader_ro	000000bc ddrphy_regif_chk
e6308594 l     F .loader_ro	00000c94 ddrtbl_load
e630e028 l     O .loader_ro	00004950 DDR_REGDEF_TBL
e6312cd8 l     O .loader_ro	00003860 boardcnfs
eb02201c l     O .bss	00000004 Boardcnf
eb022020 l     O .bss	00000004 DDR_PHY_ADR_G_REGSET_NUM
eb022024 l     O .bss	00000004 DDR_PHY_ADR_G_REGSET_OFS
eb022028 l     O .bss	00000004 DDR_PHY_ADR_I_NUM
eb02202c l     O .bss	00000004 DDR_PHY_ADR_I_REGSET_NUM
eb022030 l     O .bss	00000004 DDR_PHY_ADR_I_REGSET_OFS
eb022034 l     O .bss	00000004 DDR_PHY_ADR_I_REGSET_SIZE
eb022038 l     O .bss	00000004 DDR_PHY_ADR_V_REGSET_NUM
eb02203c l     O .bss	00000004 DDR_PHY_ADR_V_REGSET_OFS
eb022040 l     O .bss	00000004 DDR_PHY_SLICE_REGSET_NUM
eb022044 l     O .bss	00000004 DDR_PHY_SLICE_REGSET_OFS
eb022048 l     O .bss	00000004 DDR_PHY_SLICE_REGSET_SIZE
eb02204c l     O .bss	00000004 DDR_PI_REGSET_NUM
eb022050 l     O .bss	00000004 DDR_PI_REGSET_OFS
eb022054 l     O .bss	00000004 Prr_Cut
eb022058 l     O .bss	00000004 Prr_Product
eb023fe8 l     O .bss	00000001 RL
eb023fe9 l     O .bss	00000001 WL
eb02205c l     O .bss	00000200 _cnf_DDR_PHY_ADR_G_REGSET
eb02225c l     O .bss	00000200 _cnf_DDR_PHY_ADR_I_REGSET
eb02245c l     O .bss	00000200 _cnf_DDR_PHY_ADR_V_REGSET
eb02265c l     O .bss	00000200 _cnf_DDR_PHY_SLICE_REGSET
eb02285c l     O .bss	00000500 _cnf_DDR_PI_REGSET
eb022d5c l     O .bss	00000004 brd_clk
eb022d60 l     O .bss	00000004 brd_clkdiv
eb022d64 l     O .bss	00000004 brd_clkdiva
eb022000 l     O .bss	00000008 ch_have_this_cs
eb022d68 l     O .bss	00000004 ddr0800_mul
eb022d6c l     O .bss	00000020 ddr_density
eb022d8c l     O .bss	00000004 ddr_mbps
eb022d90 l     O .bss	00000004 ddr_mbpsdiv
eb022d94 l     O .bss	00000004 ddr_mul
eb022d98 l     O .bss	00000004 ddr_phycaslice
eb022d9c l     O .bss	00000004 ddr_phyvalid
eb022da0 l     O .bss	00000004 ddr_tccd
eb022da4 l     O .bss	00000004 js1_ind
eb023fb4 l     O .bss	00000034 js2
eb022da8 l     O .bss	00000004 loop_max
eb022dac l     O .bss	00000004 max_density
eb022db0 l     O .bss	00000004 pDDR_REGDEF_TBL
e630c374 l     O .loader_ro	000000ec DDR_PHY_ADR_G_REGSET_H3
e630c460 l     O .loader_ro	0000013c DDR_PHY_ADR_G_REGSET_H3VER2
e630c59c l     O .loader_ro	00000100 DDR_PHY_ADR_G_REGSET_M3
e630c69c l     O .loader_ro	0000015c DDR_PHY_ADR_G_REGSET_M3N
e630c7f8 l     O .loader_ro	00000094 DDR_PHY_ADR_I_REGSET_H3
e630c88c l     O .loader_ro	00000094 DDR_PHY_ADR_I_REGSET_M3
e630c920 l     O .loader_ro	00000094 DDR_PHY_ADR_I_REGSET_M3N
e630c9b4 l     O .loader_ro	00000094 DDR_PHY_ADR_V_REGSET_H3
e630ca48 l     O .loader_ro	00000094 DDR_PHY_ADR_V_REGSET_H3VER2
e630cadc l     O .loader_ro	00000094 DDR_PHY_ADR_V_REGSET_M3
e630cb70 l     O .loader_ro	00000094 DDR_PHY_ADR_V_REGSET_M3N
e630cc04 l     O .loader_ro	00000160 DDR_PHY_SLICE_REGSET_H3
e630cd64 l     O .loader_ro	00000184 DDR_PHY_SLICE_REGSET_H3VER2
e630cee8 l     O .loader_ro	00000164 DDR_PHY_SLICE_REGSET_M3
e630d04c l     O .loader_ro	00000194 DDR_PHY_SLICE_REGSET_M3N
e630d1e0 l     O .loader_ro	000002d4 DDR_PI_REGSET_H3
e630d4b4 l     O .loader_ro	000003d4 DDR_PI_REGSET_H3VER2
e630d888 l     O .loader_ro	00000328 DDR_PI_REGSET_M3
e630dbb0 l     O .loader_ro	00000478 DDR_PI_REGSET_M3N
e6312a40 l     O .loader_ro	000000f0 TermcodeBySample
e6312b30 l     O .loader_ro	00000028 _reg_PHY_CLK_CACS_SLAVE_DELAY_X
e6312b58 l     O .loader_ro	00000028 _reg_PHY_CLK_WRX_SLAVE_DELAY
e6312b80 l     O .loader_ro	00000020 _reg_PHY_PAD_TERM_X
e6312ba0 l     O .loader_ro	00000024 _reg_PHY_RDDQS_X_FALL_SLAVE_DELAY
e6312bc4 l     O .loader_ro	00000024 _reg_PHY_RDDQS_X_RISE_SLAVE_DELAY
e6312be8 l     O .loader_ro	0000002c _reg_PHY_RX_CAL_X
00000000 l    df *ABS*	00000000 dram_sub_func.c
00000000 l    df *ABS*	00000000 qos_init_m3n_v10.c
e6316670 l     O .loader_ro	00000398 mstat_be
e6316a08 l     O .loader_ro	00000398 mstat_fix
e6316e50 l     O .loader_ro	00000398 qoswt_be
e63171e8 l     O .loader_ro	00000398 qoswt_fix
00000000 l    df *ABS*	00000000 qos_init.c
00000000 l    df *ABS*	00000000 
e630c030 l     F .loader_ro	00000008 __aif_enable_a_veneer
e630c038 l     F .loader_ro	00000008 __swdt_init_veneer
e630c040 l     F .loader_ro	00000008 __aif_enable_i_veneer
e630c048 l     F .loader_ro	00000008 __micro_wait_veneer
e630c050 l     F .loader_ro	00000008 __arm_gic_init_veneer
e630c058 l     F .loader_ro	00000008 __ROM_GetLcs_veneer
e630c060 l     F .loader_ro	00000008 __tf_printf_veneer
e630c068 l     F .loader_ro	00000008 ____aeabi_idiv_veneer
e630c070 l     F .loader_ro	00000008 __sprintf_veneer
e630c078 l     F .loader_ro	00000008 __cpg_init_veneer
e630c080 l     F .loader_ro	00000008 __arm_gic_setup_veneer
e630c088 l     F .loader_ro	00000008 ____aeabi_uidiv_veneer
e630c090 l     F .loader_ro	00000008 __console_init_veneer
e630c098 l     F .loader_ro	00000008 __do_panic_veneer
e63175e0 g       .loader_ro	00000000 __DATA_COPY_START__
eb0007f0 g     F .tcm_loader	00000010 gicd_read_itargetsr
eb0007b8 g     F .tcm_loader	00000014 arm_gic_acknowledge_interrupt
eb0005d4 g       .tcm_loader	00000000 aif_disable_i
eb00086c g     F .tcm_loader	00000010 gicd_set_icenabler
e63165f0 g     O .loader_ro	0000000e jedec_spec2_tRFC_ab
eb000050 g       .tcm_loader	00000000 do_panic
eb000810 g     F .tcm_loader	00000010 gicd_write_isenabler
eb000bb4 g     F .tcm_loader	00000014 gic_security_setting
e630bc98 g     F .loader_ro	000002f8 qos_init_m3n_v10
e63175c1 g     O .loader_ro	0000001e build_message
eb020000 g       .data	00000000 __DATA_START__
eb000b8c g     F .tcm_loader	00000028 micro_wait
eb00085c g     F .tcm_loader	00000010 gicd_set_isenabler
eb000c1c g     F .tcm_loader	00000024 ROM_GetLcs
eb0014f0 g     F .tcm_loader	0000007c initRPC
eb0005ec g       .tcm_loader	00000000 undef_report_exception
eb000000 g       .tcm_loader	00000000 __TCM_LOADER_START__
eb00087c g     F .tcm_loader	00000030 gicd_set_ipriorityr
eb000eb8 g     F .tcm_loader	000000cc execDMA
eb0016f8 g     F .tcm_loader	00000030 mstpcr_write
eb000820 g     F .tcm_loader	00000010 gicd_write_icenabler
eb001630 g     F .tcm_loader	00000004 ecc_init
eb023fec g     O .bss	00000004 _cnf_BOARDTYPE
eb022000 g       stacks	00000000 __STACKS_END__
e63165fe g     O .loader_ro	00000050 js1
00000000 g       *ABS*	00000000 __DATA_SIZE__
eb000650 g     F .tcm_loader	00000024 arm_gic_cpuif_deactivate
eb000620 g       .tcm_loader	00000000 pabt_report_exception
eb0008cc g     F .tcm_loader	00000044 undef_error
eb023ff0 g     O .bss	00000004 ddrBackup
00002024 g       *ABS*	00000000 __BSS_SIZE__
eb02401c g     O .bss	00000004 qos_init_ddr_ch
0000002c g       *ABS*	00000000 __DUMMY_VECTOR_SIZE__
eb00047c g       .tcm_loader	00000000 console_init
e63175df g       .loader_ro	00000000 __RO_END_UNALIGNED__
eb000558 g       .tcm_loader	00000000 console_putc
eb0006d4 g     F .tcm_loader	00000034 arm_gic_init
eb001634 g     F .tcm_loader	000000c4 cpg_init
eb00011c g     F .tcm_loader	0000014c tcm_loader_main
eb000910 g     F .tcm_loader	00000024 fiq_error
e6304480 g       .loader_start	00000000 __TCM_LOADER_COPY_START__
eb0013b8 g     F .tcm_loader	000000f4 rcar_pwrc_cpuon
e6309324 g     F .loader_ro	00002950 InitDram
eb001768 g       .tcm_loader	00000000 __aeabi_idiv
eb000000 g       .tcm_loader	00000000 TCM_Vector
e6316538 g     O .loader_ro	000000b8 jedec_spec2
eb0005cc g       .tcm_loader	00000000 aif_enable_i
e630bf90 g     F .loader_ro	0000008c qos_init
e6305d10 g     F .loader_ro	00000328 loader_main
e63092a4 g     F .loader_ro	00000080 boardcnf_get_ddr_mbps
0000002c g       .dummy_vect	00000000 __DUMMY_VECTOR_END__
eb00156c g     F .tcm_loader	000000a4 get_info_from_cert
e6309228 g     F .loader_ro	0000007c boardcnf_get_brd_clk
eb020000 g       .data	00000000 __DATA_END__
eb000d44 g     F .tcm_loader	00000088 swdt_release
eb0009ec g     F .tcm_loader	0000004c pabort_error
eb0008ac g     F .tcm_loader	00000020 gicd_set_itargetsr
eb0005dc g       .tcm_loader	00000000 aif_enable_a
eb000614 g       .tcm_loader	00000000 dabt_report_exception
e6312c14 g     O .loader_ro	00000020 _reg_PI_MR11_DATA_Fx_CSx
eb024024 g       .bss	00000000 __BSS_END__
eb001764 g       .tcm_loader	00000000 __aeabi_uidiv
eb000000 g       *ABS*	00000000 __ITCM_BASE__
e6312c94 g     O .loader_ro	00000020 _reg_PI_MR2_DATA_Fx_CSx
e6306038 g     F .loader_ro	0000067c pfc_init_m3n
eb023ff4 g     O .bss	00000004 pRCAR_DDR_VERSION
eb0014d8 g     F .tcm_loader	00000018 wait_endRPC
eb0005f4 g       .tcm_loader	00000000 irq_exception
e630bc84 g     F .loader_ro	0000000c dram_get_boot_status
eb001248 g     F .tcm_loader	00000164 sprintf
e630c01c g     F .loader_ro	00000010 get_refperiod
eb001808 g       .tcm_loader	00000000 __TCM_LOADER_END__
eb001120 g     F .tcm_loader	00000128 tf_printf
eb000c50 g     F .tcm_loader	000000f4 swdt_init
eb000dcc g     F .tcm_loader	00000040 swdt_exec
e63175e0 g       .loader_ro	00000000 __RO_END__
eb00162c g     F .tcm_loader	00000004 lifec_cr7_setting
eb0007e0 g     F .tcm_loader	00000010 gicd_read_igroupr
e6312c54 g     O .loader_ro	00000020 _reg_PI_MR14_DATA_Fx_CSx
eb024024 g       .bss	00000000 __CR7_END__
eb000e88 g     F .tcm_loader	00000030 initDMA
eb022000 g       .bss	00000000 __BSS_START__
e6304000 g       .loader_start	00000000 __RO_START__
eb0005f0 g       .tcm_loader	00000000 fiq_report_exception
eb001728 g       .tcm_loader	00000000 __aeabi_uidivmod
eb0007cc g     F .tcm_loader	00000014 arm_gic_end_of_interrupt
eb00098c g     F .tcm_loader	00000060 dabort_error
e6312c34 g     O .loader_ro	00000020 _reg_PI_MR12_DATA_Fx_CSx
e6304000 g       .loader_start	00000000 Startup
e630bc74 g     F .loader_ro	00000010 get_boardcnf_phyvalid
00001808 g       *ABS*	00000000 __TCM_LOADER_SIZE__
eb023ff8 g     O .bss	00000024 tcal
eb000674 g     F .tcm_loader	00000060 arm_gic_pcpu_distif_setup
e63066b4 g     F .loader_ro	00000038 pfc_init
e6304400 g     O .loader_start	00000080 version_of_renesas
eb020000 g       stacks	00000000 __STACKS_START__
eb024020 g     O .bss	00000001 qos_init_ddr_phyvalid
eb00062c g     F .tcm_loader	00000024 arm_gic_cpuif_setup
e630bc90 g     F .loader_ro	00000008 dram_update_boot_status
eb000830 g     F .tcm_loader	0000002c gicd_clr_igroupr
e6305cb8 g       .loader_ro	00000000 tcmcpy
eb0005a0 g       .tcm_loader	00000000 console_wait
00000000 g       .dummy_vect	00000000 dummy_vect
eb00176c g       .tcm_loader	00000000 __aeabi_idivmod
eb000800 g     F .tcm_loader	00000010 gicd_write_igroupr
e6312cb4 g     O .loader_ro	00000020 _reg_PI_MR3_DATA_Fx_CSx
eb000934 g     F .tcm_loader	00000058 interrupt_error_id
e6312c74 g     O .loader_ro	00000020 _reg_PI_MR1_DATA_Fx_CSx
00000000 g       .dummy_vect	00000000 __DUMMY_VECTOR_START__
eb000708 g     F .tcm_loader	000000b0 arm_gic_setup
eb0005e4 g       .tcm_loader	00000000 aif_disable_a



Disassembly of section .loader_start:

e6304000 <Startup>:
e6304000:	e3a00000 	mov	r0, #0
e6304004:	e3a01000 	mov	r1, #0
e6304008:	e3a02000 	mov	r2, #0
e630400c:	e3a03000 	mov	r3, #0
e6304010:	e3a04000 	mov	r4, #0
e6304014:	e3a05000 	mov	r5, #0
e6304018:	e3a06000 	mov	r6, #0
e630401c:	e3a07000 	mov	r7, #0
e6304020:	e3a08000 	mov	r8, #0
e6304024:	e3a09000 	mov	r9, #0
e6304028:	e3a0a000 	mov	sl, #0
e630402c:	e3a0b000 	mov	fp, #0
e6304030:	e3a0c000 	mov	ip, #0
e6304034:	e3a0e000 	mov	lr, #0
e6304038:	e59f01c4 	ldr	r0, [pc, #452]	; e6304204 <dummy_vet_cp_end+0x4c>
e630403c:	e321f0d7 	msr	CPSR_c, #215	; 0xd7
e6304040:	e1a0d000 	mov	sp, r0
e6304044:	e321f0db 	msr	CPSR_c, #219	; 0xdb
e6304048:	e2400080 	sub	r0, r0, #128	; 0x80
e630404c:	e1a0d000 	mov	sp, r0
e6304050:	e321f0d1 	msr	CPSR_c, #209	; 0xd1
e6304054:	e2400080 	sub	r0, r0, #128	; 0x80
e6304058:	e1a0d000 	mov	sp, r0
e630405c:	e321f0d2 	msr	CPSR_c, #210	; 0xd2
e6304060:	e2400080 	sub	r0, r0, #128	; 0x80
e6304064:	e1a0d000 	mov	sp, r0
e6304068:	e321f0d3 	msr	CPSR_c, #211	; 0xd3
e630406c:	e2400080 	sub	r0, r0, #128	; 0x80
e6304070:	e1a0d000 	mov	sp, r0
e6304074:	e59f018c 	ldr	r0, [pc, #396]	; e6304208 <dummy_vet_cp_end+0x50>
e6304078:	e5901000 	ldr	r1, [r0]
e630407c:	e3811001 	orr	r1, r1, #1
e6304080:	e5801000 	str	r1, [r0]
e6304084:	ee190f11 	mrc	15, 0, r0, cr9, cr1, {0}
e6304088:	e59f117c 	ldr	r1, [pc, #380]	; e630420c <dummy_vet_cp_end+0x54>
e630408c:	e1800001 	orr	r0, r0, r1
e6304090:	ee090f11 	mcr	15, 0, r0, cr9, cr1, {0}
e6304094:	ee190f31 	mrc	15, 0, r0, cr9, cr1, {1}
e6304098:	e3a01001 	mov	r1, #1
e630409c:	e1800001 	orr	r0, r0, r1
e63040a0:	ee091f31 	mcr	15, 0, r1, cr9, cr1, {1}
e63040a4:	e59f0164 	ldr	r0, [pc, #356]	; e6304210 <dummy_vet_cp_end+0x58>
e63040a8:	e5901000 	ldr	r1, [r0]
e63040ac:	e3811102 	orr	r1, r1, #-2147483648	; 0x80000000
e63040b0:	e5801000 	str	r1, [r0]
e63040b4:	e3a00000 	mov	r0, #0
e63040b8:	ee0f0f12 	mcr	15, 0, r0, cr15, cr2, {0}
e63040bc:	ee0f0f32 	mcr	15, 0, r0, cr15, cr2, {1}
e63040c0:	ee0f0f52 	mcr	15, 0, r0, cr15, cr2, {2}
e63040c4:	ee0f0f13 	mcr	15, 0, r0, cr15, cr3, {0}
e63040c8:	ee0f0f33 	mcr	15, 0, r0, cr15, cr3, {1}
e63040cc:	ee0f0f53 	mcr	15, 0, r0, cr15, cr3, {2}
e63040d0:	ee0f0f14 	mcr	15, 0, r0, cr15, cr4, {0}
e63040d4:	ee0f0f15 	mcr	15, 0, r0, cr15, cr5, {0}
e63040d8:	ee110f30 	mrc	15, 0, r0, cr1, cr0, {1}
e63040dc:	e3a01c06 	mov	r1, #1536	; 0x600
e63040e0:	e1800001 	orr	r0, r0, r1
e63040e4:	ee010f30 	mcr	15, 0, r0, cr1, cr0, {1}
e63040e8:	ee111f10 	mrc	15, 0, r1, cr1, cr0, {0}
e63040ec:	e3811a01 	orr	r1, r1, #4096	; 0x1000
e63040f0:	e3811b02 	orr	r1, r1, #2048	; 0x800
e63040f4:	ee070f15 	mcr	15, 0, r0, cr7, cr5, {0}
e63040f8:	ee070fd5 	mcr	15, 0, r0, cr7, cr5, {6}
e63040fc:	ee011f10 	mcr	15, 0, r1, cr1, cr0, {0}
e6304100:	f57ff06f 	isb	sy
e6304104:	e3a0a000 	mov	sl, #0
e6304108:	ee40af10 	mcr	15, 2, sl, cr0, cr0, {0}
e630410c:	f57ff06f 	isb	sy
e6304110:	ee301f10 	mrc	15, 1, r1, cr0, cr0, {0}
e6304114:	e2012007 	and	r2, r1, #7
e6304118:	e2822004 	add	r2, r2, #4
e630411c:	e59f40f0 	ldr	r4, [pc, #240]	; e6304214 <dummy_vet_cp_end+0x5c>
e6304120:	e01441a1 	ands	r4, r4, r1, lsr #3
e6304124:	e16f5f14 	clz	r5, r4
e6304128:	e59f70e8 	ldr	r7, [pc, #232]	; e6304218 <dummy_vet_cp_end+0x60>
e630412c:	e01776a1 	ands	r7, r7, r1, lsr #13

e6304130 <inv_d_cache_loop2>:
e6304130:	e1a09004 	mov	r9, r4

e6304134 <inv_d_cache_loop3>:
e6304134:	e18ab519 	orr	fp, sl, r9, lsl r5
e6304138:	e18bb217 	orr	fp, fp, r7, lsl r2
e630413c:	ee07bf56 	mcr	15, 0, fp, cr7, cr6, {2}
e6304140:	e2599001 	subs	r9, r9, #1
e6304144:	aafffffa 	bge	e6304134 <inv_d_cache_loop3>
e6304148:	e2577001 	subs	r7, r7, #1
e630414c:	aafffff7 	bge	e6304130 <inv_d_cache_loop2>
e6304150:	e3a00000 	mov	r0, #0
e6304154:	e59f10c0 	ldr	r1, [pc, #192]	; e630421c <dummy_vet_cp_end+0x64>
e6304158:	e59f20c0 	ldr	r2, [pc, #192]	; e6304220 <dummy_vet_cp_end+0x68>

e630415c <bss_loop>:
e630415c:	e2522004 	subs	r2, r2, #4
e6304160:	3a000001 	bcc	e630416c <bss_end>
e6304164:	e7810002 	str	r0, [r1, r2]
e6304168:	eafffffb 	b	e630415c <bss_loop>

e630416c <bss_end>:
e630416c:	e59f00b0 	ldr	r0, [pc, #176]	; e6304224 <dummy_vet_cp_end+0x6c>
e6304170:	e59f10b0 	ldr	r1, [pc, #176]	; e6304228 <dummy_vet_cp_end+0x70>
e6304174:	e59f20b0 	ldr	r2, [pc, #176]	; e630422c <dummy_vet_cp_end+0x74>

e6304178 <data_loop>:
e6304178:	e2522004 	subs	r2, r2, #4
e630417c:	3a000002 	bcc	e630418c <data_end>
e6304180:	e7903002 	ldr	r3, [r0, r2]
e6304184:	e7813002 	str	r3, [r1, r2]
e6304188:	eafffffa 	b	e6304178 <data_loop>

e630418c <data_end>:
e630418c:	e59f009c 	ldr	r0, [pc, #156]	; e6304230 <dummy_vet_cp_end+0x78>
e6304190:	e59f109c 	ldr	r1, [pc, #156]	; e6304234 <dummy_vet_cp_end+0x7c>
e6304194:	e59f209c 	ldr	r2, [pc, #156]	; e6304238 <dummy_vet_cp_end+0x80>
e6304198:	e59f309c 	ldr	r3, [pc, #156]	; e630423c <dummy_vet_cp_end+0x84>
e630419c:	e1a04001 	mov	r4, r1
e63041a0:	e0800003 	add	r0, r0, r3

e63041a4 <dummy_vet_cp_loop>:
e63041a4:	e2522004 	subs	r2, r2, #4
e63041a8:	3a000002 	bcc	e63041b8 <dummy_vet_cp_end>
e63041ac:	e7903002 	ldr	r3, [r0, r2]
e63041b0:	e7813002 	str	r3, [r1, r2]
e63041b4:	eafffffa 	b	e63041a4 <dummy_vet_cp_loop>

e63041b8 <dummy_vet_cp_end>:
e63041b8:	f57ff04f 	dsb	sy
e63041bc:	ee070f15 	mcr	15, 0, r0, cr7, cr5, {0}
e63041c0:	ee070fd5 	mcr	15, 0, r0, cr7, cr5, {6}
e63041c4:	f57ff06f 	isb	sy
e63041c8:	f1080100 	cpsie	a
e63041cc:	e320f000 	nop	{0}
e63041d0:	f10c0100 	cpsid	a
e63041d4:	e59f0064 	ldr	r0, [pc, #100]	; e6304240 <dummy_vet_cp_end+0x88>
e63041d8:	e59f1050 	ldr	r1, [pc, #80]	; e6304230 <dummy_vet_cp_end+0x78>
e63041dc:	e59f2058 	ldr	r2, [pc, #88]	; e630423c <dummy_vet_cp_end+0x84>
e63041e0:	eb0006b4 	bl	e6305cb8 <tcmcpy>
e63041e4:	eb0006c9 	bl	e6305d10 <loader_main>
e63041e8:	ee070f15 	mcr	15, 0, r0, cr7, cr5, {0}
e63041ec:	ee070fd5 	mcr	15, 0, r0, cr7, cr5, {6}
e63041f0:	f57ff06f 	isb	sy
e63041f4:	e59ff048 	ldr	pc, [pc, #72]	; e6304244 <dummy_vet_cp_end+0x8c>
e63041f8:	e320f000 	nop	{0}
e63041fc:	e320f000 	nop	{0}
e6304200:	e320f000 	nop	{0}
e6304204:	eb022000 	.word	0xeb022000
e6304208:	f0000208 	.word	0xf0000208
e630420c:	eb020001 	.word	0xeb020001
e6304210:	e6271800 	.word	0xe6271800
e6304214:	000003ff 	.word	0x000003ff
e6304218:	00007fff 	.word	0x00007fff
e630421c:	eb022000 	.word	0xeb022000
e6304220:	00002024 	.word	0x00002024
e6304224:	e63175e0 	.word	0xe63175e0
e6304228:	eb020000 	.word	0xeb020000
e630422c:	00000000 	.word	0x00000000
e6304230:	e6304480 	.word	0xe6304480
e6304234:	eb000000 	.word	0xeb000000
e6304238:	0000002c 	.word	0x0000002c
e630423c:	00001808 	.word	0x00001808
e6304240:	eb000000 	.word	0xeb000000
e6304244:	eb000000 	.word	0xeb000000
	...

e6304400 <version_of_renesas>:
e6304400:	2e302e32 00000038 00000000 00000000     2.0.8...........
	...

Disassembly of section .tcm_loader:

eb000000 <TCM_Vector>:
eb000000:	ea000006 	b	eb000020 <Start>
eb000004:	ea000014 	b	eb00005c <Undef>
eb000008:	ea000015 	b	eb000064 <SWI>
eb00000c:	ea000017 	b	eb000070 <PAbort>
eb000010:	ea000018 	b	eb000078 <DAbort>
eb000014:	e320f000 	nop	{0}
eb000018:	ea000018 	b	eb000080 <IRQ>
eb00001c:	ea000019 	b	eb000088 <FIQ>

eb000020 <Start>:
eb000020:	eb00003d 	bl	eb00011c <tcm_loader_main>
eb000024:	ee111f10 	mrc	15, 0, r1, cr1, cr0, {0}
eb000028:	e3c11a01 	bic	r1, r1, #4096	; 0x1000
eb00002c:	e3c11b02 	bic	r1, r1, #2048	; 0x800
eb000030:	ee011f10 	mcr	15, 0, r1, cr1, cr0, {0}
eb000034:	ee071f15 	mcr	15, 0, r1, cr7, cr5, {0}
eb000038:	ee071fd5 	mcr	15, 0, r1, cr7, cr5, {6}
eb00003c:	f57ff06f 	isb	sy
eb000040:	f10c0100 	cpsid	a
eb000044:	e59f1040 	ldr	r1, [pc, #64]	; eb00008c <FIQ+0x4>
eb000048:	ee091f31 	mcr	15, 0, r1, cr9, cr1, {1}
eb00004c:	e12fff10 	bx	r0

eb000050 <do_panic>:
eb000050:	e320f000 	nop	{0}
eb000054:	e320f002 	wfe
eb000058:	eafffffd 	b	eb000054 <do_panic+0x4>

eb00005c <Undef>:
eb00005c:	e24e0004 	sub	r0, lr, #4
eb000060:	ea000161 	b	eb0005ec <undef_report_exception>

eb000064 <SWI>:
eb000064:	e320f000 	nop	{0}
eb000068:	e320f002 	wfe
eb00006c:	eafffffd 	b	eb000068 <SWI+0x4>

eb000070 <PAbort>:
eb000070:	e24e0004 	sub	r0, lr, #4
eb000074:	ea000169 	b	eb000620 <pabt_report_exception>

eb000078 <DAbort>:
eb000078:	e24e0008 	sub	r0, lr, #8
eb00007c:	ea000164 	b	eb000614 <dabt_report_exception>

eb000080 <IRQ>:
eb000080:	e24e4004 	sub	r4, lr, #4
eb000084:	ea00015a 	b	eb0005f4 <irq_exception>

eb000088 <FIQ>:
eb000088:	ea000158 	b	eb0005f0 <fiq_report_exception>
eb00008c:	eb000001 	.word	0xeb000001

eb000090 <check_load_area>:
eb000090:	e92d4070 	push	{r4, r5, r6, lr}
eb000094:	e1a04002 	mov	r4, r2
eb000098:	e0812002 	add	r2, r1, r2
eb00009c:	e3520303 	cmp	r2, #201326592	; 0xc000000
eb0000a0:	9a000007 	bls	eb0000c4 <check_load_area+0x34>
eb0000a4:	e59f005c 	ldr	r0, [pc, #92]	; eb000108 <check_load_area+0x78>
eb0000a8:	e1a06001 	mov	r6, r1
eb0000ac:	eb00041b 	bl	eb001120 <tf_printf>
eb0000b0:	e59f0054 	ldr	r0, [pc, #84]	; eb00010c <check_load_area+0x7c>
eb0000b4:	e1a02004 	mov	r2, r4
eb0000b8:	e1a01006 	mov	r1, r6
eb0000bc:	eb000417 	bl	eb001120 <tf_printf>
eb0000c0:	ebffffe2 	bl	eb000050 <do_panic>
eb0000c4:	e59f1044 	ldr	r1, [pc, #68]	; eb000110 <check_load_area+0x80>
eb0000c8:	e1a05000 	mov	r5, r0
eb0000cc:	e7912183 	ldr	r2, [r1, r3, lsl #3]
eb0000d0:	e1520000 	cmp	r2, r0
eb0000d4:	9a000005 	bls	eb0000f0 <check_load_area+0x60>
eb0000d8:	e59f0034 	ldr	r0, [pc, #52]	; eb000114 <check_load_area+0x84>
eb0000dc:	eb00040f 	bl	eb001120 <tf_printf>
eb0000e0:	e1a02004 	mov	r2, r4
eb0000e4:	e59f002c 	ldr	r0, [pc, #44]	; eb000118 <check_load_area+0x88>
eb0000e8:	e1a01005 	mov	r1, r5
eb0000ec:	eafffff2 	b	eb0000bc <check_load_area+0x2c>
eb0000f0:	e0811183 	add	r1, r1, r3, lsl #3
eb0000f4:	e0843000 	add	r3, r4, r0
eb0000f8:	e5912004 	ldr	r2, [r1, #4]
eb0000fc:	e1520003 	cmp	r2, r3
eb000100:	28bd8070 	popcs	{r4, r5, r6, pc}
eb000104:	eafffff3 	b	eb0000d8 <check_load_area+0x48>
eb000108:	eb000278 	.word	0xeb000278
eb00010c:	eb0002a8 	.word	0xeb0002a8
eb000110:	eb000268 	.word	0xeb000268
eb000114:	eb0002df 	.word	0xeb0002df
eb000118:	eb000314 	.word	0xeb000314

eb00011c <tcm_loader_main>:
eb00011c:	e92d401f 	push	{r0, r1, r2, r3, r4, lr}
eb000120:	eb000542 	bl	eb001630 <ecc_init>
eb000124:	eb0004f1 	bl	eb0014f0 <initRPC>
eb000128:	eb000356 	bl	eb000e88 <initDMA>
eb00012c:	e59f0104 	ldr	r0, [pc, #260]	; eb000238 <tcm_loader_main+0x11c>
eb000130:	eb0003fa 	bl	eb001120 <tf_printf>
eb000134:	e59f1100 	ldr	r1, [pc, #256]	; eb00023c <tcm_loader_main+0x120>
eb000138:	e59f0100 	ldr	r0, [pc, #256]	; eb000240 <tcm_loader_main+0x124>
eb00013c:	e3a02d12 	mov	r2, #1152	; 0x480
eb000140:	eb00035c 	bl	eb000eb8 <execDMA>
eb000144:	e59f00f4 	ldr	r0, [pc, #244]	; eb000240 <tcm_loader_main+0x124>
eb000148:	e28d2008 	add	r2, sp, #8
eb00014c:	e28d100c 	add	r1, sp, #12
eb000150:	eb000505 	bl	eb00156c <get_info_from_cert>
eb000154:	e59d200c 	ldr	r2, [sp, #12]
eb000158:	e2423001 	sub	r3, r2, #1
eb00015c:	e3530506 	cmp	r3, #25165824	; 0x1800000
eb000160:	259f00dc 	ldrcs	r0, [pc, #220]	; eb000244 <tcm_loader_main+0x128>
eb000164:	2a000018 	bcs	eb0001cc <tcm_loader_main+0xb0>
eb000168:	e59f10d8 	ldr	r1, [pc, #216]	; eb000248 <tcm_loader_main+0x12c>
eb00016c:	e3a03000 	mov	r3, #0
eb000170:	e59d0008 	ldr	r0, [sp, #8]
eb000174:	ebffffc5 	bl	eb000090 <check_load_area>
eb000178:	e59d200c 	ldr	r2, [sp, #12]
eb00017c:	e59d1008 	ldr	r1, [sp, #8]
eb000180:	e59f00c4 	ldr	r0, [pc, #196]	; eb00024c <tcm_loader_main+0x130>
eb000184:	eb0003e5 	bl	eb001120 <tf_printf>
eb000188:	e59d200c 	ldr	r2, [sp, #12]
eb00018c:	e59f10b4 	ldr	r1, [pc, #180]	; eb000248 <tcm_loader_main+0x12c>
eb000190:	e59d0008 	ldr	r0, [sp, #8]
eb000194:	eb000347 	bl	eb000eb8 <execDMA>
eb000198:	e59f10b0 	ldr	r1, [pc, #176]	; eb000250 <tcm_loader_main+0x134>
eb00019c:	e59f009c 	ldr	r0, [pc, #156]	; eb000240 <tcm_loader_main+0x124>
eb0001a0:	e3a02d12 	mov	r2, #1152	; 0x480
eb0001a4:	eb000343 	bl	eb000eb8 <execDMA>
eb0001a8:	e28d2004 	add	r2, sp, #4
eb0001ac:	e59f008c 	ldr	r0, [pc, #140]	; eb000240 <tcm_loader_main+0x124>
eb0001b0:	e28d100c 	add	r1, sp, #12
eb0001b4:	eb0004ec 	bl	eb00156c <get_info_from_cert>
eb0001b8:	e59d200c 	ldr	r2, [sp, #12]
eb0001bc:	e2423001 	sub	r3, r2, #1
eb0001c0:	e3530baa 	cmp	r3, #174080	; 0x2a800
eb0001c4:	3a000002 	bcc	eb0001d4 <tcm_loader_main+0xb8>
eb0001c8:	e59f0084 	ldr	r0, [pc, #132]	; eb000254 <tcm_loader_main+0x138>
eb0001cc:	eb0003d3 	bl	eb001120 <tf_printf>
eb0001d0:	ebffff9e 	bl	eb000050 <do_panic>
eb0001d4:	e59d0004 	ldr	r0, [sp, #4]
eb0001d8:	e3a03001 	mov	r3, #1
eb0001dc:	e59f1074 	ldr	r1, [pc, #116]	; eb000258 <tcm_loader_main+0x13c>
eb0001e0:	ebffffaa 	bl	eb000090 <check_load_area>
eb0001e4:	e59d200c 	ldr	r2, [sp, #12]
eb0001e8:	e59d1004 	ldr	r1, [sp, #4]
eb0001ec:	e59f0068 	ldr	r0, [pc, #104]	; eb00025c <tcm_loader_main+0x140>
eb0001f0:	eb0003ca 	bl	eb001120 <tf_printf>
eb0001f4:	e59d200c 	ldr	r2, [sp, #12]
eb0001f8:	e59f1058 	ldr	r1, [pc, #88]	; eb000258 <tcm_loader_main+0x13c>
eb0001fc:	e59d0004 	ldr	r0, [sp, #4]
eb000200:	eb00032c 	bl	eb000eb8 <execDMA>
eb000204:	e59f0054 	ldr	r0, [pc, #84]	; eb000260 <tcm_loader_main+0x144>
eb000208:	eb0003c4 	bl	eb001120 <tf_printf>
eb00020c:	eb0000e3 	bl	eb0005a0 <console_wait>
eb000210:	eb0002cb 	bl	eb000d44 <swdt_release>
eb000214:	eb000266 	bl	eb000bb4 <gic_security_setting>
eb000218:	e59f0044 	ldr	r0, [pc, #68]	; eb000264 <tcm_loader_main+0x148>
eb00021c:	eb0003bf 	bl	eb001120 <tf_printf>
eb000220:	e59d0004 	ldr	r0, [sp, #4]
eb000224:	eb000463 	bl	eb0013b8 <rcar_pwrc_cpuon>
eb000228:	eb0004ff 	bl	eb00162c <lifec_cr7_setting>
eb00022c:	e59d0008 	ldr	r0, [sp, #8]
eb000230:	e28dd014 	add	sp, sp, #20
eb000234:	e49df004 	pop	{pc}		; (ldr pc, [sp], #4)
eb000238:	eb000350 	.word	0xeb000350
eb00023c:	080c0000 	.word	0x080c0000
eb000240:	e6302000 	.word	0xe6302000
eb000244:	eb00036b 	.word	0xeb00036b
eb000248:	08780000 	.word	0x08780000
eb00024c:	eb00038b 	.word	0xeb00038b
eb000250:	080c0800 	.word	0x080c0800
eb000254:	eb0003c1 	.word	0xeb0003c1
eb000258:	08140000 	.word	0x08140000
eb00025c:	eb0003e8 	.word	0xeb0003e8
eb000260:	eb00042c 	.word	0xeb00042c
eb000264:	eb00044c 	.word	0xeb00044c

eb000268 <add_list.3967>:
eb000268:	40000000 c0000000 e6300000 e6360000     ...@......0...6.
eb000278:	4f525245 20203a52 37524320 6863203a     ERROR:   CR7: ch
eb000288:	206b6365 64616f6c 65726120 73282061     eck load area (s
eb000298:	6372756f 64612065 73657264 000a2973     ource address)..
eb0002a8:	4f525245 20203a52 37524320 6f73203a     ERROR:   CR7: so
eb0002b8:	65637275 64646120 73736572 30203d20     urce address = 0
eb0002c8:	20782578 67616d69 69732065 3d20657a     x%x image size =
eb0002d8:	25783020 45000a78 524f5252 2020203a      0x%x..ERROR:   
eb0002e8:	3a375243 65686320 6c206b63 2064616f     CR7: check load 
eb0002f8:	61657261 65642820 6e697473 6f697461     area (destinatio
eb000308:	6461206e 73657264 000a2973 4f525245     n address)..ERRO
eb000318:	20203a52 37524320 6564203a 6e697473     R:   CR7: destin
eb000328:	6f697461 6461206e 73657264 203d2073     ation address = 
eb000338:	78257830 616d6920 73206567 20657a69     0x%x image size 
eb000348:	7830203d 000a7825 49544f4e 203a4543     = 0x%x..NOTICE: 
eb000358:	726f4e20 206c616d 746f6f62 37524328      Normal boot(CR7
eb000368:	45000a29 524f5252 2020203a 534f5452     )..ERROR:   RTOS
eb000378:	616d6920 73206567 20657a69 6f727265      image size erro
eb000388:	4e000a72 4349544f 20203a45 534f5452     r..NOTICE:  RTOS
eb000398:	616f6c20 64612064 73657264 78303d73      load address=0x
eb0003a8:	52207825 20534f54 67616d69 69732065     %x RTOS image si
eb0003b8:	303d657a 0a782578 52524500 203a524f     ze=0x%x..ERROR: 
eb0003c8:	41432020 4c207835 6564616f 6d692072       CA5x Loader im
eb0003d8:	20656761 657a6973 72726520 000a726f     age size error..
eb0003e8:	49544f4e 203a4543 35414320 6f4c2078     NOTICE:  CA5x Lo
eb0003f8:	72656461 616f6c20 64612064 73657264     ader load addres
eb000408:	78303d73 43207825 20783541 64616f4c     s=0x%x CA5x Load
eb000418:	69207265 6567616d 7a697320 78303d65     er image size=0x
eb000428:	000a7825 49544f4e 203a4543 63694b20     %x..NOTICE:  Kic
eb000438:	4143206b 61203735 616d2073 43206e69     k CA57 as main C
eb000448:	000a5550 49544f4e 203a4543 696b5320     PU..NOTICE:  Ski
eb000458:	6e697070 694c2067 20436566 74746573     pping LifeC sett
eb000468:	20676e69 20726f66 74736574 0a676e69     ing for testing.
eb000478:	00000000                                ....

eb00047c <console_init>:
eb00047c:	e92d4001 	push	{r0, lr}
eb000480:	e59f0130 	ldr	r0, [pc, #304]	; eb0005b8 <console_wait+0x18>
eb000484:	e59f1130 	ldr	r1, [pc, #304]	; eb0005bc <console_wait+0x1c>
eb000488:	e3a02b01 	mov	r2, #1024	; 0x400
eb00048c:	eb000499 	bl	eb0016f8 <mstpcr_write>
eb000490:	e59f0128 	ldr	r0, [pc, #296]	; eb0005c0 <console_wait+0x20>
eb000494:	e3a01000 	mov	r1, #0
eb000498:	e1c010b8 	strh	r1, [r0, #8]
eb00049c:	e1d011b8 	ldrh	r1, [r0, #24]
eb0004a0:	e3811006 	orr	r1, r1, #6
eb0004a4:	e1c011b8 	strh	r1, [r0, #24]
eb0004a8:	e3a01000 	mov	r1, #0
eb0004ac:	e1c011b0 	strh	r1, [r0, #16]
eb0004b0:	e3a01000 	mov	r1, #0
eb0004b4:	e1c012b4 	strh	r1, [r0, #36]	; 0x24
eb0004b8:	e1d010b8 	ldrh	r1, [r0, #8]
eb0004bc:	e3c11003 	bic	r1, r1, #3
eb0004c0:	e3a02000 	mov	r2, #0
eb0004c4:	e1811002 	orr	r1, r1, r2
eb0004c8:	e1c010b8 	strh	r1, [r0, #8]
eb0004cc:	e3a01000 	mov	r1, #0
eb0004d0:	e1c010b0 	strh	r1, [r0]
eb0004d4:	e59f10e8 	ldr	r1, [pc, #232]	; eb0005c4 <console_wait+0x24>
eb0004d8:	e5911000 	ldr	r1, [r1]
eb0004dc:	e3072fff 	movw	r2, #32767	; 0x7fff
eb0004e0:	e0011002 	and	r1, r1, r2
eb0004e4:	e3a02c4f 	mov	r2, #20224	; 0x4f00
eb0004e8:	e1510002 	cmp	r1, r2
eb0004ec:	0a00000d 	beq	eb000528 <console_init+0xac>
eb0004f0:	e2011c7f 	and	r1, r1, #32512	; 0x7f00
eb0004f4:	e3a02c57 	mov	r2, #22272	; 0x5700
eb0004f8:	e1510002 	cmp	r1, r2
eb0004fc:	1a000007 	bne	eb000520 <console_init+0xa4>
eb000500:	e59f10c0 	ldr	r1, [pc, #192]	; eb0005c8 <console_wait+0x28>
eb000504:	e5911000 	ldr	r1, [r1]
eb000508:	e2011a01 	and	r1, r1, #4096	; 0x1000
eb00050c:	e3a02a01 	mov	r2, #4096	; 0x1000
eb000510:	e1510002 	cmp	r1, r2
eb000514:	1a000001 	bne	eb000520 <console_init+0xa4>
eb000518:	e3a0100f 	mov	r1, #15
eb00051c:	ea000002 	b	eb00052c <console_init+0xb0>
eb000520:	e3a01011 	mov	r1, #17
eb000524:	ea000000 	b	eb00052c <console_init+0xb0>
eb000528:	e3a01008 	mov	r1, #8
eb00052c:	e5c01004 	strb	r1, [r0, #4]
eb000530:	e3a01064 	mov	r1, #100	; 0x64
eb000534:	e2511001 	subs	r1, r1, #1
eb000538:	1afffffd 	bne	eb000534 <console_init+0xb8>
eb00053c:	e3a01000 	mov	r1, #0
eb000540:	e1c011b8 	strh	r1, [r0, #24]
eb000544:	e1d010b8 	ldrh	r1, [r0, #8]
eb000548:	e3811030 	orr	r1, r1, #48	; 0x30
eb00054c:	e1c010b8 	strh	r1, [r0, #8]
eb000550:	e3a00001 	mov	r0, #1
eb000554:	e8bd8001 	pop	{r0, pc}

eb000558 <console_putc>:
eb000558:	e59f1060 	ldr	r1, [pc, #96]	; eb0005c0 <console_wait+0x20>
eb00055c:	e350000a 	cmp	r0, #10
eb000560:	1a000005 	bne	eb00057c <console_putc+0x24>
eb000564:	e1d121bc 	ldrh	r2, [r1, #28]
eb000568:	e7e42452 	ubfx	r2, r2, #8, #5
eb00056c:	e3520010 	cmp	r2, #16
eb000570:	2afffffb 	bcs	eb000564 <console_putc+0xc>
eb000574:	e3a0200d 	mov	r2, #13
eb000578:	e5c1200c 	strb	r2, [r1, #12]
eb00057c:	e1d121bc 	ldrh	r2, [r1, #28]
eb000580:	e7e42452 	ubfx	r2, r2, #8, #5
eb000584:	e3520010 	cmp	r2, #16
eb000588:	2afffffb 	bcs	eb00057c <console_putc+0x24>
eb00058c:	e5c1000c 	strb	r0, [r1, #12]
eb000590:	e1d121b0 	ldrh	r2, [r1, #16]
eb000594:	e3c22040 	bic	r2, r2, #64	; 0x40
eb000598:	e1c121b0 	strh	r2, [r1, #16]
eb00059c:	e12fff1e 	bx	lr

eb0005a0 <console_wait>:
eb0005a0:	e59f1018 	ldr	r1, [pc, #24]	; eb0005c0 <console_wait+0x20>
eb0005a4:	e1d121b0 	ldrh	r2, [r1, #16]
eb0005a8:	e2022040 	and	r2, r2, #64	; 0x40
eb0005ac:	e3520040 	cmp	r2, #64	; 0x40
eb0005b0:	1afffffb 	bne	eb0005a4 <console_wait+0x4>
eb0005b4:	e12fff1e 	bx	lr
eb0005b8:	e615011c 	.word	0xe615011c
eb0005bc:	e6150048 	.word	0xe6150048
eb0005c0:	e6e88000 	.word	0xe6e88000
eb0005c4:	fff00044 	.word	0xfff00044
eb0005c8:	e6160060 	.word	0xe6160060

eb0005cc <aif_enable_i>:
eb0005cc:	f1080080 	cpsie	i
eb0005d0:	e12fff1e 	bx	lr

eb0005d4 <aif_disable_i>:
eb0005d4:	f10c0080 	cpsid	i
eb0005d8:	e12fff1e 	bx	lr

eb0005dc <aif_enable_a>:
eb0005dc:	f1080100 	cpsie	a
eb0005e0:	e12fff1e 	bx	lr

eb0005e4 <aif_disable_a>:
eb0005e4:	f10c0100 	cpsid	a
eb0005e8:	e12fff1e 	bx	lr

eb0005ec <undef_report_exception>:
eb0005ec:	ea0000b6 	b	eb0008cc <undef_error>

eb0005f0 <fiq_report_exception>:
eb0005f0:	ea0000c6 	b	eb000910 <fiq_error>

eb0005f4 <irq_exception>:
eb0005f4:	eb00006f 	bl	eb0007b8 <arm_gic_acknowledge_interrupt>
eb0005f8:	e30023ff 	movw	r2, #1023	; 0x3ff
eb0005fc:	e0000002 	and	r0, r0, r2
eb000600:	e3a030ad 	mov	r3, #173	; 0xad
eb000604:	e1500003 	cmp	r0, r3
eb000608:	01a00004 	moveq	r0, r4
eb00060c:	0a0001ee 	beq	eb000dcc <swdt_exec>

eb000610 <rep_exec_panic_id>:
eb000610:	ea0000c7 	b	eb000934 <interrupt_error_id>

eb000614 <dabt_report_exception>:
eb000614:	ee151f10 	mrc	15, 0, r1, cr5, cr0, {0}
eb000618:	ee162f10 	mrc	15, 0, r2, cr6, cr0, {0}
eb00061c:	ea0000da 	b	eb00098c <dabort_error>

eb000620 <pabt_report_exception>:
eb000620:	ee150f30 	mrc	15, 0, r0, cr5, cr0, {1}
eb000624:	ee161f50 	mrc	15, 0, r1, cr6, cr0, {2}
eb000628:	ea0000ef 	b	eb0009ec <pabort_error>

eb00062c <arm_gic_cpuif_setup>:
eb00062c:	e59f3018 	ldr	r3, [pc, #24]	; eb00064c <arm_gic_cpuif_setup+0x20>
eb000630:	e5933000 	ldr	r3, [r3]
eb000634:	e59320fc 	ldr	r2, [r3, #252]	; 0xfc
eb000638:	e3a020ff 	mov	r2, #255	; 0xff
eb00063c:	e5832004 	str	r2, [r3, #4]
eb000640:	e30021e1 	movw	r2, #481	; 0x1e1
eb000644:	e5832000 	str	r2, [r3]
eb000648:	e12fff1e 	bx	lr
eb00064c:	eb022008 	.word	0xeb022008

eb000650 <arm_gic_cpuif_deactivate>:
eb000650:	e59f3018 	ldr	r3, [pc, #24]	; eb000670 <arm_gic_cpuif_deactivate+0x20>
eb000654:	e5932000 	ldr	r2, [r3]
eb000658:	e5923000 	ldr	r3, [r2]
eb00065c:	e3c33003 	bic	r3, r3, #3
eb000660:	e3833e1e 	orr	r3, r3, #480	; 0x1e0
eb000664:	e5823000 	str	r3, [r2]
eb000668:	e59230fc 	ldr	r3, [r2, #252]	; 0xfc
eb00066c:	e12fff1e 	bx	lr
eb000670:	eb022008 	.word	0xeb022008

eb000674 <arm_gic_pcpu_distif_setup>:
eb000674:	e92d41f0 	push	{r4, r5, r6, r7, r8, lr}
eb000678:	e59f7048 	ldr	r7, [pc, #72]	; eb0006c8 <arm_gic_pcpu_distif_setup+0x54>
eb00067c:	e3a04000 	mov	r4, #0
eb000680:	e59f8044 	ldr	r8, [pc, #68]	; eb0006cc <arm_gic_pcpu_distif_setup+0x58>
eb000684:	e59f6044 	ldr	r6, [pc, #68]	; eb0006d0 <arm_gic_pcpu_distif_setup+0x5c>
eb000688:	e5973000 	ldr	r3, [r7]
eb00068c:	e1530004 	cmp	r3, r4
eb000690:	98bd81f0 	popls	{r4, r5, r6, r7, r8, pc}
eb000694:	e5983000 	ldr	r3, [r8]
eb000698:	e7935104 	ldr	r5, [r3, r4, lsl #2]
eb00069c:	e355001f 	cmp	r5, #31
eb0006a0:	8a000006 	bhi	eb0006c0 <arm_gic_pcpu_distif_setup+0x4c>
eb0006a4:	e1a01005 	mov	r1, r5
eb0006a8:	e3a02000 	mov	r2, #0
eb0006ac:	e5960000 	ldr	r0, [r6]
eb0006b0:	eb000071 	bl	eb00087c <gicd_set_ipriorityr>
eb0006b4:	e5960000 	ldr	r0, [r6]
eb0006b8:	e1a01005 	mov	r1, r5
eb0006bc:	eb000066 	bl	eb00085c <gicd_set_isenabler>
eb0006c0:	e2844001 	add	r4, r4, #1
eb0006c4:	eaffffef 	b	eb000688 <arm_gic_pcpu_distif_setup+0x14>
eb0006c8:	eb022014 	.word	0xeb022014
eb0006cc:	eb022010 	.word	0xeb022010
eb0006d0:	eb02200c 	.word	0xeb02200c

eb0006d4 <arm_gic_init>:
eb0006d4:	e59fc01c 	ldr	ip, [pc, #28]	; eb0006f8 <arm_gic_init+0x24>
eb0006d8:	e58c0000 	str	r0, [ip]
eb0006dc:	e59f0018 	ldr	r0, [pc, #24]	; eb0006fc <arm_gic_init+0x28>
eb0006e0:	e5801000 	str	r1, [r0]
eb0006e4:	e59f1014 	ldr	r1, [pc, #20]	; eb000700 <arm_gic_init+0x2c>
eb0006e8:	e5812000 	str	r2, [r1]
eb0006ec:	e59f2010 	ldr	r2, [pc, #16]	; eb000704 <arm_gic_init+0x30>
eb0006f0:	e5823000 	str	r3, [r2]
eb0006f4:	e12fff1e 	bx	lr
eb0006f8:	eb022008 	.word	0xeb022008
eb0006fc:	eb02200c 	.word	0xeb02200c
eb000700:	eb022010 	.word	0xeb022010
eb000704:	eb022014 	.word	0xeb022014

eb000708 <arm_gic_setup>:
eb000708:	e92d47f0 	push	{r4, r5, r6, r7, r8, r9, sl, lr}
eb00070c:	ebffffc6 	bl	eb00062c <arm_gic_cpuif_setup>
eb000710:	e59f4094 	ldr	r4, [pc, #148]	; eb0007ac <arm_gic_setup+0xa4>
eb000714:	e3a01000 	mov	r1, #0
eb000718:	e59f8090 	ldr	r8, [pc, #144]	; eb0007b0 <arm_gic_setup+0xa8>
eb00071c:	e3a06000 	mov	r6, #0
eb000720:	e59fa08c 	ldr	sl, [pc, #140]	; eb0007b4 <arm_gic_setup+0xac>
eb000724:	e5940000 	ldr	r0, [r4]
eb000728:	e5903000 	ldr	r3, [r0]
eb00072c:	e3c37003 	bic	r7, r3, #3
eb000730:	e5807000 	str	r7, [r0]
eb000734:	eb00002d 	bl	eb0007f0 <gicd_read_itargetsr>
eb000738:	e6ef9070 	uxtb	r9, r0
eb00073c:	e5983000 	ldr	r3, [r8]
eb000740:	e1560003 	cmp	r6, r3
eb000744:	3a000004 	bcc	eb00075c <arm_gic_setup+0x54>
eb000748:	ebffffc9 	bl	eb000674 <arm_gic_pcpu_distif_setup>
eb00074c:	e5942000 	ldr	r2, [r4]
eb000750:	e3873001 	orr	r3, r7, #1
eb000754:	e5823000 	str	r3, [r2]
eb000758:	e8bd87f0 	pop	{r4, r5, r6, r7, r8, r9, sl, pc}
eb00075c:	e59a3000 	ldr	r3, [sl]
eb000760:	e7935106 	ldr	r5, [r3, r6, lsl #2]
eb000764:	e355001f 	cmp	r5, #31
eb000768:	9a00000d 	bls	eb0007a4 <arm_gic_setup+0x9c>
eb00076c:	e5940000 	ldr	r0, [r4]
eb000770:	e1a01005 	mov	r1, r5
eb000774:	eb00002d 	bl	eb000830 <gicd_clr_igroupr>
eb000778:	e3a02000 	mov	r2, #0
eb00077c:	e5940000 	ldr	r0, [r4]
eb000780:	e1a01005 	mov	r1, r5
eb000784:	eb00003c 	bl	eb00087c <gicd_set_ipriorityr>
eb000788:	e1a01005 	mov	r1, r5
eb00078c:	e5940000 	ldr	r0, [r4]
eb000790:	e1a02009 	mov	r2, r9
eb000794:	eb000044 	bl	eb0008ac <gicd_set_itargetsr>
eb000798:	e5940000 	ldr	r0, [r4]
eb00079c:	e1a01005 	mov	r1, r5
eb0007a0:	eb00002d 	bl	eb00085c <gicd_set_isenabler>
eb0007a4:	e2866001 	add	r6, r6, #1
eb0007a8:	eaffffe3 	b	eb00073c <arm_gic_setup+0x34>
eb0007ac:	eb02200c 	.word	0xeb02200c
eb0007b0:	eb022014 	.word	0xeb022014
eb0007b4:	eb022010 	.word	0xeb022010

eb0007b8 <arm_gic_acknowledge_interrupt>:
eb0007b8:	e59f3008 	ldr	r3, [pc, #8]	; eb0007c8 <arm_gic_acknowledge_interrupt+0x10>
eb0007bc:	e5933000 	ldr	r3, [r3]
eb0007c0:	e593000c 	ldr	r0, [r3, #12]
eb0007c4:	e12fff1e 	bx	lr
eb0007c8:	eb022008 	.word	0xeb022008

eb0007cc <arm_gic_end_of_interrupt>:
eb0007cc:	e59f3008 	ldr	r3, [pc, #8]	; eb0007dc <arm_gic_end_of_interrupt+0x10>
eb0007d0:	e5933000 	ldr	r3, [r3]
eb0007d4:	e5830010 	str	r0, [r3, #16]
eb0007d8:	e12fff1e 	bx	lr
eb0007dc:	eb022008 	.word	0xeb022008

eb0007e0 <gicd_read_igroupr>:
eb0007e0:	e1a012a1 	lsr	r1, r1, #5
eb0007e4:	e2800080 	add	r0, r0, #128	; 0x80
eb0007e8:	e7900101 	ldr	r0, [r0, r1, lsl #2]
eb0007ec:	e12fff1e 	bx	lr

eb0007f0 <gicd_read_itargetsr>:
eb0007f0:	e3c11003 	bic	r1, r1, #3
eb0007f4:	e2800b02 	add	r0, r0, #2048	; 0x800
eb0007f8:	e7910000 	ldr	r0, [r1, r0]
eb0007fc:	e12fff1e 	bx	lr

eb000800 <gicd_write_igroupr>:
eb000800:	e1a012a1 	lsr	r1, r1, #5
eb000804:	e2800080 	add	r0, r0, #128	; 0x80
eb000808:	e7802101 	str	r2, [r0, r1, lsl #2]
eb00080c:	e12fff1e 	bx	lr

eb000810 <gicd_write_isenabler>:
eb000810:	e1a012a1 	lsr	r1, r1, #5
eb000814:	e2800c01 	add	r0, r0, #256	; 0x100
eb000818:	e7802101 	str	r2, [r0, r1, lsl #2]
eb00081c:	e12fff1e 	bx	lr

eb000820 <gicd_write_icenabler>:
eb000820:	e1a012a1 	lsr	r1, r1, #5
eb000824:	e2800d06 	add	r0, r0, #384	; 0x180
eb000828:	e7802101 	str	r2, [r0, r1, lsl #2]
eb00082c:	e12fff1e 	bx	lr

eb000830 <gicd_clr_igroupr>:
eb000830:	e92d4010 	push	{r4, lr}
eb000834:	e1a03001 	mov	r3, r1
eb000838:	e1a04000 	mov	r4, r0
eb00083c:	ebffffe7 	bl	eb0007e0 <gicd_read_igroupr>
eb000840:	e3a01001 	mov	r1, #1
eb000844:	e203201f 	and	r2, r3, #31
eb000848:	e1c02211 	bic	r2, r0, r1, lsl r2
eb00084c:	e1a00004 	mov	r0, r4
eb000850:	e1a01003 	mov	r1, r3
eb000854:	e8bd4010 	pop	{r4, lr}
eb000858:	eaffffe8 	b	eb000800 <gicd_write_igroupr>

eb00085c <gicd_set_isenabler>:
eb00085c:	e3a02001 	mov	r2, #1
eb000860:	e201301f 	and	r3, r1, #31
eb000864:	e1a02312 	lsl	r2, r2, r3
eb000868:	eaffffe8 	b	eb000810 <gicd_write_isenabler>

eb00086c <gicd_set_icenabler>:
eb00086c:	e3a02001 	mov	r2, #1
eb000870:	e201301f 	and	r3, r1, #31
eb000874:	e1a02312 	lsl	r2, r2, r3
eb000878:	eaffffe8 	b	eb000820 <gicd_write_icenabler>

eb00087c <gicd_set_ipriorityr>:
eb00087c:	e1a03181 	lsl	r3, r1, #3
eb000880:	e2800b01 	add	r0, r0, #1024	; 0x400
eb000884:	e3c11003 	bic	r1, r1, #3
eb000888:	e203c018 	and	ip, r3, #24
eb00088c:	e52de004 	push	{lr}		; (str lr, [sp, #-4]!)
eb000890:	e7913000 	ldr	r3, [r1, r0]
eb000894:	e3a0e0ff 	mov	lr, #255	; 0xff
eb000898:	e6ef2072 	uxtb	r2, r2
eb00089c:	e1c33c1e 	bic	r3, r3, lr, lsl ip
eb0008a0:	e1833c12 	orr	r3, r3, r2, lsl ip
eb0008a4:	e7813000 	str	r3, [r1, r0]
eb0008a8:	e49df004 	pop	{pc}		; (ldr pc, [sp], #4)

eb0008ac <gicd_set_itargetsr>:
eb0008ac:	e3c1c003 	bic	ip, r1, #3
eb0008b0:	e2800b02 	add	r0, r0, #2048	; 0x800
eb0008b4:	e1a01181 	lsl	r1, r1, #3
eb0008b8:	e2011018 	and	r1, r1, #24
eb0008bc:	e79c3000 	ldr	r3, [ip, r0]
eb0008c0:	e1831112 	orr	r1, r3, r2, lsl r1
eb0008c4:	e78c1000 	str	r1, [ip, r0]
eb0008c8:	e12fff1e 	bx	lr

eb0008cc <undef_error>:
eb0008cc:	e92d4010 	push	{r4, lr}
eb0008d0:	e59f402c 	ldr	r4, [pc, #44]	; eb000904 <undef_error+0x38>
eb0008d4:	e1a05000 	mov	r5, r0
eb0008d8:	eb000119 	bl	eb000d44 <swdt_release>
eb0008dc:	e1a00004 	mov	r0, r4
eb0008e0:	eb00020e 	bl	eb001120 <tf_printf>
eb0008e4:	e59f001c 	ldr	r0, [pc, #28]	; eb000908 <undef_error+0x3c>
eb0008e8:	eb00020c 	bl	eb001120 <tf_printf>
eb0008ec:	e59f0018 	ldr	r0, [pc, #24]	; eb00090c <undef_error+0x40>
eb0008f0:	e1a01005 	mov	r1, r5
eb0008f4:	eb000209 	bl	eb001120 <tf_printf>
eb0008f8:	e1a00004 	mov	r0, r4
eb0008fc:	eb000207 	bl	eb001120 <tf_printf>
eb000900:	ebfffdd2 	bl	eb000050 <do_panic>
eb000904:	eb000e0c 	.word	0xeb000e0c
eb000908:	eb000b5d 	.word	0xeb000b5d
eb00090c:	eb000e3a 	.word	0xeb000e3a

eb000910 <fiq_error>:
eb000910:	e92d4010 	push	{r4, lr}
eb000914:	eb00010a 	bl	eb000d44 <swdt_release>
eb000918:	e59f000c 	ldr	r0, [pc, #12]	; eb00092c <fiq_error+0x1c>
eb00091c:	eb0001ff 	bl	eb001120 <tf_printf>
eb000920:	e59f0008 	ldr	r0, [pc, #8]	; eb000930 <fiq_error+0x20>
eb000924:	eb0001fd 	bl	eb001120 <tf_printf>
eb000928:	ebfffdc8 	bl	eb000050 <do_panic>
eb00092c:	eb000e0c 	.word	0xeb000e0c
eb000930:	eb000aad 	.word	0xeb000aad

eb000934 <interrupt_error_id>:
eb000934:	e92d4010 	push	{r4, lr}
eb000938:	e59f403c 	ldr	r4, [pc, #60]	; eb00097c <interrupt_error_id+0x48>
eb00093c:	e1a06001 	mov	r6, r1
eb000940:	e1a05000 	mov	r5, r0
eb000944:	eb0000fe 	bl	eb000d44 <swdt_release>
eb000948:	e1a00004 	mov	r0, r4
eb00094c:	eb0001f3 	bl	eb001120 <tf_printf>
eb000950:	e59f0028 	ldr	r0, [pc, #40]	; eb000980 <interrupt_error_id+0x4c>
eb000954:	eb0001f1 	bl	eb001120 <tf_printf>
eb000958:	e59f0024 	ldr	r0, [pc, #36]	; eb000984 <interrupt_error_id+0x50>
eb00095c:	e1a01006 	mov	r1, r6
eb000960:	eb0001ee 	bl	eb001120 <tf_printf>
eb000964:	e59f001c 	ldr	r0, [pc, #28]	; eb000988 <interrupt_error_id+0x54>
eb000968:	e1a01005 	mov	r1, r5
eb00096c:	eb0001eb 	bl	eb001120 <tf_printf>
eb000970:	e1a00004 	mov	r0, r4
eb000974:	eb0001e9 	bl	eb001120 <tf_printf>
eb000978:	ebfffdb4 	bl	eb000050 <do_panic>
eb00097c:	eb000e0c 	.word	0xeb000e0c
eb000980:	eb000ac9 	.word	0xeb000ac9
eb000984:	eb000e3a 	.word	0xeb000e3a
eb000988:	eb000af6 	.word	0xeb000af6

eb00098c <dabort_error>:
eb00098c:	e92d4080 	push	{r7, lr}
eb000990:	e59f4044 	ldr	r4, [pc, #68]	; eb0009dc <dabort_error+0x50>
eb000994:	e1a05001 	mov	r5, r1
eb000998:	e1a06002 	mov	r6, r2
eb00099c:	e1a07000 	mov	r7, r0
eb0009a0:	eb0000e7 	bl	eb000d44 <swdt_release>
eb0009a4:	e1a00004 	mov	r0, r4
eb0009a8:	eb0001dc 	bl	eb001120 <tf_printf>
eb0009ac:	e59f002c 	ldr	r0, [pc, #44]	; eb0009e0 <dabort_error+0x54>
eb0009b0:	eb0001da 	bl	eb001120 <tf_printf>
eb0009b4:	e59f0028 	ldr	r0, [pc, #40]	; eb0009e4 <dabort_error+0x58>
eb0009b8:	e1a01007 	mov	r1, r7
eb0009bc:	eb0001d7 	bl	eb001120 <tf_printf>
eb0009c0:	e1a02006 	mov	r2, r6
eb0009c4:	e59f001c 	ldr	r0, [pc, #28]	; eb0009e8 <dabort_error+0x5c>
eb0009c8:	e1a01005 	mov	r1, r5
eb0009cc:	eb0001d3 	bl	eb001120 <tf_printf>
eb0009d0:	e1a00004 	mov	r0, r4
eb0009d4:	eb0001d1 	bl	eb001120 <tf_printf>
eb0009d8:	ebfffd9c 	bl	eb000050 <do_panic>
eb0009dc:	eb000e0c 	.word	0xeb000e0c
eb0009e0:	eb000a38 	.word	0xeb000a38
eb0009e4:	eb000a53 	.word	0xeb000a53
eb0009e8:	eb000a86 	.word	0xeb000a86

eb0009ec <pabort_error>:
eb0009ec:	e92d4010 	push	{r4, lr}
eb0009f0:	e59f4034 	ldr	r4, [pc, #52]	; eb000a2c <pabort_error+0x40>
eb0009f4:	e1a06001 	mov	r6, r1
eb0009f8:	e1a05000 	mov	r5, r0
eb0009fc:	eb0000d0 	bl	eb000d44 <swdt_release>
eb000a00:	e1a00004 	mov	r0, r4
eb000a04:	eb0001c5 	bl	eb001120 <tf_printf>
eb000a08:	e59f0020 	ldr	r0, [pc, #32]	; eb000a30 <pabort_error+0x44>
eb000a0c:	eb0001c3 	bl	eb001120 <tf_printf>
eb000a10:	e1a02006 	mov	r2, r6
eb000a14:	e59f0018 	ldr	r0, [pc, #24]	; eb000a34 <pabort_error+0x48>
eb000a18:	e1a01005 	mov	r1, r5
eb000a1c:	eb0001bf 	bl	eb001120 <tf_printf>
eb000a20:	e1a00004 	mov	r0, r4
eb000a24:	eb0001bd 	bl	eb001120 <tf_printf>
eb000a28:	ebfffd88 	bl	eb000050 <do_panic>
eb000a2c:	eb000e0c 	.word	0xeb000e0c
eb000a30:	eb000b17 	.word	0xeb000b17
eb000a34:	eb000b36 	.word	0xeb000b36
eb000a38:	4f525245 	.word	0x4f525245
eb000a3c:	20203a52 	.word	0x20203a52
eb000a40:	37524320 	.word	0x37524320
eb000a44:	6164203a 	.word	0x6164203a
eb000a48:	61206174 	.word	0x61206174
eb000a4c:	74726f62 	.word	0x74726f62
eb000a50:	45000a2e 	.word	0x45000a2e
eb000a54:	524f5252 	.word	0x524f5252
eb000a58:	2020203a 	.word	0x2020203a
eb000a5c:	20202020 	.word	0x20202020
eb000a60:	74616420 	.word	0x74616420
eb000a64:	62612061 	.word	0x62612061
eb000a68:	2074726f 	.word	0x2074726f
eb000a6c:	7563636f 	.word	0x7563636f
eb000a70:	65727272 	.word	0x65727272
eb000a74:	64612064 	.word	0x64612064
eb000a78:	73657264 	.word	0x73657264
eb000a7c:	203a2073 	.word	0x203a2073
eb000a80:	78257830 	.word	0x78257830
eb000a84:	5245000a 	.word	0x5245000a
eb000a88:	3a524f52 	.word	0x3a524f52
eb000a8c:	20202020 	.word	0x20202020
eb000a90:	20202020 	.word	0x20202020
eb000a94:	52534644 	.word	0x52534644
eb000a98:	30203a20 	.word	0x30203a20
eb000a9c:	20782578 	.word	0x20782578
eb000aa0:	52414644 	.word	0x52414644
eb000aa4:	30203a20 	.word	0x30203a20
eb000aa8:	0a782578 	.word	0x0a782578
eb000aac:	00          	.byte	0x00
eb000aad:	45          	.byte	0x45
eb000aae:	5252      	.short	0x5252
eb000ab0:	203a524f 	.word	0x203a524f
eb000ab4:	52432020 	.word	0x52432020
eb000ab8:	46203a37 	.word	0x46203a37
eb000abc:	68205149 	.word	0x68205149
eb000ac0:	6c646e61 	.word	0x6c646e61
eb000ac4:	0a2e6465 	.word	0x0a2e6465
eb000ac8:	00          	.byte	0x00
eb000ac9:	45          	.byte	0x45
eb000aca:	5252      	.short	0x5252
eb000acc:	203a524f 	.word	0x203a524f
eb000ad0:	52432020 	.word	0x52432020
eb000ad4:	55203a37 	.word	0x55203a37
eb000ad8:	6e61686e 	.word	0x6e61686e
eb000adc:	64656c64 	.word	0x64656c64
eb000ae0:	63786520 	.word	0x63786520
eb000ae4:	69747065 	.word	0x69747065
eb000ae8:	6f206e6f 	.word	0x6f206e6f
eb000aec:	72756363 	.word	0x72756363
eb000af0:	2e646572 	.word	0x2e646572
eb000af4:	5245000a 	.word	0x5245000a
eb000af8:	3a524f52 	.word	0x3a524f52
eb000afc:	20202020 	.word	0x20202020
eb000b00:	20202020 	.word	0x20202020
eb000b04:	65746e49 	.word	0x65746e49
eb000b08:	70757272 	.word	0x70757272
eb000b0c:	44492074 	.word	0x44492074
eb000b10:	25203a20 	.word	0x25203a20
eb000b14:	0a64      	.short	0x0a64
eb000b16:	00          	.byte	0x00
eb000b17:	45          	.byte	0x45
eb000b18:	524f5252 	.word	0x524f5252
eb000b1c:	2020203a 	.word	0x2020203a
eb000b20:	3a375243 	.word	0x3a375243
eb000b24:	65727020 	.word	0x65727020
eb000b28:	63746566 	.word	0x63746566
eb000b2c:	62612068 	.word	0x62612068
eb000b30:	2e74726f 	.word	0x2e74726f
eb000b34:	5245000a 	.word	0x5245000a
eb000b38:	3a524f52 	.word	0x3a524f52
eb000b3c:	20202020 	.word	0x20202020
eb000b40:	20202020 	.word	0x20202020
eb000b44:	52534649 	.word	0x52534649
eb000b48:	30203a20 	.word	0x30203a20
eb000b4c:	20782578 	.word	0x20782578
eb000b50:	52414649 	.word	0x52414649
eb000b54:	30203a20 	.word	0x30203a20
eb000b58:	0a782578 	.word	0x0a782578
eb000b5c:	00          	.byte	0x00
eb000b5d:	45          	.byte	0x45
eb000b5e:	5252      	.short	0x5252
eb000b60:	203a524f 	.word	0x203a524f
eb000b64:	52432020 	.word	0x52432020
eb000b68:	55203a37 	.word	0x55203a37
eb000b6c:	6665646e 	.word	0x6665646e
eb000b70:	64656e69 	.word	0x64656e69
eb000b74:	736e4920 	.word	0x736e4920
eb000b78:	63757274 	.word	0x63757274
eb000b7c:	6e6f6974 	.word	0x6e6f6974
eb000b80:	63636f20 	.word	0x63636f20
eb000b84:	65727275 	.word	0x65727275
eb000b88:	000a2e64 	.word	0x000a2e64

eb000b8c <micro_wait>:
eb000b8c:	e3a0220f 	mov	r2, #-268435456	; 0xf0000000
eb000b90:	e3a030c8 	mov	r3, #200	; 0xc8
eb000b94:	e0000093 	mul	r0, r3, r0
eb000b98:	e5921200 	ldr	r1, [r2, #512]	; 0x200
eb000b9c:	e3a03000 	mov	r3, #0
eb000ba0:	e1530000 	cmp	r3, r0
eb000ba4:	212fff1e 	bxcs	lr
eb000ba8:	e5923200 	ldr	r3, [r2, #512]	; 0x200
eb000bac:	e0433001 	sub	r3, r3, r1
eb000bb0:	eafffffa 	b	eb000ba0 <micro_wait+0x14>

eb000bb4 <gic_security_setting>:
eb000bb4:	e59f3008 	ldr	r3, [pc, #8]	; eb000bc4 <gic_security_setting+0x10>
eb000bb8:	e3a020ff 	mov	r2, #255	; 0xff
eb000bbc:	e5832004 	str	r2, [r3, #4]
eb000bc0:	e12fff1e 	bx	lr
eb000bc4:	f1120000 	.word	0xf1120000

eb000bc8 <get_table_index>:
eb000bc8:	e3e02aff 	mvn	r2, #1044480	; 0xff000
eb000bcc:	e5123fbb 	ldr	r3, [r2, #-4027]	; 0xfffff045
eb000bd0:	e5120fbb 	ldr	r0, [r2, #-4027]	; 0xfffff045
eb000bd4:	e2033c7f 	and	r3, r3, #32512	; 0x7f00
eb000bd8:	e3530c4f 	cmp	r3, #20224	; 0x4f00
eb000bdc:	e6ef2070 	uxtb	r2, r0
eb000be0:	0a000003 	beq	eb000bf4 <get_table_index+0x2c>
eb000be4:	e3530c52 	cmp	r3, #20992	; 0x5200
eb000be8:	0a000007 	beq	eb000c0c <get_table_index+0x44>
eb000bec:	e3a00003 	mov	r0, #3
eb000bf0:	e12fff1e 	bx	lr
eb000bf4:	e21000fe 	ands	r0, r0, #254	; 0xfe
eb000bf8:	012fff1e 	bxeq	lr
eb000bfc:	e3520010 	cmp	r2, #16
eb000c00:	13a00003 	movne	r0, #3
eb000c04:	03a00001 	moveq	r0, #1
eb000c08:	e12fff1e 	bx	lr
eb000c0c:	e3520000 	cmp	r2, #0
eb000c10:	13a00003 	movne	r0, #3
eb000c14:	03a00002 	moveq	r0, #2
eb000c18:	e12fff1e 	bx	lr

eb000c1c <ROM_GetLcs>:
eb000c1c:	e92d4010 	push	{r4, lr}
eb000c20:	e1a01000 	mov	r1, r0
eb000c24:	ebffffe7 	bl	eb000bc8 <get_table_index>
eb000c28:	e59f300c 	ldr	r3, [pc, #12]	; eb000c3c <ROM_GetLcs+0x20>
eb000c2c:	e8bd4010 	pop	{r4, lr}
eb000c30:	e7933100 	ldr	r3, [r3, r0, lsl #2]
eb000c34:	e1a00001 	mov	r0, r1
eb000c38:	e12fff13 	bx	r3
eb000c3c:	eb000c40 	.word	0xeb000c40

eb000c40 <ROM_GetLcs_table.3845>:
eb000c40:	eb1021b4 eb104434 eb10415c eb10010c     .!..4D..\A......

eb000c50 <swdt_init>:
eb000c50:	e3e03aff 	mvn	r3, #1044480	; 0xff000
eb000c54:	e5132fbb 	ldr	r2, [r3, #-4027]	; 0xfffff045
eb000c58:	e59f30bc 	ldr	r3, [pc, #188]	; eb000d1c <swdt_init+0xcc>
eb000c5c:	e5931060 	ldr	r1, [r3, #96]	; 0x60
eb000c60:	e2433813 	sub	r3, r3, #1245184	; 0x130000
eb000c64:	e2011a06 	and	r1, r1, #24576	; 0x6000
eb000c68:	e5930004 	ldr	r0, [r3, #4]
eb000c6c:	e3100080 	tst	r0, #128	; 0x80
eb000c70:	159f00a8 	ldrne	r0, [pc, #168]	; eb000d20 <swdt_init+0xd0>
eb000c74:	15830004 	strne	r0, [r3, #4]
eb000c78:	e3510a02 	cmp	r1, #8192	; 0x2000
eb000c7c:	e59f00a0 	ldr	r0, [pc, #160]	; eb000d24 <swdt_init+0xd4>
eb000c80:	e5830004 	str	r0, [r3, #4]
eb000c84:	0a000012 	beq	eb000cd4 <swdt_init+0x84>
eb000c88:	8a000005 	bhi	eb000ca4 <swdt_init+0x54>
eb000c8c:	e3510000 	cmp	r1, #0
eb000c90:	0a00000c 	beq	eb000cc8 <swdt_init+0x78>
eb000c94:	e92d4010 	push	{r4, lr}
eb000c98:	e59f0088 	ldr	r0, [pc, #136]	; eb000d28 <swdt_init+0xd8>
eb000c9c:	eb00011f 	bl	eb001120 <tf_printf>
eb000ca0:	ebfffcea 	bl	eb000050 <do_panic>
eb000ca4:	e3510901 	cmp	r1, #16384	; 0x4000
eb000ca8:	0a000006 	beq	eb000cc8 <swdt_init+0x78>
eb000cac:	e3510a06 	cmp	r1, #24576	; 0x6000
eb000cb0:	1afffff7 	bne	eb000c94 <swdt_init+0x44>
eb000cb4:	e7ee2052 	ubfx	r2, r2, #0, #15
eb000cb8:	e3520c4f 	cmp	r2, #20224	; 0x4f00
eb000cbc:	1a000002 	bne	eb000ccc <swdt_init+0x7c>
eb000cc0:	e59f2064 	ldr	r2, [pc, #100]	; eb000d2c <swdt_init+0xdc>
eb000cc4:	ea000003 	b	eb000cd8 <swdt_init+0x88>
eb000cc8:	e59f3060 	ldr	r3, [pc, #96]	; eb000d30 <swdt_init+0xe0>
eb000ccc:	e59f2060 	ldr	r2, [pc, #96]	; eb000d34 <swdt_init+0xe4>
eb000cd0:	ea000000 	b	eb000cd8 <swdt_init+0x88>
eb000cd4:	e59f205c 	ldr	r2, [pc, #92]	; eb000d38 <swdt_init+0xe8>
eb000cd8:	e59f103c 	ldr	r1, [pc, #60]	; eb000d1c <swdt_init+0xcc>
eb000cdc:	e5832000 	str	r2, [r3]
eb000ce0:	e59f3054 	ldr	r3, [pc, #84]	; eb000d3c <swdt_init+0xec>
eb000ce4:	e5912054 	ldr	r2, [r1, #84]	; 0x54
eb000ce8:	e6ff2072 	uxth	r2, r2
eb000cec:	e1823003 	orr	r3, r2, r3
eb000cf0:	e5813054 	str	r3, [r1, #84]	; 0x54
eb000cf4:	e59f3034 	ldr	r3, [pc, #52]	; eb000d30 <swdt_init+0xe0>
eb000cf8:	e5d32004 	ldrb	r2, [r3, #4]
eb000cfc:	e3120020 	tst	r2, #32
eb000d00:	1afffffc 	bne	eb000cf8 <swdt_init+0xa8>
eb000d04:	e5931004 	ldr	r1, [r3, #4]
eb000d08:	e59f2030 	ldr	r2, [pc, #48]	; eb000d40 <swdt_init+0xf0>
eb000d0c:	e6ef1071 	uxtb	r1, r1
eb000d10:	e1812002 	orr	r2, r1, r2
eb000d14:	e5832004 	str	r2, [r3, #4]
eb000d18:	e12fff1e 	bx	lr
eb000d1c:	e6160000 	.word	0xe6160000
eb000d20:	a5a5a500 	.word	0xa5a5a500
eb000d24:	a5a5a50b 	.word	0xa5a5a50b
eb000d28:	eb000e61 	.word	0xeb000e61
eb000d2c:	5a5ab048 	.word	0x5a5ab048
eb000d30:	e6030000 	.word	0xe6030000
eb000d34:	5a5a6090 	.word	0x5a5a6090
eb000d38:	5a5a5f40 	.word	0x5a5a5f40
eb000d3c:	a55a0002 	.word	0xa55a0002
eb000d40:	a5a5a580 	.word	0xa5a5a580

eb000d44 <swdt_release>:
eb000d44:	e92d4010 	push	{r4, lr}
eb000d48:	ebfffe21 	bl	eb0005d4 <aif_disable_i>
eb000d4c:	e59f105c 	ldr	r1, [pc, #92]	; eb000db0 <swdt_release+0x6c>
eb000d50:	e59f305c 	ldr	r3, [pc, #92]	; eb000db4 <swdt_release+0x70>
eb000d54:	e59f405c 	ldr	r4, [pc, #92]	; eb000db8 <swdt_release+0x74>
eb000d58:	e5912054 	ldr	r2, [r1, #84]	; 0x54
eb000d5c:	e1a00004 	mov	r0, r4
eb000d60:	e6ff2072 	uxth	r2, r2
eb000d64:	e1823003 	orr	r3, r2, r3
eb000d68:	e59f204c 	ldr	r2, [pc, #76]	; eb000dbc <swdt_release+0x78>
eb000d6c:	e5813054 	str	r3, [r1, #84]	; 0x54
eb000d70:	e3a010ad 	mov	r1, #173	; 0xad
eb000d74:	e59f3044 	ldr	r3, [pc, #68]	; eb000dc0 <swdt_release+0x7c>
eb000d78:	e5832000 	str	r2, [r3]
eb000d7c:	e59f2040 	ldr	r2, [pc, #64]	; eb000dc4 <swdt_release+0x80>
eb000d80:	e5832004 	str	r2, [r3, #4]
eb000d84:	e2822012 	add	r2, r2, #18
eb000d88:	e5832008 	str	r2, [r3, #8]
eb000d8c:	ebfffeb6 	bl	eb00086c <gicd_set_icenabler>
eb000d90:	ebfffe2e 	bl	eb000650 <arm_gic_cpuif_deactivate>
eb000d94:	e59f202c 	ldr	r2, [pc, #44]	; eb000dc8 <swdt_release+0x84>
eb000d98:	e3a03000 	mov	r3, #0
eb000d9c:	e58438ac 	str	r3, [r4, #2220]	; 0x8ac
eb000da0:	e5843000 	str	r3, [r4]
eb000da4:	e5823000 	str	r3, [r2]
eb000da8:	e5823004 	str	r3, [r2, #4]
eb000dac:	e8bd8010 	pop	{r4, pc}
eb000db0:	e6160000 	.word	0xe6160000
eb000db4:	a55a0002 	.word	0xa55a0002
eb000db8:	f1110000 	.word	0xf1110000
eb000dbc:	5a5af488 	.word	0x5a5af488
eb000dc0:	e6030000 	.word	0xe6030000
eb000dc4:	a5a5a50f 	.word	0xa5a5a50f
eb000dc8:	f1120000 	.word	0xf1120000

eb000dcc <swdt_exec>:
eb000dcc:	e92d4010 	push	{r4, lr}
eb000dd0:	e1a04000 	mov	r4, r0
eb000dd4:	e3a000ad 	mov	r0, #173	; 0xad
eb000dd8:	ebfffe7b 	bl	eb0007cc <arm_gic_end_of_interrupt>
eb000ddc:	ebffffd8 	bl	eb000d44 <swdt_release>
eb000de0:	e59f0018 	ldr	r0, [pc, #24]	; eb000e00 <swdt_exec+0x34>
eb000de4:	eb0000cd 	bl	eb001120 <tf_printf>
eb000de8:	e59f0014 	ldr	r0, [pc, #20]	; eb000e04 <swdt_exec+0x38>
eb000dec:	eb0000cb 	bl	eb001120 <tf_printf>
eb000df0:	e59f0010 	ldr	r0, [pc, #16]	; eb000e08 <swdt_exec+0x3c>
eb000df4:	e1a01004 	mov	r1, r4
eb000df8:	eb0000c8 	bl	eb001120 <tf_printf>
eb000dfc:	ebfffc93 	bl	eb000050 <do_panic>
eb000e00:	eb000e0c 	.word	0xeb000e0c
eb000e04:	eb000e17 	.word	0xeb000e17
eb000e08:	eb000e3a 	.word	0xeb000e3a
eb000e0c:	4f525245 	.word	0x4f525245
eb000e10:	20203a52 	.word	0x20203a52
eb000e14:	45000a20 	.word	0x45000a20
eb000e18:	524f5252 	.word	0x524f5252
eb000e1c:	2020203a 	.word	0x2020203a
eb000e20:	3a375243 	.word	0x3a375243
eb000e24:	73795320 	.word	0x73795320
eb000e28:	206d6574 	.word	0x206d6574
eb000e2c:	20544457 	.word	0x20544457
eb000e30:	7265766f 	.word	0x7265766f
eb000e34:	776f6c66 	.word	0x776f6c66
eb000e38:	5245000a 	.word	0x5245000a
eb000e3c:	3a524f52 	.word	0x3a524f52
eb000e40:	20202020 	.word	0x20202020
eb000e44:	20202020 	.word	0x20202020
eb000e48:	7563634f 	.word	0x7563634f
eb000e4c:	64657272 	.word	0x64657272
eb000e50:	64646120 	.word	0x64646120
eb000e54:	73736572 	.word	0x73736572
eb000e58:	30203a20 	.word	0x30203a20
eb000e5c:	0a782578 	.word	0x0a782578
eb000e60:	00          	.byte	0x00
eb000e61:	45          	.byte	0x45
eb000e62:	5252      	.short	0x5252
eb000e64:	203a524f 	.word	0x203a524f
eb000e68:	52432020 	.word	0x52432020
eb000e6c:	4d203a37 	.word	0x4d203a37
eb000e70:	4d45444f 	.word	0x4d45444f
eb000e74:	52452052 	.word	0x52452052
eb000e78:	20524f52 	.word	0x20524f52
eb000e7c:	756c6176 	.word	0x756c6176
eb000e80:	78253d65 	.word	0x78253d65
eb000e84:	0000000a 	.word	0x0000000a

eb000e88 <initDMA>:
eb000e88:	e3a02602 	mov	r2, #2097152	; 0x200000
eb000e8c:	e92d4010 	push	{r4, lr}
eb000e90:	e59f1014 	ldr	r1, [pc, #20]	; eb000eac <initDMA+0x24>
eb000e94:	e59f0014 	ldr	r0, [pc, #20]	; eb000eb0 <initDMA+0x28>
eb000e98:	eb000216 	bl	eb0016f8 <mstpcr_write>
eb000e9c:	e59f3010 	ldr	r3, [pc, #16]	; eb000eb4 <initDMA+0x2c>
eb000ea0:	e3a02002 	mov	r2, #2
eb000ea4:	e5032f7f 	str	r2, [r3, #-3967]	; 0xfffff081
eb000ea8:	e8bd8010 	pop	{r4, pc}
eb000eac:	e6150030 	.word	0xe6150030
eb000eb0:	e6150110 	.word	0xe6150110
eb000eb4:	ffc10fff 	.word	0xffc10fff

eb000eb8 <execDMA>:
eb000eb8:	e31200ff 	tst	r2, #255	; 0xff
eb000ebc:	12822c01 	addne	r2, r2, #256	; 0x100
eb000ec0:	13c220ff 	bicne	r2, r2, #255	; 0xff
eb000ec4:	e31100ff 	tst	r1, #255	; 0xff
eb000ec8:	e92d4010 	push	{r4, lr}
eb000ecc:	159f0094 	ldrne	r0, [pc, #148]	; eb000f68 <execDMA+0xb0>
eb000ed0:	1a000003 	bne	eb000ee4 <execDMA+0x2c>
eb000ed4:	e31000ff 	tst	r0, #255	; 0xff
eb000ed8:	0a000003 	beq	eb000eec <execDMA+0x34>
eb000edc:	e1a01000 	mov	r1, r0
eb000ee0:	e59f0084 	ldr	r0, [pc, #132]	; eb000f6c <execDMA+0xb4>
eb000ee4:	eb00008d 	bl	eb001120 <tf_printf>
eb000ee8:	ebfffc58 	bl	eb000050 <do_panic>
eb000eec:	e300c301 	movw	ip, #769	; 0x301
eb000ef0:	e1a02322 	lsr	r2, r2, #6
eb000ef4:	e59f3074 	ldr	r3, [pc, #116]	; eb000f70 <execDMA+0xb8>
eb000ef8:	e1c3c6b0 	strh	ip, [r3, #96]	; 0x60
eb000efc:	e59fc070 	ldr	ip, [pc, #112]	; eb000f74 <execDMA+0xbc>
eb000f00:	e51c3fcf 	ldr	r3, [ip, #-4047]	; 0xfffff031
eb000f04:	e3833002 	orr	r3, r3, #2
eb000f08:	e50c3fcf 	str	r3, [ip, #-4047]	; 0xfffff031
eb000f0c:	e59f3064 	ldr	r3, [pc, #100]	; eb000f78 <execDMA+0xc0>
eb000f10:	e5030f7b 	str	r0, [r3, #-3963]	; 0xfffff085
eb000f14:	e5031f7f 	str	r1, [r3, #-3967]	; 0xfffff081
eb000f18:	e5032f77 	str	r2, [r3, #-3959]	; 0xfffff089
eb000f1c:	e59f2058 	ldr	r2, [pc, #88]	; eb000f7c <execDMA+0xc4>
eb000f20:	e5032f73 	str	r2, [r3, #-3955]	; 0xfffff08d
eb000f24:	e5132f73 	ldr	r2, [r3, #-3955]	; 0xfffff08d
eb000f28:	e3120002 	tst	r2, #2
eb000f2c:	0a000007 	beq	eb000f50 <execDMA+0x98>
eb000f30:	eb000168 	bl	eb0014d8 <wait_endRPC>
eb000f34:	e59f3038 	ldr	r3, [pc, #56]	; eb000f74 <execDMA+0xbc>
eb000f38:	e3a02002 	mov	r2, #2
eb000f3c:	e5032f7f 	str	r2, [r3, #-3967]	; 0xfffff081
eb000f40:	e5132fcf 	ldr	r2, [r3, #-4047]	; 0xfffff031
eb000f44:	e3c22002 	bic	r2, r2, #2
eb000f48:	e5032fcf 	str	r2, [r3, #-4047]	; 0xfffff031
eb000f4c:	e8bd8010 	pop	{r4, pc}
eb000f50:	e5132f73 	ldr	r2, [r3, #-3955]	; 0xfffff08d
eb000f54:	e3520000 	cmp	r2, #0
eb000f58:	aafffff1 	bge	eb000f24 <execDMA+0x6c>
eb000f5c:	e59f001c 	ldr	r0, [pc, #28]	; eb000f80 <execDMA+0xc8>
eb000f60:	eb00006e 	bl	eb001120 <tf_printf>
eb000f64:	eaffffdf 	b	eb000ee8 <execDMA+0x30>
eb000f68:	eb000f84 	.word	0xeb000f84
eb000f6c:	eb000fc8 	.word	0xeb000fc8
eb000f70:	ffc10000 	.word	0xffc10000
eb000f74:	ffc10fff 	.word	0xffc10fff
eb000f78:	ffc18fff 	.word	0xffc18fff
eb000f7c:	00105409 	.word	0x00105409
eb000f80:	eb001015 	.word	0xeb001015
eb000f84:	4f525245 	.word	0x4f525245
eb000f88:	20203a52 	.word	0x20203a52
eb000f8c:	414d4420 	.word	0x414d4420
eb000f90:	53202d20 	.word	0x53202d20
eb000f94:	6372756f 	.word	0x6372756f
eb000f98:	64612065 	.word	0x64612065
eb000f9c:	73657264 	.word	0x73657264
eb000fa0:	6e692073 	.word	0x6e692073
eb000fa4:	696c6176 	.word	0x696c6176
eb000fa8:	20200a64 	.word	0x20200a64
eb000fac:	20202020 	.word	0x20202020
eb000fb0:	72756f73 	.word	0x72756f73
eb000fb4:	61206563 	.word	0x61206563
eb000fb8:	65726464 	.word	0x65726464
eb000fbc:	20207373 	.word	0x20207373
eb000fc0:	7830203d 	.word	0x7830203d
eb000fc4:	000a7825 	.word	0x000a7825
eb000fc8:	4f525245 	.word	0x4f525245
eb000fcc:	20203a52 	.word	0x20203a52
eb000fd0:	414d4420 	.word	0x414d4420
eb000fd4:	44202d20 	.word	0x44202d20
eb000fd8:	69747365 	.word	0x69747365
eb000fdc:	6974616e 	.word	0x6974616e
eb000fe0:	61206e6f 	.word	0x61206e6f
eb000fe4:	65726464 	.word	0x65726464
eb000fe8:	69207373 	.word	0x69207373
eb000fec:	6c61766e 	.word	0x6c61766e
eb000ff0:	200a6469 	.word	0x200a6469
eb000ff4:	20202020 	.word	0x20202020
eb000ff8:	73656420 	.word	0x73656420
eb000ffc:	616e6974 	.word	0x616e6974
eb001000:	6e6f6974 	.word	0x6e6f6974
eb001004:	64646120 	.word	0x64646120
eb001008:	73736572 	.word	0x73736572
eb00100c:	30203d20 	.word	0x30203d20
eb001010:	0a782578 	.word	0x0a782578
eb001014:	52524500 	.word	0x52524500
eb001018:	203a524f 	.word	0x203a524f
eb00101c:	4d442020 	.word	0x4d442020
eb001020:	202d2041 	.word	0x202d2041
eb001024:	6e616843 	.word	0x6e616843
eb001028:	206c656e 	.word	0x206c656e
eb00102c:	72646441 	.word	0x72646441
eb001030:	20737365 	.word	0x20737365
eb001034:	6f727245 	.word	0x6f727245
eb001038:	00000a72 	.word	0x00000a72

eb00103c <uint32_sprint>:
eb00103c:	e92d43f0 	push	{r4, r5, r6, r7, r8, r9, lr}
eb001040:	e59f906c 	ldr	r9, [pc, #108]	; eb0010b4 <uint32_sprint+0x78>
eb001044:	e24dd014 	sub	sp, sp, #20
eb001048:	e1a06000 	mov	r6, r0
eb00104c:	e28d7004 	add	r7, sp, #4
eb001050:	e1a05001 	mov	r5, r1
eb001054:	e3a04000 	mov	r4, #0
eb001058:	e1a08007 	mov	r8, r7
eb00105c:	e3a0100a 	mov	r1, #10
eb001060:	e1a00006 	mov	r0, r6
eb001064:	eb0001af 	bl	eb001728 <__aeabi_uidivmod>
eb001068:	e0832996 	umull	r2, r3, r6, r9
eb00106c:	e3560009 	cmp	r6, #9
eb001070:	e2844001 	add	r4, r4, #1
eb001074:	e1a031a3 	lsr	r3, r3, #3
eb001078:	e2811030 	add	r1, r1, #48	; 0x30
eb00107c:	e4c71001 	strb	r1, [r7], #1
eb001080:	8a000009 	bhi	eb0010ac <uint32_sprint+0x70>
eb001084:	e1a03004 	mov	r3, r4
eb001088:	e2451001 	sub	r1, r5, #1
eb00108c:	e2433001 	sub	r3, r3, #1
eb001090:	e7d82003 	ldrb	r2, [r8, r3]
eb001094:	e5e12001 	strb	r2, [r1, #1]!
eb001098:	e3530000 	cmp	r3, #0
eb00109c:	1afffffa 	bne	eb00108c <uint32_sprint+0x50>
eb0010a0:	e1a00004 	mov	r0, r4
eb0010a4:	e28dd014 	add	sp, sp, #20
eb0010a8:	e8bd83f0 	pop	{r4, r5, r6, r7, r8, r9, pc}
eb0010ac:	e1a06003 	mov	r6, r3
eb0010b0:	eaffffe9 	b	eb00105c <uint32_sprint+0x20>
eb0010b4:	cccccccd 	.word	0xcccccccd

eb0010b8 <uint32_print>:
eb0010b8:	e92d437f 	push	{r0, r1, r2, r3, r4, r5, r6, r8, r9, lr}
eb0010bc:	e59fe058 	ldr	lr, [pc, #88]	; eb00111c <uint32_print+0x64>
eb0010c0:	e28d3004 	add	r3, sp, #4
eb0010c4:	e3a04000 	mov	r4, #0
eb0010c8:	e1a06003 	mov	r6, r3
eb0010cc:	e3a0c00a 	mov	ip, #10
eb0010d0:	e0898e90 	umull	r8, r9, r0, lr
eb0010d4:	e3500009 	cmp	r0, #9
eb0010d8:	e2844001 	add	r4, r4, #1
eb0010dc:	e1a011a9 	lsr	r1, r9, #3
eb0010e0:	e062019c 	mls	r2, ip, r1, r0
eb0010e4:	e2822030 	add	r2, r2, #48	; 0x30
eb0010e8:	e4c32001 	strb	r2, [r3], #1
eb0010ec:	8a000008 	bhi	eb001114 <uint32_print+0x5c>
eb0010f0:	e1a05004 	mov	r5, r4
eb0010f4:	e2455001 	sub	r5, r5, #1
eb0010f8:	e7d60005 	ldrb	r0, [r6, r5]
eb0010fc:	ebfffd15 	bl	eb000558 <console_putc>
eb001100:	e3550000 	cmp	r5, #0
eb001104:	1afffffa 	bne	eb0010f4 <uint32_print+0x3c>
eb001108:	e1a00004 	mov	r0, r4
eb00110c:	e28dd010 	add	sp, sp, #16
eb001110:	e8bd8370 	pop	{r4, r5, r6, r8, r9, pc}
eb001114:	e1a00001 	mov	r0, r1
eb001118:	eaffffec 	b	eb0010d0 <uint32_print+0x18>
eb00111c:	cccccccd 	.word	0xcccccccd

eb001120 <tf_printf>:
eb001120:	e92d000f 	push	{r0, r1, r2, r3}
eb001124:	e92d4073 	push	{r0, r1, r4, r5, r6, lr}
eb001128:	e59d4018 	ldr	r4, [sp, #24]
eb00112c:	e28d301c 	add	r3, sp, #28
eb001130:	e58d3004 	str	r3, [sp, #4]
eb001134:	e5d40000 	ldrb	r0, [r4]
eb001138:	e3500000 	cmp	r0, #0
eb00113c:	1a000003 	bne	eb001150 <tf_printf+0x30>
eb001140:	e28dd008 	add	sp, sp, #8
eb001144:	e8bd4070 	pop	{r4, r5, r6, lr}
eb001148:	e28dd010 	add	sp, sp, #16
eb00114c:	e12fff1e 	bx	lr
eb001150:	e3500025 	cmp	r0, #37	; 0x25
eb001154:	e2845001 	add	r5, r4, #1
eb001158:	1a000037 	bne	eb00123c <tf_printf+0x11c>
eb00115c:	e5d43001 	ldrb	r3, [r4, #1]
eb001160:	e3530073 	cmp	r3, #115	; 0x73
eb001164:	0a000025 	beq	eb001200 <tf_printf+0xe0>
eb001168:	8a000005 	bhi	eb001184 <tf_printf+0x64>
eb00116c:	e3530064 	cmp	r3, #100	; 0x64
eb001170:	0a000016 	beq	eb0011d0 <tf_printf+0xb0>
eb001174:	e3530069 	cmp	r3, #105	; 0x69
eb001178:	0a000014 	beq	eb0011d0 <tf_printf+0xb0>
eb00117c:	e2854001 	add	r4, r5, #1
eb001180:	eaffffeb 	b	eb001134 <tf_printf+0x14>
eb001184:	e3530075 	cmp	r3, #117	; 0x75
eb001188:	0a000026 	beq	eb001228 <tf_printf+0x108>
eb00118c:	e3530078 	cmp	r3, #120	; 0x78
eb001190:	1afffff9 	bne	eb00117c <tf_printf+0x5c>
eb001194:	e59d3004 	ldr	r3, [sp, #4]
eb001198:	e3a0401c 	mov	r4, #28
eb00119c:	e2832004 	add	r2, r3, #4
eb0011a0:	e5936000 	ldr	r6, [r3]
eb0011a4:	e58d2004 	str	r2, [sp, #4]
eb0011a8:	e1a00436 	lsr	r0, r6, r4
eb0011ac:	e200000f 	and	r0, r0, #15
eb0011b0:	e3500009 	cmp	r0, #9
eb0011b4:	82800057 	addhi	r0, r0, #87	; 0x57
eb0011b8:	92800030 	addls	r0, r0, #48	; 0x30
eb0011bc:	e2444004 	sub	r4, r4, #4
eb0011c0:	ebfffce4 	bl	eb000558 <console_putc>
eb0011c4:	e3740004 	cmn	r4, #4
eb0011c8:	1afffff6 	bne	eb0011a8 <tf_printf+0x88>
eb0011cc:	eaffffea 	b	eb00117c <tf_printf+0x5c>
eb0011d0:	e59d3004 	ldr	r3, [sp, #4]
eb0011d4:	e2832004 	add	r2, r3, #4
eb0011d8:	e5934000 	ldr	r4, [r3]
eb0011dc:	e58d2004 	str	r2, [sp, #4]
eb0011e0:	e3540000 	cmp	r4, #0
eb0011e4:	a1a00004 	movge	r0, r4
eb0011e8:	aa000002 	bge	eb0011f8 <tf_printf+0xd8>
eb0011ec:	e3a0002d 	mov	r0, #45	; 0x2d
eb0011f0:	ebfffcd8 	bl	eb000558 <console_putc>
eb0011f4:	e2640000 	rsb	r0, r4, #0
eb0011f8:	ebffffae 	bl	eb0010b8 <uint32_print>
eb0011fc:	eaffffde 	b	eb00117c <tf_printf+0x5c>
eb001200:	e59d3004 	ldr	r3, [sp, #4]
eb001204:	e2832004 	add	r2, r3, #4
eb001208:	e5934000 	ldr	r4, [r3]
eb00120c:	e58d2004 	str	r2, [sp, #4]
eb001210:	e2444001 	sub	r4, r4, #1
eb001214:	e5f40001 	ldrb	r0, [r4, #1]!
eb001218:	e3500000 	cmp	r0, #0
eb00121c:	0affffd6 	beq	eb00117c <tf_printf+0x5c>
eb001220:	ebfffccc 	bl	eb000558 <console_putc>
eb001224:	eafffffa 	b	eb001214 <tf_printf+0xf4>
eb001228:	e59d3004 	ldr	r3, [sp, #4]
eb00122c:	e2832004 	add	r2, r3, #4
eb001230:	e5930000 	ldr	r0, [r3]
eb001234:	e58d2004 	str	r2, [sp, #4]
eb001238:	eaffffee 	b	eb0011f8 <tf_printf+0xd8>
eb00123c:	ebfffcc5 	bl	eb000558 <console_putc>
eb001240:	e1a05004 	mov	r5, r4
eb001244:	eaffffcc 	b	eb00117c <tf_printf+0x5c>

eb001248 <sprintf>:
eb001248:	e92d000e 	push	{r1, r2, r3}
eb00124c:	e92d41f7 	push	{r0, r1, r2, r4, r5, r6, r7, r8, lr}
eb001250:	e59d3024 	ldr	r3, [sp, #36]	; 0x24
eb001254:	e28d2028 	add	r2, sp, #40	; 0x28
eb001258:	e1a05000 	mov	r5, r0
eb00125c:	e3a04000 	mov	r4, #0
eb001260:	e58d2004 	str	r2, [sp, #4]
eb001264:	e3530000 	cmp	r3, #0
eb001268:	e59f2138 	ldr	r2, [pc, #312]	; eb0013a8 <sprintf+0x160>
eb00126c:	e3a0702d 	mov	r7, #45	; 0x2d
eb001270:	01a03002 	moveq	r3, r2
eb001274:	e5d32000 	ldrb	r2, [r3]
eb001278:	e3520000 	cmp	r2, #0
eb00127c:	e0851004 	add	r1, r5, r4
eb001280:	1a000005 	bne	eb00129c <sprintf+0x54>
eb001284:	e5c12000 	strb	r2, [r1]
eb001288:	e1a00004 	mov	r0, r4
eb00128c:	e28dd00c 	add	sp, sp, #12
eb001290:	e8bd41f0 	pop	{r4, r5, r6, r7, r8, lr}
eb001294:	e28dd00c 	add	sp, sp, #12
eb001298:	e12fff1e 	bx	lr
eb00129c:	e3520025 	cmp	r2, #37	; 0x25
eb0012a0:	e2836001 	add	r6, r3, #1
eb0012a4:	15c12000 	strbne	r2, [r1]
eb0012a8:	12844001 	addne	r4, r4, #1
eb0012ac:	11a06003 	movne	r6, r3
eb0012b0:	1a000007 	bne	eb0012d4 <sprintf+0x8c>
eb0012b4:	e5d33001 	ldrb	r3, [r3, #1]
eb0012b8:	e3530073 	cmp	r3, #115	; 0x73
eb0012bc:	0a000028 	beq	eb001364 <sprintf+0x11c>
eb0012c0:	8a000005 	bhi	eb0012dc <sprintf+0x94>
eb0012c4:	e3530064 	cmp	r3, #100	; 0x64
eb0012c8:	0a000017 	beq	eb00132c <sprintf+0xe4>
eb0012cc:	e3530069 	cmp	r3, #105	; 0x69
eb0012d0:	0a000015 	beq	eb00132c <sprintf+0xe4>
eb0012d4:	e2863001 	add	r3, r6, #1
eb0012d8:	eaffffe5 	b	eb001274 <sprintf+0x2c>
eb0012dc:	e3530075 	cmp	r3, #117	; 0x75
eb0012e0:	0a00002a 	beq	eb001390 <sprintf+0x148>
eb0012e4:	e3530078 	cmp	r3, #120	; 0x78
eb0012e8:	1afffff9 	bne	eb0012d4 <sprintf+0x8c>
eb0012ec:	e59d3004 	ldr	r3, [sp, #4]
eb0012f0:	e2832004 	add	r2, r3, #4
eb0012f4:	e5930000 	ldr	r0, [r3]
eb0012f8:	e58d2004 	str	r2, [sp, #4]
eb0012fc:	e3a0201c 	mov	r2, #28
eb001300:	e1a03230 	lsr	r3, r0, r2
eb001304:	e203300f 	and	r3, r3, #15
eb001308:	e3530009 	cmp	r3, #9
eb00130c:	e2422004 	sub	r2, r2, #4
eb001310:	82833057 	addhi	r3, r3, #87	; 0x57
eb001314:	92833030 	addls	r3, r3, #48	; 0x30
eb001318:	e3720004 	cmn	r2, #4
eb00131c:	e4c13001 	strb	r3, [r1], #1
eb001320:	1afffff6 	bne	eb001300 <sprintf+0xb8>
eb001324:	e2844008 	add	r4, r4, #8
eb001328:	eaffffe9 	b	eb0012d4 <sprintf+0x8c>
eb00132c:	e59d3004 	ldr	r3, [sp, #4]
eb001330:	e2832004 	add	r2, r3, #4
eb001334:	e5930000 	ldr	r0, [r3]
eb001338:	e58d2004 	str	r2, [sp, #4]
eb00133c:	e3500000 	cmp	r0, #0
eb001340:	a3a08000 	movge	r8, #0
eb001344:	b3a08001 	movlt	r8, #1
eb001348:	b5c17000 	strblt	r7, [r1]
eb00134c:	b2600000 	rsblt	r0, r0, #0
eb001350:	e0811008 	add	r1, r1, r8
eb001354:	ebffff38 	bl	eb00103c <uint32_sprint>
eb001358:	e0880000 	add	r0, r8, r0
eb00135c:	e0844000 	add	r4, r4, r0
eb001360:	eaffffdb 	b	eb0012d4 <sprintf+0x8c>
eb001364:	e59d3004 	ldr	r3, [sp, #4]
eb001368:	e2832004 	add	r2, r3, #4
eb00136c:	e5933000 	ldr	r3, [r3]
eb001370:	e58d2004 	str	r2, [sp, #4]
eb001374:	e2433001 	sub	r3, r3, #1
eb001378:	e5f32001 	ldrb	r2, [r3, #1]!
eb00137c:	e3520000 	cmp	r2, #0
eb001380:	0affffd3 	beq	eb0012d4 <sprintf+0x8c>
eb001384:	e7c52004 	strb	r2, [r5, r4]
eb001388:	e2844001 	add	r4, r4, #1
eb00138c:	eafffff9 	b	eb001378 <sprintf+0x130>
eb001390:	e59d3004 	ldr	r3, [sp, #4]
eb001394:	e2832004 	add	r2, r3, #4
eb001398:	e5930000 	ldr	r0, [r3]
eb00139c:	e58d2004 	str	r2, [sp, #4]
eb0013a0:	ebffff25 	bl	eb00103c <uint32_sprint>
eb0013a4:	eaffffec 	b	eb00135c <sprintf+0x114>
eb0013a8:	eb0013ac 	.word	0xeb0013ac
eb0013ac:	746d6628 	.word	0x746d6628
eb0013b0:	6c756e20 	.word	0x6c756e20
eb0013b4:	000a296c 	.word	0x000a296c

eb0013b8 <rcar_pwrc_cpuon>:
eb0013b8:	e3e03aff 	mvn	r3, #1044480	; 0xff000
eb0013bc:	e5133fbb 	ldr	r3, [r3, #-4027]	; 0xfffff045
eb0013c0:	e3530000 	cmp	r3, #0
eb0013c4:	aa000003 	bge	eb0013d8 <rcar_pwrc_cpuon+0x20>
eb0013c8:	e92d4010 	push	{r4, lr}
eb0013cc:	e59f00c8 	ldr	r0, [pc, #200]	; eb00149c <rcar_pwrc_cpuon+0xe4>
eb0013d0:	ebffff52 	bl	eb001120 <tf_printf>
eb0013d4:	ebfffb1d 	bl	eb000050 <do_panic>
eb0013d8:	e59f30c0 	ldr	r3, [pc, #192]	; eb0014a0 <rcar_pwrc_cpuon+0xe8>
eb0013dc:	e3a02000 	mov	r2, #0
eb0013e0:	e58300c4 	str	r0, [r3, #196]	; 0xc4
eb0013e4:	e58320c0 	str	r2, [r3, #192]	; 0xc0
eb0013e8:	e2833802 	add	r3, r3, #131072	; 0x20000
eb0013ec:	e59321c0 	ldr	r2, [r3, #448]	; 0x1c0
eb0013f0:	e3120001 	tst	r2, #1
eb0013f4:	0a000013 	beq	eb001448 <rcar_pwrc_cpuon+0x90>
eb0013f8:	e593200c 	ldr	r2, [r3, #12]
eb0013fc:	e3a00001 	mov	r0, #1
eb001400:	e3822a01 	orr	r2, r2, #4096	; 0x1000
eb001404:	e583200c 	str	r2, [r3, #12]
eb001408:	e5932010 	ldr	r2, [r3, #16]
eb00140c:	e3822a01 	orr	r2, r2, #4096	; 0x1000
eb001410:	e5832010 	str	r2, [r3, #16]
eb001414:	e1a02003 	mov	r2, r3
eb001418:	e5931000 	ldr	r1, [r3]
eb00141c:	e3110002 	tst	r1, #2
eb001420:	0afffffc 	beq	eb001418 <rcar_pwrc_cpuon+0x60>
eb001424:	e58301cc 	str	r0, [r3, #460]	; 0x1cc
eb001428:	e59311d4 	ldr	r1, [r3, #468]	; 0x1d4
eb00142c:	e3110001 	tst	r1, #1
eb001430:	1afffff8 	bne	eb001418 <rcar_pwrc_cpuon+0x60>
eb001434:	e5923004 	ldr	r3, [r2, #4]
eb001438:	e3130a01 	tst	r3, #4096	; 0x1000
eb00143c:	0afffffc 	beq	eb001434 <rcar_pwrc_cpuon+0x7c>
eb001440:	e3a03a01 	mov	r3, #4096	; 0x1000
eb001444:	e5823008 	str	r3, [r2, #8]
eb001448:	e3e03aff 	mvn	r3, #1044480	; 0xff000
eb00144c:	e5133fbb 	ldr	r3, [r3, #-4027]	; 0xfffff045
eb001450:	e7ee3053 	ubfx	r3, r3, #0, #15
eb001454:	e3530c55 	cmp	r3, #21760	; 0x5500
eb001458:	059f2044 	ldreq	r2, [pc, #68]	; eb0014a4 <rcar_pwrc_cpuon+0xec>
eb00145c:	05923000 	ldreq	r3, [r2]
eb001460:	03c33010 	biceq	r3, r3, #16
eb001464:	05823000 	streq	r3, [r2]
eb001468:	e3a02001 	mov	r2, #1
eb00146c:	e59f3034 	ldr	r3, [pc, #52]	; eb0014a8 <rcar_pwrc_cpuon+0xf0>
eb001470:	e5832010 	str	r2, [r3, #16]
eb001474:	e5932010 	ldr	r2, [r3, #16]
eb001478:	e3120001 	tst	r2, #1
eb00147c:	1afffffc 	bne	eb001474 <rcar_pwrc_cpuon+0xbc>
eb001480:	e59f2018 	ldr	r2, [pc, #24]	; eb0014a0 <rcar_pwrc_cpuon+0xe8>
eb001484:	e5923040 	ldr	r3, [r2, #64]	; 0x40
eb001488:	e3c33008 	bic	r3, r3, #8
eb00148c:	e38334a5 	orr	r3, r3, #-1526726656	; 0xa5000000
eb001490:	e38338a5 	orr	r3, r3, #10813440	; 0xa50000
eb001494:	e5823040 	str	r3, [r2, #64]	; 0x40
eb001498:	e12fff1e 	bx	lr
eb00149c:	eb0014ac 	.word	0xeb0014ac
eb0014a0:	e6160000 	.word	0xe6160000
eb0014a4:	e6270000 	.word	0xe6270000
eb0014a8:	e6152000 	.word	0xe6152000
eb0014ac:	4f525245 	.word	0x4f525245
eb0014b0:	20203a52 	.word	0x20203a52
eb0014b4:	65685420 	.word	0x65685420
eb0014b8:	61206572 	.word	0x61206572
eb0014bc:	6e206572 	.word	0x6e206572
eb0014c0:	7073206f 	.word	0x7073206f
eb0014c4:	66696365 	.word	0x66696365
eb0014c8:	20646569 	.word	0x20646569
eb0014cc:	78354143 	.word	0x78354143
eb0014d0:	55504320 	.word	0x55504320
eb0014d4:	00000a73 	.word	0x00000a73

eb0014d8 <wait_endRPC>:
eb0014d8:	e59f200c 	ldr	r2, [pc, #12]	; eb0014ec <wait_endRPC+0x14>
eb0014dc:	e5923048 	ldr	r3, [r2, #72]	; 0x48
eb0014e0:	e3130001 	tst	r3, #1
eb0014e4:	0afffffc 	beq	eb0014dc <wait_endRPC+0x4>
eb0014e8:	e12fff1e 	bx	lr
eb0014ec:	ee200000 	.word	0xee200000

eb0014f0 <initRPC>:
eb0014f0:	e59f1068 	ldr	r1, [pc, #104]	; eb001560 <initRPC+0x70>
eb0014f4:	e3a02802 	mov	r2, #131072	; 0x20000
eb0014f8:	e92d4010 	push	{r4, lr}
eb0014fc:	e59f0060 	ldr	r0, [pc, #96]	; eb001564 <initRPC+0x74>
eb001500:	eb00007c 	bl	eb0016f8 <mstpcr_write>
eb001504:	e59f305c 	ldr	r3, [pc, #92]	; eb001568 <initRPC+0x78>
eb001508:	e5932000 	ldr	r2, [r3]
eb00150c:	e3520000 	cmp	r2, #0
eb001510:	b5932000 	ldrlt	r2, [r3]
eb001514:	b3c22102 	biclt	r2, r2, #-2147483648	; 0x80000000
eb001518:	b5832000 	strlt	r2, [r3]
eb00151c:	e3e03aff 	mvn	r3, #1044480	; 0xff000
eb001520:	e5132fbb 	ldr	r2, [r3, #-4027]	; 0xfffff045
eb001524:	e5133fbb 	ldr	r3, [r3, #-4027]	; 0xfffff045
eb001528:	e2022c7f 	and	r2, r2, #32512	; 0x7f00
eb00152c:	e20330e0 	and	r3, r3, #224	; 0xe0
eb001530:	e3520c52 	cmp	r2, #20992	; 0x5200
eb001534:	03530000 	cmpeq	r3, #0
eb001538:	e59f2028 	ldr	r2, [pc, #40]	; eb001568 <initRPC+0x78>
eb00153c:	03a01803 	moveq	r1, #196608	; 0x30000
eb001540:	13a0190e 	movne	r1, #229376	; 0x38000
eb001544:	e592307c 	ldr	r3, [r2, #124]	; 0x7c
eb001548:	e3c3390e 	bic	r3, r3, #229376	; 0x38000
eb00154c:	e1833001 	orr	r3, r3, r1
eb001550:	e582307c 	str	r3, [r2, #124]	; 0x7c
eb001554:	e3833102 	orr	r3, r3, #-2147483648	; 0x80000000
eb001558:	e582307c 	str	r3, [r2, #124]	; 0x7c
eb00155c:	e8bd8010 	pop	{r4, pc}
eb001560:	e61509a4 	.word	0xe61509a4
eb001564:	e6150984 	.word	0xe6150984
eb001568:	ee200000 	.word	0xee200000

eb00156c <get_info_from_cert>:
eb00156c:	e59fc090 	ldr	ip, [pc, #144]	; eb001604 <get_info_from_cert+0x98>
eb001570:	e92d4070 	push	{r4, r5, r6, lr}
eb001574:	e59ce000 	ldr	lr, [ip]
eb001578:	e59fc088 	ldr	ip, [pc, #136]	; eb001608 <get_info_from_cert+0x9c>
eb00157c:	e590300c 	ldr	r3, [r0, #12]
eb001580:	e15e000c 	cmp	lr, ip
eb001584:	1a000011 	bne	eb0015d0 <get_info_from_cert+0x64>
eb001588:	e7e13ad3 	ubfx	r3, r3, #21, #2
eb00158c:	e3530002 	cmp	r3, #2
eb001590:	1a000005 	bne	eb0015ac <get_info_from_cert+0x40>
eb001594:	e5903464 	ldr	r3, [r0, #1124]	; 0x464
eb001598:	e1a03103 	lsl	r3, r3, #2
eb00159c:	e5813000 	str	r3, [r1]
eb0015a0:	e5903254 	ldr	r3, [r0, #596]	; 0x254
eb0015a4:	e5823000 	str	r3, [r2]
eb0015a8:	e8bd8070 	pop	{r4, r5, r6, pc}
eb0015ac:	e3530001 	cmp	r3, #1
eb0015b0:	1a000004 	bne	eb0015c8 <get_info_from_cert+0x5c>
eb0015b4:	e5903364 	ldr	r3, [r0, #868]	; 0x364
eb0015b8:	e1a03103 	lsl	r3, r3, #2
eb0015bc:	e5813000 	str	r3, [r1]
eb0015c0:	e59031d4 	ldr	r3, [r0, #468]	; 0x1d4
eb0015c4:	eafffff6 	b	eb0015a4 <get_info_from_cert+0x38>
eb0015c8:	e3530000 	cmp	r3, #0
eb0015cc:	1a000004 	bne	eb0015e4 <get_info_from_cert+0x78>
eb0015d0:	e5903264 	ldr	r3, [r0, #612]	; 0x264
eb0015d4:	e1a03103 	lsl	r3, r3, #2
eb0015d8:	e5813000 	str	r3, [r1]
eb0015dc:	e5903154 	ldr	r3, [r0, #340]	; 0x154
eb0015e0:	eaffffef 	b	eb0015a4 <get_info_from_cert+0x38>
eb0015e4:	e59f0020 	ldr	r0, [pc, #32]	; eb00160c <get_info_from_cert+0xa0>
eb0015e8:	e1a04002 	mov	r4, r2
eb0015ec:	e1a05001 	mov	r5, r1
eb0015f0:	ebfffeca 	bl	eb001120 <tf_printf>
eb0015f4:	e3a03000 	mov	r3, #0
eb0015f8:	e5853000 	str	r3, [r5]
eb0015fc:	e5843000 	str	r3, [r4]
eb001600:	e8bd8070 	pop	{r4, r5, r6, pc}
eb001604:	eb022018 	.word	0xeb022018
eb001608:	e291f358 	.word	0xe291f358
eb00160c:	eb001610 	.word	0xeb001610
eb001610:	4f525245 	.word	0x4f525245
eb001614:	20203a52 	.word	0x20203a52
eb001618:	72654320 	.word	0x72654320
eb00161c:	73692074 	.word	0x73692074
eb001620:	766e6920 	.word	0x766e6920
eb001624:	64696c61 	.word	0x64696c61
eb001628:	00000a2e 	.word	0x00000a2e

eb00162c <lifec_cr7_setting>:
eb00162c:	e12fff1e 	bx	lr

eb001630 <ecc_init>:
eb001630:	e12fff1e 	bx	lr

eb001634 <cpg_init>:
eb001634:	e59f30a8 	ldr	r3, [pc, #168]	; eb0016e4 <cpg_init+0xb0>
eb001638:	e3e02801 	mvn	r2, #65536	; 0x10000
eb00163c:	e59f00a4 	ldr	r0, [pc, #164]	; eb0016e8 <cpg_init+0xb4>
eb001640:	e3a01000 	mov	r1, #0
eb001644:	e5832900 	str	r2, [r3, #2304]	; 0x900
eb001648:	e3a02801 	mov	r2, #65536	; 0x10000
eb00164c:	e5832110 	str	r2, [r3, #272]	; 0x110
eb001650:	e3e02000 	mvn	r2, #0
eb001654:	e5831900 	str	r1, [r3, #2304]	; 0x900
eb001658:	e5832114 	str	r2, [r3, #276]	; 0x114
eb00165c:	e5830900 	str	r0, [r3, #2304]	; 0x900
eb001660:	e59f0084 	ldr	r0, [pc, #132]	; eb0016ec <cpg_init+0xb8>
eb001664:	e5830118 	str	r0, [r3, #280]	; 0x118
eb001668:	e3a00020 	mov	r0, #32
eb00166c:	e5830900 	str	r0, [r3, #2304]	; 0x900
eb001670:	e3e00020 	mvn	r0, #32
eb001674:	e583011c 	str	r0, [r3, #284]	; 0x11c
eb001678:	e3e00112 	mvn	r0, #-2147483644	; 0x80000004
eb00167c:	e5830900 	str	r0, [r3, #2304]	; 0x900
eb001680:	e3a00112 	mov	r0, #-2147483644	; 0x80000004
eb001684:	e5830120 	str	r0, [r3, #288]	; 0x120
eb001688:	e3a0030f 	mov	r0, #1006632960	; 0x3c000000
eb00168c:	e5830900 	str	r0, [r3, #2304]	; 0x900
eb001690:	e3e0030f 	mvn	r0, #1006632960	; 0x3c000000
eb001694:	e5830124 	str	r0, [r3, #292]	; 0x124
eb001698:	e59f0050 	ldr	r0, [pc, #80]	; eb0016f0 <cpg_init+0xbc>
eb00169c:	e5831900 	str	r1, [r3, #2304]	; 0x900
eb0016a0:	e5832128 	str	r2, [r3, #296]	; 0x128
eb0016a4:	e5831900 	str	r1, [r3, #2304]	; 0x900
eb0016a8:	e583212c 	str	r2, [r3, #300]	; 0x12c
eb0016ac:	e5830900 	str	r0, [r3, #2304]	; 0x900
eb0016b0:	e59f003c 	ldr	r0, [pc, #60]	; eb0016f4 <cpg_init+0xc0>
eb0016b4:	e5830980 	str	r0, [r3, #2432]	; 0x980
eb0016b8:	e5831900 	str	r1, [r3, #2304]	; 0x900
eb0016bc:	e5832984 	str	r2, [r3, #2436]	; 0x984
eb0016c0:	e3a0201f 	mov	r2, #31
eb0016c4:	e5832900 	str	r2, [r3, #2304]	; 0x900
eb0016c8:	e3e0201f 	mvn	r2, #31
eb0016cc:	e5832988 	str	r2, [r3, #2440]	; 0x988
eb0016d0:	e3e020b7 	mvn	r2, #183	; 0xb7
eb0016d4:	e5832900 	str	r2, [r3, #2304]	; 0x900
eb0016d8:	e3a020b7 	mov	r2, #183	; 0xb7
eb0016dc:	e583298c 	str	r2, [r3, #2444]	; 0x98c
eb0016e0:	e12fff1e 	bx	lr
eb0016e4:	e6150000 	.word	0xe6150000
eb0016e8:	fbf1f023 	.word	0xfbf1f023
eb0016ec:	040e0fdc 	.word	0x040e0fdc
eb0016f0:	ff0e0008 	.word	0xff0e0008
eb0016f4:	00f1fff7 	.word	0x00f1fff7

eb0016f8 <mstpcr_write>:
eb0016f8:	e5903000 	ldr	r3, [r0]
eb0016fc:	e52de004 	push	{lr}		; (str lr, [sp, #-4]!)
eb001700:	e59fc01c 	ldr	ip, [pc, #28]	; eb001724 <mstpcr_write+0x2c>
eb001704:	e1c33002 	bic	r3, r3, r2
eb001708:	e1e0e003 	mvn	lr, r3
eb00170c:	e58ce900 	str	lr, [ip, #2304]	; 0x900
eb001710:	e5803000 	str	r3, [r0]
eb001714:	e5913000 	ldr	r3, [r1]
eb001718:	e1120003 	tst	r2, r3
eb00171c:	1afffffc 	bne	eb001714 <mstpcr_write+0x1c>
eb001720:	e49df004 	pop	{pc}		; (ldr pc, [sp], #4)
eb001724:	e6150000 	.word	0xe6150000

eb001728 <__aeabi_uidivmod>:
eb001728:	e92d0030 	push	{r4, r5}
eb00172c:	e3a04000 	mov	r4, #0
eb001730:	e3a05001 	mov	r5, #1
eb001734:	e16f2f11 	clz	r2, r1
eb001738:	e1a03211 	lsl	r3, r1, r2
eb00173c:	e1530000 	cmp	r3, r0
eb001740:	90400003 	subls	r0, r0, r3
eb001744:	90844215 	addls	r4, r4, r5, lsl r2
eb001748:	e1a030a3 	lsr	r3, r3, #1
eb00174c:	e2522001 	subs	r2, r2, #1
eb001750:	5afffff9 	bpl	eb00173c <__aeabi_uidivmod+0x14>
eb001754:	e1a01000 	mov	r1, r0
eb001758:	e1a00004 	mov	r0, r4
eb00175c:	e8bd0030 	pop	{r4, r5}
eb001760:	e12fff1e 	bx	lr

eb001764 <__aeabi_uidiv>:
eb001764:	eaffffef 	b	eb001728 <__aeabi_uidivmod>

eb001768 <__aeabi_idiv>:
eb001768:	eaffffff 	b	eb00176c <__aeabi_idivmod>

eb00176c <__aeabi_idivmod>:
eb00176c:	e2502000 	subs	r2, r0, #0
eb001770:	e92d4070 	push	{r4, r5, r6, lr}
eb001774:	b3a04001 	movlt	r4, #1
eb001778:	b2622000 	rsblt	r2, r2, #0
eb00177c:	a3a04000 	movge	r4, #0
eb001780:	e3510000 	cmp	r1, #0
eb001784:	b3a0e001 	movlt	lr, #1
eb001788:	b2611000 	rsblt	r1, r1, #0
eb00178c:	a3a0e000 	movge	lr, #0
eb001790:	e3a03000 	mov	r3, #0
eb001794:	e1520311 	cmp	r2, r1, lsl r3
eb001798:	b2433001 	sublt	r3, r3, #1
eb00179c:	b1a01311 	lsllt	r1, r1, r3
eb0017a0:	ba000003 	blt	eb0017b4 <__aeabi_idivmod+0x48>
eb0017a4:	e2833001 	add	r3, r3, #1
eb0017a8:	e3530020 	cmp	r3, #32
eb0017ac:	1afffff8 	bne	eb001794 <__aeabi_idivmod+0x28>
eb0017b0:	e3a03000 	mov	r3, #0
eb0017b4:	e3a00000 	mov	r0, #0
eb0017b8:	e3a05001 	mov	r5, #1
eb0017bc:	e1a0c000 	mov	ip, r0
eb0017c0:	e15c0003 	cmp	ip, r3
eb0017c4:	ca000008 	bgt	eb0017ec <__aeabi_idivmod+0x80>
eb0017c8:	e3520000 	cmp	r2, #0
eb0017cc:	0a000006 	beq	eb0017ec <__aeabi_idivmod+0x80>
eb0017d0:	e1520001 	cmp	r2, r1
eb0017d4:	a043600c 	subge	r6, r3, ip
eb0017d8:	a0422001 	subge	r2, r2, r1
eb0017dc:	a1800615 	orrge	r0, r0, r5, lsl r6
eb0017e0:	e1a010c1 	asr	r1, r1, #1
eb0017e4:	e28cc001 	add	ip, ip, #1
eb0017e8:	eafffff4 	b	eb0017c0 <__aeabi_idivmod+0x54>
eb0017ec:	e154000e 	cmp	r4, lr
eb0017f0:	12600000 	rsbne	r0, r0, #0
eb0017f4:	e1a01000 	mov	r1, r0
eb0017f8:	e114000e 	tst	r4, lr
eb0017fc:	12622000 	rsbne	r2, r2, #0
eb001800:	e8bd4070 	pop	{r4, r5, r6, lr}
eb001804:	e12fff1e 	bx	lr

Disassembly of section .dummy_vect:

00000000 <__DUMMY_VECTOR_START__>:
   0:	ea000007 	b	24 <loop>
   4:	ea000006 	b	24 <loop>
   8:	ea000005 	b	24 <loop>
   c:	ea000004 	b	24 <loop>
  10:	ea000002 	b	20 <DAbort>
  14:	e320f000 	nop	{0}
  18:	ea000001 	b	24 <loop>
  1c:	ea000000 	b	24 <loop>

00000020 <DAbort>:
  20:	e25ef008 	subs	pc, lr, #8

00000024 <loop>:
  24:	e320f000 	nop	{0}
  28:	eafffffd 	b	24 <loop>

Disassembly of section .loader_ro:

e6305cb8 <tcmcpy>:
e6305cb8:	e1a0c000 	mov	ip, r0
e6305cbc:	e3520004 	cmp	r2, #4
e6305cc0:	3a00000b 	bcc	e6305cf4 <tcmcpy+0x3c>
e6305cc4:	e2003003 	and	r3, r0, #3
e6305cc8:	e3530000 	cmp	r3, #0
e6305ccc:	1a000008 	bne	e6305cf4 <tcmcpy+0x3c>
e6305cd0:	e2013003 	and	r3, r1, #3
e6305cd4:	e3530000 	cmp	r3, #0
e6305cd8:	1a000005 	bne	e6305cf4 <tcmcpy+0x3c>
e6305cdc:	e4913004 	ldr	r3, [r1], #4
e6305ce0:	e4803004 	str	r3, [r0], #4
e6305ce4:	e2522004 	subs	r2, r2, #4
e6305ce8:	0a000005 	beq	e6305d04 <tcmcpy+0x4c>
e6305cec:	e3520004 	cmp	r2, #4
e6305cf0:	2afffff9 	bcs	e6305cdc <tcmcpy+0x24>
e6305cf4:	e4d13001 	ldrb	r3, [r1], #1
e6305cf8:	e4c03001 	strb	r3, [r0], #1
e6305cfc:	e2522001 	subs	r2, r2, #1
e6305d00:	1afffffb 	bne	e6305cf4 <tcmcpy+0x3c>
e6305d04:	e1a0000c 	mov	r0, ip
e6305d08:	f57ff04f 	dsb	sy
e6305d0c:	e12fff1e 	bx	lr

e6305d10 <loader_main>:
e6305d10:	e59f3294 	ldr	r3, [pc, #660]	; e6305fac <loader_main+0x29c>
e6305d14:	e92d4030 	push	{r4, r5, lr}
e6305d18:	e5933060 	ldr	r3, [r3, #96]	; 0x60
e6305d1c:	e24dd094 	sub	sp, sp, #148	; 0x94
e6305d20:	e203501e 	and	r5, r3, #30
e6305d24:	eb0018d3 	bl	e630c078 <__cpg_init_veneer>
e6305d28:	eb000261 	bl	e63066b4 <pfc_init>
e6305d2c:	eb0018d7 	bl	e630c090 <__console_init_veneer>
e6305d30:	eb0018be 	bl	e630c030 <__aif_enable_a_veneer>
e6305d34:	e59f2274 	ldr	r2, [pc, #628]	; e6305fb0 <loader_main+0x2a0>
e6305d38:	e59f1274 	ldr	r1, [pc, #628]	; e6305fb4 <loader_main+0x2a4>
e6305d3c:	e3a03001 	mov	r3, #1
e6305d40:	e59f0270 	ldr	r0, [pc, #624]	; e6305fb8 <loader_main+0x2a8>
e6305d44:	eb0018c1 	bl	e630c050 <__arm_gic_init_veneer>
e6305d48:	eb0018cc 	bl	e630c080 <__arm_gic_setup_veneer>
e6305d4c:	eb0018b9 	bl	e630c038 <__swdt_init_veneer>
e6305d50:	eb0018ba 	bl	e630c040 <__aif_enable_i_veneer>
e6305d54:	e59f2260 	ldr	r2, [pc, #608]	; e6305fbc <loader_main+0x2ac>
e6305d58:	e28d0010 	add	r0, sp, #16
e6305d5c:	e59f125c 	ldr	r1, [pc, #604]	; e6305fc0 <loader_main+0x2b0>
e6305d60:	eb0018c2 	bl	e630c070 <__sprintf_veneer>
e6305d64:	e59f0258 	ldr	r0, [pc, #600]	; e6305fc4 <loader_main+0x2b4>
e6305d68:	e28d1010 	add	r1, sp, #16
e6305d6c:	eb0018bb 	bl	e630c060 <__tf_printf_veneer>
e6305d70:	e59f2250 	ldr	r2, [pc, #592]	; e6305fc8 <loader_main+0x2b8>
e6305d74:	e59f1250 	ldr	r1, [pc, #592]	; e6305fcc <loader_main+0x2bc>
e6305d78:	e28d0010 	add	r0, sp, #16
e6305d7c:	eb0018bb 	bl	e630c070 <__sprintf_veneer>
e6305d80:	e59f023c 	ldr	r0, [pc, #572]	; e6305fc4 <loader_main+0x2b4>
e6305d84:	e28d1010 	add	r1, sp, #16
e6305d88:	eb0018b4 	bl	e630c060 <__tf_printf_veneer>
e6305d8c:	e59f123c 	ldr	r1, [pc, #572]	; e6305fd0 <loader_main+0x2c0>
e6305d90:	e59f023c 	ldr	r0, [pc, #572]	; e6305fd4 <loader_main+0x2c4>
e6305d94:	eb0018b1 	bl	e630c060 <__tf_printf_veneer>
e6305d98:	e3e03aff 	mvn	r3, #1044480	; 0xff000
e6305d9c:	e5131fbb 	ldr	r1, [r3, #-4027]	; 0xfffff045
e6305da0:	e2014c7f 	and	r4, r1, #32512	; 0x7f00
e6305da4:	e3540c52 	cmp	r4, #20992	; 0x5200
e6305da8:	059f2228 	ldreq	r2, [pc, #552]	; e6305fd8 <loader_main+0x2c8>
e6305dac:	0a000004 	beq	e6305dc4 <loader_main+0xb4>
e6305db0:	8a000019 	bhi	e6305e1c <loader_main+0x10c>
e6305db4:	e59f2220 	ldr	r2, [pc, #544]	; e6305fdc <loader_main+0x2cc>
e6305db8:	e3540c4f 	cmp	r4, #20224	; 0x4f00
e6305dbc:	e59f321c 	ldr	r3, [pc, #540]	; e6305fe0 <loader_main+0x2d0>
e6305dc0:	11a02003 	movne	r2, r3
e6305dc4:	e3070ff0 	movw	r0, #32752	; 0x7ff0
e6305dc8:	e3053210 	movw	r3, #21008	; 0x5210
e6305dcc:	e0010000 	and	r0, r1, r0
e6305dd0:	e1500003 	cmp	r0, r3
e6305dd4:	1a00001d 	bne	e6305e50 <loader_main+0x140>
e6305dd8:	e6ef3071 	uxtb	r3, r1
e6305ddc:	e3530010 	cmp	r3, #16
e6305de0:	1a000014 	bne	e6305e38 <loader_main+0x128>
e6305de4:	e59f11f8 	ldr	r1, [pc, #504]	; e6305fe4 <loader_main+0x2d4>
e6305de8:	e28d0010 	add	r0, sp, #16
e6305dec:	eb00189f 	bl	e630c070 <__sprintf_veneer>
e6305df0:	e59f01cc 	ldr	r0, [pc, #460]	; e6305fc4 <loader_main+0x2b4>
e6305df4:	e28d1010 	add	r1, sp, #16
e6305df8:	eb001898 	bl	e630c060 <__tf_printf_veneer>
e6305dfc:	e3540c55 	cmp	r4, #21760	; 0x5500
e6305e00:	0a00001a 	beq	e6305e70 <loader_main+0x160>
e6305e04:	e59f01dc 	ldr	r0, [pc, #476]	; e6305fe8 <loader_main+0x2d8>
e6305e08:	e59f11ac 	ldr	r1, [pc, #428]	; e6305fbc <loader_main+0x2ac>
e6305e0c:	eb001893 	bl	e630c060 <__tf_printf_veneer>
e6305e10:	e59f01d4 	ldr	r0, [pc, #468]	; e6305fec <loader_main+0x2dc>
e6305e14:	eb001891 	bl	e630c060 <__tf_printf_veneer>
e6305e18:	eb00189e 	bl	e630c098 <__do_panic_veneer>
e6305e1c:	e3540c55 	cmp	r4, #21760	; 0x5500
e6305e20:	059f21c8 	ldreq	r2, [pc, #456]	; e6305ff0 <loader_main+0x2e0>
e6305e24:	0affffe6 	beq	e6305dc4 <loader_main+0xb4>
e6305e28:	e59f21c4 	ldr	r2, [pc, #452]	; e6305ff4 <loader_main+0x2e4>
e6305e2c:	e3540c57 	cmp	r4, #22272	; 0x5700
e6305e30:	e59f31a8 	ldr	r3, [pc, #424]	; e6305fe0 <loader_main+0x2d0>
e6305e34:	eaffffe1 	b	e6305dc0 <loader_main+0xb0>
e6305e38:	e201300f 	and	r3, r1, #15
e6305e3c:	e2833002 	add	r3, r3, #2
e6305e40:	e59f11b0 	ldr	r1, [pc, #432]	; e6305ff8 <loader_main+0x2e8>
e6305e44:	e28d0010 	add	r0, sp, #16
e6305e48:	eb001888 	bl	e630c070 <__sprintf_veneer>
e6305e4c:	eaffffe7 	b	e6305df0 <loader_main+0xe0>
e6305e50:	e7e33251 	ubfx	r3, r1, #4, #4
e6305e54:	e201100f 	and	r1, r1, #15
e6305e58:	e2833001 	add	r3, r3, #1
e6305e5c:	e58d1000 	str	r1, [sp]
e6305e60:	e28d0010 	add	r0, sp, #16
e6305e64:	e59f1190 	ldr	r1, [pc, #400]	; e6305ffc <loader_main+0x2ec>
e6305e68:	eb001880 	bl	e630c070 <__sprintf_veneer>
e6305e6c:	eaffffdf 	b	e6305df0 <loader_main+0xe0>
e6305e70:	e3e03aff 	mvn	r3, #1044480	; 0xff000
e6305e74:	e5133fbb 	ldr	r3, [r3, #-4027]	; 0xfffff045
e6305e78:	e2033c7f 	and	r3, r3, #32512	; 0x7f00
e6305e7c:	e3530c57 	cmp	r3, #22272	; 0x5700
e6305e80:	1a00000b 	bne	e6305eb4 <loader_main+0x1a4>
e6305e84:	e59f3120 	ldr	r3, [pc, #288]	; e6305fac <loader_main+0x29c>
e6305e88:	e28d0010 	add	r0, sp, #16
e6305e8c:	e59f216c 	ldr	r2, [pc, #364]	; e6306000 <loader_main+0x2f0>
e6305e90:	e59f116c 	ldr	r1, [pc, #364]	; e6306004 <loader_main+0x2f4>
e6305e94:	e5933060 	ldr	r3, [r3, #96]	; 0x60
e6305e98:	e3130a01 	tst	r3, #4096	; 0x1000
e6305e9c:	e59f3164 	ldr	r3, [pc, #356]	; e6306008 <loader_main+0x2f8>
e6305ea0:	01a02003 	moveq	r2, r3
e6305ea4:	eb001871 	bl	e630c070 <__sprintf_veneer>
e6305ea8:	e59f0114 	ldr	r0, [pc, #276]	; e6305fc4 <loader_main+0x2b4>
e6305eac:	e28d1010 	add	r1, sp, #16
e6305eb0:	eb00186a 	bl	e630c060 <__tf_printf_veneer>
e6305eb4:	e59f1150 	ldr	r1, [pc, #336]	; e630600c <loader_main+0x2fc>
e6305eb8:	e2453004 	sub	r3, r5, #4
e6305ebc:	e3530008 	cmp	r3, #8
e6305ec0:	e28d0010 	add	r0, sp, #16
e6305ec4:	959f2144 	ldrls	r2, [pc, #324]	; e6306010 <loader_main+0x300>
e6305ec8:	859f2110 	ldrhi	r2, [pc, #272]	; e6305fe0 <loader_main+0x2d0>
e6305ecc:	97922103 	ldrls	r2, [r2, r3, lsl #2]
e6305ed0:	eb001866 	bl	e630c070 <__sprintf_veneer>
e6305ed4:	e59f00e8 	ldr	r0, [pc, #232]	; e6305fc4 <loader_main+0x2b4>
e6305ed8:	e28d1010 	add	r1, sp, #16
e6305edc:	eb00185f 	bl	e630c060 <__tf_printf_veneer>
e6305ee0:	e28d000c 	add	r0, sp, #12
e6305ee4:	eb00185b 	bl	e630c058 <__ROM_GetLcs_veneer>
e6305ee8:	e2504000 	subs	r4, r0, #0
e6305eec:	1a000004 	bne	e6305f04 <loader_main+0x1f4>
e6305ef0:	e59d300c 	ldr	r3, [sp, #12]
e6305ef4:	e3530007 	cmp	r3, #7
e6305ef8:	959f2114 	ldrls	r2, [pc, #276]	; e6306014 <loader_main+0x304>
e6305efc:	97921103 	ldrls	r1, [r2, r3, lsl #2]
e6305f00:	9a000000 	bls	e6305f08 <loader_main+0x1f8>
e6305f04:	e59f10d4 	ldr	r1, [pc, #212]	; e6305fe0 <loader_main+0x2d0>
e6305f08:	e59f0108 	ldr	r0, [pc, #264]	; e6306018 <loader_main+0x308>
e6305f0c:	e2044c7f 	and	r4, r4, #32512	; 0x7f00
e6305f10:	eb001852 	bl	e630c060 <__tf_printf_veneer>
e6305f14:	e3540c57 	cmp	r4, #22272	; 0x5700
e6305f18:	1a000001 	bne	e6305f24 <loader_main+0x214>
e6305f1c:	e59f00f8 	ldr	r0, [pc, #248]	; e630601c <loader_main+0x30c>
e6305f20:	eb00184e 	bl	e630c060 <__tf_printf_veneer>
e6305f24:	eb000cfe 	bl	e6309324 <InitDram>
e6305f28:	e2501000 	subs	r1, r0, #0
e6305f2c:	0a000002 	beq	e6305f3c <loader_main+0x22c>
e6305f30:	e59f00e8 	ldr	r0, [pc, #232]	; e6306020 <loader_main+0x310>
e6305f34:	eb001849 	bl	e630c060 <__tf_printf_veneer>
e6305f38:	eaffffb6 	b	e6305e18 <loader_main+0x108>
e6305f3c:	eb001813 	bl	e630bf90 <qos_init>
e6305f40:	e59f2064 	ldr	r2, [pc, #100]	; e6305fac <loader_main+0x29c>
e6305f44:	e5923054 	ldr	r3, [r2, #84]	; 0x54
e6305f48:	e3c33001 	bic	r3, r3, #1
e6305f4c:	e38334a5 	orr	r3, r3, #-1526726656	; 0xa5000000
e6305f50:	e383385a 	orr	r3, r3, #5898240	; 0x5a0000
e6305f54:	e5823054 	str	r3, [r2, #84]	; 0x54
e6305f58:	e59f30c4 	ldr	r3, [pc, #196]	; e6306024 <loader_main+0x314>
e6305f5c:	e59f20c4 	ldr	r2, [pc, #196]	; e6306028 <loader_main+0x318>
e6305f60:	e5832900 	str	r2, [r3, #2304]	; 0x900
e6305f64:	e59f20c0 	ldr	r2, [pc, #192]	; e630602c <loader_main+0x31c>
e6305f68:	e5832904 	str	r2, [r3, #2308]	; 0x904
e6305f6c:	e3e03aff 	mvn	r3, #1044480	; 0xff000
e6305f70:	e3072fe0 	movw	r2, #32736	; 0x7fe0
e6305f74:	e5133fbb 	ldr	r3, [r3, #-4027]	; 0xfffff045
e6305f78:	e0032002 	and	r2, r3, r2
e6305f7c:	e3520c52 	cmp	r2, #20992	; 0x5200
e6305f80:	0a000006 	beq	e6305fa0 <loader_main+0x290>
e6305f84:	e3c3300f 	bic	r3, r3, #15
e6305f88:	e1a03883 	lsl	r3, r3, #17
e6305f8c:	e1a038a3 	lsr	r3, r3, #17
e6305f90:	e3530c4f 	cmp	r3, #20224	; 0x4f00
e6305f94:	159f3094 	ldrne	r3, [pc, #148]	; e6306030 <loader_main+0x320>
e6305f98:	159f2094 	ldrne	r2, [pc, #148]	; e6306034 <loader_main+0x324>
e6305f9c:	15832900 	strne	r2, [r3, #2304]	; 0x900
e6305fa0:	e3a00000 	mov	r0, #0
e6305fa4:	e28dd094 	add	sp, sp, #148	; 0x94
e6305fa8:	e8bd8030 	pop	{r4, r5, pc}
e6305fac:	e6160000 	.word	0xe6160000
e6305fb0:	e630c0e4 	.word	0xe630c0e4
e6305fb4:	f1110000 	.word	0xf1110000
e6305fb8:	f1120000 	.word	0xf1120000
e6305fbc:	e630c12a 	.word	0xe630c12a
e6305fc0:	e630c134 	.word	0xe630c134
e6305fc4:	e630c154 	.word	0xe630c154
e6305fc8:	e6304400 	.word	0xe6304400
e6305fcc:	e630c160 	.word	0xe630c160
e6305fd0:	e63175c1 	.word	0xe63175c1
e6305fd4:	e630c181 	.word	0xe630c181
e6305fd8:	e630c0f6 	.word	0xe630c0f6
e6305fdc:	e630c0f0 	.word	0xe630c0f0
e6305fe0:	e630c0e8 	.word	0xe630c0e8
e6305fe4:	e630c18e 	.word	0xe630c18e
e6305fe8:	e630c1e6 	.word	0xe630c1e6
e6305fec:	e630c214 	.word	0xe630c214
e6305ff0:	e630c130 	.word	0xe630c130
e6305ff4:	e630c0f3 	.word	0xe630c0f3
e6305ff8:	e630c1b1 	.word	0xe630c1b1
e6305ffc:	e630c1cb 	.word	0xe630c1cb
e6306000:	e630c0f9 	.word	0xe630c0f9
e6306004:	e630c18a 	.word	0xe630c18a
e6306008:	e630c110 	.word	0xe630c110
e630600c:	e630c24c 	.word	0xe630c24c
e6306010:	e630c0a0 	.word	0xe630c0a0
e6306014:	e630c0c4 	.word	0xe630c0c4
e6306018:	e630c25f 	.word	0xe630c25f
e630601c:	e630c279 	.word	0xe630c279
e6306020:	e630c2a4 	.word	0xe630c2a4
e6306024:	e6150000 	.word	0xe6150000
e6306028:	5a5affff 	.word	0x5a5affff
e630602c:	a5a50000 	.word	0xa5a50000
e6306030:	e6260000 	.word	0xe6260000
e6306034:	acce0001 	.word	0xacce0001

e6306038 <pfc_init_m3n>:
e6306038:	e3a02000 	mov	r2, #0
e630603c:	e3e01000 	mvn	r1, #0
e6306040:	e59f3580 	ldr	r3, [pc, #1408]	; e63065c8 <pfc_init_m3n+0x590>
e6306044:	e59f0580 	ldr	r0, [pc, #1408]	; e63065cc <pfc_init_m3n+0x594>
e6306048:	e92d40f0 	push	{r4, r5, r6, r7, lr}
e630604c:	e5831000 	str	r1, [r3]
e6306050:	e3e05c06 	mvn	r5, #1536	; 0x600
e6306054:	e5832500 	str	r2, [r3, #1280]	; 0x500
e6306058:	e3a07006 	mov	r7, #6
e630605c:	e5831000 	str	r1, [r3]
e6306060:	e3a06903 	mov	r6, #49152	; 0xc000
e6306064:	e5832504 	str	r2, [r3, #1284]	; 0x504
e6306068:	e5831000 	str	r1, [r3]
e630606c:	e5832508 	str	r2, [r3, #1288]	; 0x508
e6306070:	e5831000 	str	r1, [r3]
e6306074:	e5832200 	str	r2, [r3, #512]	; 0x200
e6306078:	e5830000 	str	r0, [r3]
e630607c:	e59f054c 	ldr	r0, [pc, #1356]	; e63065d0 <pfc_init_m3n+0x598>
e6306080:	e5830204 	str	r0, [r3, #516]	; 0x204
e6306084:	e59f0548 	ldr	r0, [pc, #1352]	; e63065d4 <pfc_init_m3n+0x59c>
e6306088:	e5830000 	str	r0, [r3]
e630608c:	e59f0544 	ldr	r0, [pc, #1348]	; e63065d8 <pfc_init_m3n+0x5a0>
e6306090:	e5830208 	str	r0, [r3, #520]	; 0x208
e6306094:	e3000666 	movw	r0, #1638	; 0x666
e6306098:	e59f453c 	ldr	r4, [pc, #1340]	; e63065dc <pfc_init_m3n+0x5a4>
e630609c:	e59fe53c 	ldr	lr, [pc, #1340]	; e63065e0 <pfc_init_m3n+0x5a8>
e63060a0:	e59fc53c 	ldr	ip, [pc, #1340]	; e63065e4 <pfc_init_m3n+0x5ac>
e63060a4:	e5834000 	str	r4, [r3]
e63060a8:	e583e20c 	str	lr, [r3, #524]	; 0x20c
e63060ac:	e583c000 	str	ip, [r3]
e63060b0:	e5830210 	str	r0, [r3, #528]	; 0x210
e63060b4:	e5835000 	str	r5, [r3]
e63060b8:	e3a05c06 	mov	r5, #1536	; 0x600
e63060bc:	e5835214 	str	r5, [r3, #532]	; 0x214
e63060c0:	e5834000 	str	r4, [r3]
e63060c4:	e583e218 	str	lr, [r3, #536]	; 0x218
e63060c8:	e3a0eb01 	mov	lr, #1024	; 0x400
e63060cc:	e583c000 	str	ip, [r3]
e63060d0:	e583021c 	str	r0, [r3, #540]	; 0x21c
e63060d4:	e59f050c 	ldr	r0, [pc, #1292]	; e63065e8 <pfc_init_m3n+0x5b0>
e63060d8:	e5830000 	str	r0, [r3]
e63060dc:	e59f0508 	ldr	r0, [pc, #1288]	; e63065ec <pfc_init_m3n+0x5b4>
e63060e0:	e5830220 	str	r0, [r3, #544]	; 0x220
e63060e4:	e3e00201 	mvn	r0, #268435456	; 0x10000000
e63060e8:	e5831000 	str	r1, [r3]
e63060ec:	e5832224 	str	r2, [r3, #548]	; 0x224
e63060f0:	e5830000 	str	r0, [r3]
e63060f4:	e3a00201 	mov	r0, #268435456	; 0x10000000
e63060f8:	e59f54f0 	ldr	r5, [pc, #1264]	; e63065f0 <pfc_init_m3n+0x5b8>
e63060fc:	e5830228 	str	r0, [r3, #552]	; 0x228
e6306100:	e3e00341 	mvn	r0, #67108865	; 0x4000001
e6306104:	e5830000 	str	r0, [r3]
e6306108:	e3a00341 	mov	r0, #67108865	; 0x4000001
e630610c:	e583022c 	str	r0, [r3, #556]	; 0x22c
e6306110:	e3e00b01 	mvn	r0, #1024	; 0x400
e6306114:	e5830000 	str	r0, [r3]
e6306118:	e59f04d4 	ldr	r0, [pc, #1236]	; e63065f4 <pfc_init_m3n+0x5bc>
e630611c:	e583e230 	str	lr, [r3, #560]	; 0x230
e6306120:	e5830000 	str	r0, [r3]
e6306124:	e59f04cc 	ldr	r0, [pc, #1228]	; e63065f8 <pfc_init_m3n+0x5c0>
e6306128:	e5830234 	str	r0, [r3, #564]	; 0x234
e630612c:	e3e00038 	mvn	r0, #56	; 0x38
e6306130:	e5830000 	str	r0, [r3]
e6306134:	e3a00038 	mov	r0, #56	; 0x38
e6306138:	e5830238 	str	r0, [r3, #568]	; 0x238
e630613c:	e3e00010 	mvn	r0, #16
e6306140:	e5831000 	str	r1, [r3]
e6306144:	e583223c 	str	r2, [r3, #572]	; 0x23c
e6306148:	e5831000 	str	r1, [r3]
e630614c:	e5832240 	str	r2, [r3, #576]	; 0x240
e6306150:	e5830000 	str	r0, [r3]
e6306154:	e3a00010 	mov	r0, #16
e6306158:	e5830244 	str	r0, [r3, #580]	; 0x244
e630615c:	e5831000 	str	r1, [r3]
e6306160:	e3e01cff 	mvn	r1, #65280	; 0xff00
e6306164:	e5832248 	str	r2, [r3, #584]	; 0x248
e6306168:	e5831000 	str	r1, [r3]
e630616c:	e3a01cff 	mov	r1, #65280	; 0xff00
e6306170:	e5831100 	str	r1, [r3, #256]	; 0x100
e6306174:	e59f1480 	ldr	r1, [pc, #1152]	; e63065fc <pfc_init_m3n+0x5c4>
e6306178:	e5831000 	str	r1, [r3]
e630617c:	e59f147c 	ldr	r1, [pc, #1148]	; e6306600 <pfc_init_m3n+0x5c8>
e6306180:	e5831104 	str	r1, [r3, #260]	; 0x104
e6306184:	e59f1478 	ldr	r1, [pc, #1144]	; e6306604 <pfc_init_m3n+0x5cc>
e6306188:	e5831000 	str	r1, [r3]
e630618c:	e3071bbf 	movw	r1, #31679	; 0x7bbf
e6306190:	e5831108 	str	r1, [r3, #264]	; 0x108
e6306194:	e59f146c 	ldr	r1, [pc, #1132]	; e6306608 <pfc_init_m3n+0x5d0>
e6306198:	e5831000 	str	r1, [r3]
e630619c:	e3031f3f 	movw	r1, #16191	; 0x3f3f
e63061a0:	e583110c 	str	r1, [r3, #268]	; 0x10c
e63061a4:	e59f1460 	ldr	r1, [pc, #1120]	; e630660c <pfc_init_m3n+0x5d4>
e63061a8:	e5831000 	str	r1, [r3]
e63061ac:	e59f145c 	ldr	r1, [pc, #1116]	; e6306610 <pfc_init_m3n+0x5d8>
e63061b0:	e5831110 	str	r1, [r3, #272]	; 0x110
e63061b4:	e59f1458 	ldr	r1, [pc, #1112]	; e6306614 <pfc_init_m3n+0x5dc>
e63061b8:	e5831000 	str	r1, [r3]
e63061bc:	e59f1454 	ldr	r1, [pc, #1108]	; e6306618 <pfc_init_m3n+0x5e0>
e63061c0:	e5831114 	str	r1, [r3, #276]	; 0x114
e63061c4:	e59f1450 	ldr	r1, [pc, #1104]	; e630661c <pfc_init_m3n+0x5e4>
e63061c8:	e5831000 	str	r1, [r3]
e63061cc:	e59f144c 	ldr	r1, [pc, #1100]	; e6306620 <pfc_init_m3n+0x5e8>
e63061d0:	e5831118 	str	r1, [r3, #280]	; 0x118
e63061d4:	e3e01003 	mvn	r1, #3
e63061d8:	e5831000 	str	r1, [r3]
e63061dc:	e3a01003 	mov	r1, #3
e63061e0:	e583111c 	str	r1, [r3, #284]	; 0x11c
e63061e4:	e59f1438 	ldr	r1, [pc, #1080]	; e6306624 <pfc_init_m3n+0x5ec>
e63061e8:	e5831000 	str	r1, [r3]
e63061ec:	e59f1434 	ldr	r1, [pc, #1076]	; e6306628 <pfc_init_m3n+0x5f0>
e63061f0:	e5831380 	str	r1, [r3, #896]	; 0x380
e63061f4:	e5931300 	ldr	r1, [r3, #768]	; 0x300
e63061f8:	e1811005 	orr	r1, r1, r5
e63061fc:	e1e00001 	mvn	r0, r1
e6306200:	e5830000 	str	r0, [r3]
e6306204:	e5831300 	str	r1, [r3, #768]	; 0x300
e6306208:	e5930304 	ldr	r0, [r3, #772]	; 0x304
e630620c:	e59f1418 	ldr	r1, [pc, #1048]	; e630662c <pfc_init_m3n+0x5f4>
e6306210:	e1801001 	orr	r1, r0, r1
e6306214:	e1e00001 	mvn	r0, r1
e6306218:	e5830000 	str	r0, [r3]
e630621c:	e5831304 	str	r1, [r3, #772]	; 0x304
e6306220:	e59f0408 	ldr	r0, [pc, #1032]	; e6306630 <pfc_init_m3n+0x5f8>
e6306224:	e593c308 	ldr	ip, [r3, #776]	; 0x308
e6306228:	e59f1404 	ldr	r1, [pc, #1028]	; e6306634 <pfc_init_m3n+0x5fc>
e630622c:	e00cc000 	and	ip, ip, r0
e6306230:	e18c1001 	orr	r1, ip, r1
e6306234:	e1e0c001 	mvn	ip, r1
e6306238:	e583c000 	str	ip, [r3]
e630623c:	e5831308 	str	r1, [r3, #776]	; 0x308
e6306240:	e593c30c 	ldr	ip, [r3, #780]	; 0x30c
e6306244:	e59f13ec 	ldr	r1, [pc, #1004]	; e6306638 <pfc_init_m3n+0x600>
e6306248:	e00cc000 	and	ip, ip, r0
e630624c:	e18c1001 	orr	r1, ip, r1
e6306250:	e1e0c001 	mvn	ip, r1
e6306254:	e583c000 	str	ip, [r3]
e6306258:	e583130c 	str	r1, [r3, #780]	; 0x30c
e630625c:	e59f13d8 	ldr	r1, [pc, #984]	; e630663c <pfc_init_m3n+0x604>
e6306260:	e5934310 	ldr	r4, [r3, #784]	; 0x310
e6306264:	e1844001 	orr	r4, r4, r1
e6306268:	e1e0c004 	mvn	ip, r4
e630626c:	e583c000 	str	ip, [r3]
e6306270:	e5834310 	str	r4, [r3, #784]	; 0x310
e6306274:	e593c314 	ldr	ip, [r3, #788]	; 0x314
e6306278:	e59f43c0 	ldr	r4, [pc, #960]	; e6306640 <pfc_init_m3n+0x608>
e630627c:	e00cc000 	and	ip, ip, r0
e6306280:	e18c4004 	orr	r4, ip, r4
e6306284:	e1e0c004 	mvn	ip, r4
e6306288:	e583c000 	str	ip, [r3]
e630628c:	e5834314 	str	r4, [r3, #788]	; 0x314
e6306290:	e593c318 	ldr	ip, [r3, #792]	; 0x318
e6306294:	e59f43a8 	ldr	r4, [pc, #936]	; e6306644 <pfc_init_m3n+0x60c>
e6306298:	e00cc000 	and	ip, ip, r0
e630629c:	e18c4004 	orr	r4, ip, r4
e63062a0:	e1e0c004 	mvn	ip, r4
e63062a4:	e583c000 	str	ip, [r3]
e63062a8:	e5834318 	str	r4, [r3, #792]	; 0x318
e63062ac:	e593c31c 	ldr	ip, [r3, #796]	; 0x31c
e63062b0:	e00cc000 	and	ip, ip, r0
e63062b4:	e18cc005 	orr	ip, ip, r5
e63062b8:	e59f5388 	ldr	r5, [pc, #904]	; e6306648 <pfc_init_m3n+0x610>
e63062bc:	e1e0400c 	mvn	r4, ip
e63062c0:	e5834000 	str	r4, [r3]
e63062c4:	e583c31c 	str	ip, [r3, #796]	; 0x31c
e63062c8:	e593c320 	ldr	ip, [r3, #800]	; 0x320
e63062cc:	e18cc001 	orr	ip, ip, r1
e63062d0:	e1e0400c 	mvn	r4, ip
e63062d4:	e5834000 	str	r4, [r3]
e63062d8:	e583c320 	str	ip, [r3, #800]	; 0x320
e63062dc:	e593c324 	ldr	ip, [r3, #804]	; 0x324
e63062e0:	e18cc001 	orr	ip, ip, r1
e63062e4:	e1e0400c 	mvn	r4, ip
e63062e8:	e5834000 	str	r4, [r3]
e63062ec:	e583c324 	str	ip, [r3, #804]	; 0x324
e63062f0:	e5934328 	ldr	r4, [r3, #808]	; 0x328
e63062f4:	e59fc350 	ldr	ip, [pc, #848]	; e630664c <pfc_init_m3n+0x614>
e63062f8:	e0044000 	and	r4, r4, r0
e63062fc:	e184c00c 	orr	ip, r4, ip
e6306300:	e1e0400c 	mvn	r4, ip
e6306304:	e5834000 	str	r4, [r3]
e6306308:	e583c328 	str	ip, [r3, #808]	; 0x328
e630630c:	e59f433c 	ldr	r4, [pc, #828]	; e6306650 <pfc_init_m3n+0x618>
e6306310:	e593c32c 	ldr	ip, [r3, #812]	; 0x32c
e6306314:	e004400c 	and	r4, r4, ip
e6306318:	e59fc334 	ldr	ip, [pc, #820]	; e6306654 <pfc_init_m3n+0x61c>
e630631c:	e184c00c 	orr	ip, r4, ip
e6306320:	e1e0400c 	mvn	r4, ip
e6306324:	e5834000 	str	r4, [r3]
e6306328:	e583c32c 	str	ip, [r3, #812]	; 0x32c
e630632c:	e5934330 	ldr	r4, [r3, #816]	; 0x330
e6306330:	e59fc320 	ldr	ip, [pc, #800]	; e6306658 <pfc_init_m3n+0x620>
e6306334:	e184c00c 	orr	ip, r4, ip
e6306338:	e1e0400c 	mvn	r4, ip
e630633c:	e5834000 	str	r4, [r3]
e6306340:	e583c330 	str	ip, [r3, #816]	; 0x330
e6306344:	e59fc310 	ldr	ip, [pc, #784]	; e630665c <pfc_init_m3n+0x624>
e6306348:	e5934334 	ldr	r4, [r3, #820]	; 0x334
e630634c:	e184c00c 	orr	ip, r4, ip
e6306350:	e1e0400c 	mvn	r4, ip
e6306354:	e5834000 	str	r4, [r3]
e6306358:	e583c334 	str	ip, [r3, #820]	; 0x334
e630635c:	e5934338 	ldr	r4, [r3, #824]	; 0x338
e6306360:	e59fc2f8 	ldr	ip, [pc, #760]	; e6306660 <pfc_init_m3n+0x628>
e6306364:	e0044000 	and	r4, r4, r0
e6306368:	e184c00c 	orr	ip, r4, ip
e630636c:	e1e0400c 	mvn	r4, ip
e6306370:	e5834000 	str	r4, [r3]
e6306374:	e583c338 	str	ip, [r3, #824]	; 0x338
e6306378:	e593c33c 	ldr	ip, [r3, #828]	; 0x33c
e630637c:	e59f42e0 	ldr	r4, [pc, #736]	; e6306664 <pfc_init_m3n+0x62c>
e6306380:	e000000c 	and	r0, r0, ip
e6306384:	e59fc2dc 	ldr	ip, [pc, #732]	; e6306668 <pfc_init_m3n+0x630>
e6306388:	e180c00c 	orr	ip, r0, ip
e630638c:	e1e0000c 	mvn	r0, ip
e6306390:	e5830000 	str	r0, [r3]
e6306394:	e583c33c 	str	ip, [r3, #828]	; 0x33c
e6306398:	e5930340 	ldr	r0, [r3, #832]	; 0x340
e630639c:	e1800001 	orr	r0, r0, r1
e63063a0:	e1e0c000 	mvn	ip, r0
e63063a4:	e583c000 	str	ip, [r3]
e63063a8:	e5830340 	str	r0, [r3, #832]	; 0x340
e63063ac:	e5930344 	ldr	r0, [r3, #836]	; 0x344
e63063b0:	e1800001 	orr	r0, r0, r1
e63063b4:	e1e0c000 	mvn	ip, r0
e63063b8:	e583c000 	str	ip, [r3]
e63063bc:	e5830344 	str	r0, [r3, #836]	; 0x344
e63063c0:	e5930348 	ldr	r0, [r3, #840]	; 0x348
e63063c4:	e1800001 	orr	r0, r0, r1
e63063c8:	e1e0c000 	mvn	ip, r0
e63063cc:	e583c000 	str	ip, [r3]
e63063d0:	e5830348 	str	r0, [r3, #840]	; 0x348
e63063d4:	e593034c 	ldr	r0, [r3, #844]	; 0x34c
e63063d8:	e1800001 	orr	r0, r0, r1
e63063dc:	e1e0c000 	mvn	ip, r0
e63063e0:	e583c000 	str	ip, [r3]
e63063e4:	e583034c 	str	r0, [r3, #844]	; 0x34c
e63063e8:	e5930350 	ldr	r0, [r3, #848]	; 0x350
e63063ec:	e1800001 	orr	r0, r0, r1
e63063f0:	e1e0c000 	mvn	ip, r0
e63063f4:	e583c000 	str	ip, [r3]
e63063f8:	e5830350 	str	r0, [r3, #848]	; 0x350
e63063fc:	e5930354 	ldr	r0, [r3, #852]	; 0x354
e6306400:	e1800001 	orr	r0, r0, r1
e6306404:	e1e0c000 	mvn	ip, r0
e6306408:	e583c000 	str	ip, [r3]
e630640c:	e5830354 	str	r0, [r3, #852]	; 0x354
e6306410:	e5930358 	ldr	r0, [r3, #856]	; 0x358
e6306414:	e1800001 	orr	r0, r0, r1
e6306418:	e1e0c000 	mvn	ip, r0
e630641c:	e583c000 	str	ip, [r3]
e6306420:	e5830358 	str	r0, [r3, #856]	; 0x358
e6306424:	e593035c 	ldr	r0, [r3, #860]	; 0x35c
e6306428:	e59fc23c 	ldr	ip, [pc, #572]	; e630666c <pfc_init_m3n+0x634>
e630642c:	e1801001 	orr	r1, r0, r1
e6306430:	e1e00001 	mvn	r0, r1
e6306434:	e5830000 	str	r0, [r3]
e6306438:	e583135c 	str	r1, [r3, #860]	; 0x35c
e630643c:	e59f122c 	ldr	r1, [pc, #556]	; e6306670 <pfc_init_m3n+0x638>
e6306440:	e5930360 	ldr	r0, [r3, #864]	; 0x360
e6306444:	e1801001 	orr	r1, r0, r1
e6306448:	e1e00001 	mvn	r0, r1
e630644c:	e5830000 	str	r0, [r3]
e6306450:	e5831360 	str	r1, [r3, #864]	; 0x360
e6306454:	e59f1218 	ldr	r1, [pc, #536]	; e6306674 <pfc_init_m3n+0x63c>
e6306458:	e5831000 	str	r1, [r3]
e630645c:	e3051fbf 	movw	r1, #24511	; 0x5fbf
e6306460:	e59f0210 	ldr	r0, [pc, #528]	; e6306678 <pfc_init_m3n+0x640>
e6306464:	e5831440 	str	r1, [r3, #1088]	; 0x440
e6306468:	e59f120c 	ldr	r1, [pc, #524]	; e630667c <pfc_init_m3n+0x644>
e630646c:	e5831000 	str	r1, [r3]
e6306470:	e59f1208 	ldr	r1, [pc, #520]	; e6306680 <pfc_init_m3n+0x648>
e6306474:	e5831444 	str	r1, [r3, #1092]	; 0x444
e6306478:	e59f1204 	ldr	r1, [pc, #516]	; e6306684 <pfc_init_m3n+0x64c>
e630647c:	e5831000 	str	r1, [r3]
e6306480:	e59f1200 	ldr	r1, [pc, #512]	; e6306688 <pfc_init_m3n+0x650>
e6306484:	e5831448 	str	r1, [r3, #1096]	; 0x448
e6306488:	e3e01e2e 	mvn	r1, #736	; 0x2e0
e630648c:	e5831000 	str	r1, [r3]
e6306490:	e3a01e2e 	mov	r1, #736	; 0x2e0
e6306494:	e583144c 	str	r1, [r3, #1100]	; 0x44c
e6306498:	e3a010ff 	mov	r1, #255	; 0xff
e630649c:	e5831000 	str	r1, [r3]
e63064a0:	e3e010ff 	mvn	r1, #255	; 0xff
e63064a4:	e5831450 	str	r1, [r3, #1104]	; 0x450
e63064a8:	e59f11dc 	ldr	r1, [pc, #476]	; e630668c <pfc_init_m3n+0x654>
e63064ac:	e5831000 	str	r1, [r3]
e63064b0:	e2411505 	sub	r1, r1, #20971520	; 0x1400000
e63064b4:	e24110f1 	sub	r1, r1, #241	; 0xf1
e63064b8:	e5831454 	str	r1, [r3, #1108]	; 0x454
e63064bc:	e3e01055 	mvn	r1, #85	; 0x55
e63064c0:	e5831000 	str	r1, [r3]
e63064c4:	e3a01055 	mov	r1, #85	; 0x55
e63064c8:	e5831458 	str	r1, [r3, #1112]	; 0x458
e63064cc:	e59f11bc 	ldr	r1, [pc, #444]	; e6306690 <pfc_init_m3n+0x658>
e63064d0:	e5831000 	str	r1, [r3]
e63064d4:	e3001fff 	movw	r1, #4095	; 0xfff
e63064d8:	e5831400 	str	r1, [r3, #1024]	; 0x400
e63064dc:	e59f11b0 	ldr	r1, [pc, #432]	; e6306694 <pfc_init_m3n+0x65c>
e63064e0:	e5831000 	str	r1, [r3]
e63064e4:	e59f11ac 	ldr	r1, [pc, #428]	; e6306698 <pfc_init_m3n+0x660>
e63064e8:	e5831404 	str	r1, [r3, #1028]	; 0x404
e63064ec:	e59f11a8 	ldr	r1, [pc, #424]	; e630669c <pfc_init_m3n+0x664>
e63064f0:	e5831000 	str	r1, [r3]
e63064f4:	e30014c4 	movw	r1, #1220	; 0x4c4
e63064f8:	e5831408 	str	r1, [r3, #1032]	; 0x408
e63064fc:	e3e01c02 	mvn	r1, #512	; 0x200
e6306500:	e5831000 	str	r1, [r3]
e6306504:	e3a01c02 	mov	r1, #512	; 0x200
e6306508:	e583140c 	str	r1, [r3, #1036]	; 0x40c
e630650c:	e3e0143e 	mvn	r1, #1040187392	; 0x3e000000
e6306510:	e5831000 	str	r1, [r3]
e6306514:	e3a0143e 	mov	r1, #1040187392	; 0x3e000000
e6306518:	e5831410 	str	r1, [r3, #1040]	; 0x410
e630651c:	e59f117c 	ldr	r1, [pc, #380]	; e63066a0 <pfc_init_m3n+0x668>
e6306520:	e5831000 	str	r1, [r3]
e6306524:	e59f1178 	ldr	r1, [pc, #376]	; e63066a4 <pfc_init_m3n+0x66c>
e6306528:	e5831414 	str	r1, [r3, #1044]	; 0x414
e630652c:	e3e01006 	mvn	r1, #6
e6306530:	e5831000 	str	r1, [r3]
e6306534:	e5837418 	str	r7, [r3, #1048]	; 0x418
e6306538:	e2433a0b 	sub	r3, r3, #45056	; 0xb000
e630653c:	e59f1164 	ldr	r1, [pc, #356]	; e63066a8 <pfc_init_m3n+0x670>
e6306540:	e5852020 	str	r2, [r5, #32]
e6306544:	e58c2020 	str	r2, [ip, #32]
e6306548:	e5802020 	str	r2, [r0, #32]
e630654c:	e5812020 	str	r2, [r1, #32]
e6306550:	e5842020 	str	r2, [r4, #32]
e6306554:	e5832020 	str	r2, [r3, #32]
e6306558:	e5832420 	str	r2, [r3, #1056]	; 0x420
e630655c:	e5832820 	str	r2, [r3, #2080]	; 0x820
e6306560:	e5852000 	str	r2, [r5]
e6306564:	e58c2000 	str	r2, [ip]
e6306568:	e5802000 	str	r2, [r0]
e630656c:	e5812000 	str	r2, [r1]
e6306570:	e5842000 	str	r2, [r4]
e6306574:	e5832000 	str	r2, [r3]
e6306578:	e5832400 	str	r2, [r3, #1024]	; 0x400
e630657c:	e5832800 	str	r2, [r3, #2048]	; 0x800
e6306580:	e58c2008 	str	r2, [ip, #8]
e6306584:	e580e008 	str	lr, [r0, #8]
e6306588:	e5816008 	str	r6, [r1, #8]
e630658c:	e5837008 	str	r7, [r3, #8]
e6306590:	e3a07de2 	mov	r7, #14464	; 0x3880
e6306594:	e5837408 	str	r7, [r3, #1032]	; 0x408
e6306598:	e5852004 	str	r2, [r5, #4]
e630659c:	e59f5108 	ldr	r5, [pc, #264]	; e63066ac <pfc_init_m3n+0x674>
e63065a0:	e58c5004 	str	r5, [ip, #4]
e63065a4:	e580e004 	str	lr, [r0, #4]
e63065a8:	e5816004 	str	r6, [r1, #4]
e63065ac:	e300120e 	movw	r1, #526	; 0x20e
e63065b0:	e5842004 	str	r2, [r4, #4]
e63065b4:	e5831004 	str	r1, [r3, #4]
e63065b8:	e59f10f0 	ldr	r1, [pc, #240]	; e63066b0 <pfc_init_m3n+0x678>
e63065bc:	e5831404 	str	r1, [r3, #1028]	; 0x404
e63065c0:	e5832804 	str	r2, [r3, #2052]	; 0x804
e63065c4:	e8bd80f0 	pop	{r4, r5, r6, r7, pc}
e63065c8:	e6060000 	.word	0xe6060000
e63065cc:	9fffcccc 	.word	0x9fffcccc
e63065d0:	60003333 	.word	0x60003333
e63065d4:	f9999999 	.word	0xf9999999
e63065d8:	06666666 	.word	0x06666666
e63065dc:	99999fff 	.word	0x99999fff
e63065e0:	66666000 	.word	0x66666000
e63065e4:	fffff999 	.word	0xfffff999
e63065e8:	eeeeffff 	.word	0xeeeeffff
e63065ec:	11110000 	.word	0x11110000
e63065f0:	33333333 	.word	0x33333333
e63065f4:	7ffffcff 	.word	0x7ffffcff
e63065f8:	80000300 	.word	0x80000300
e63065fc:	e7f00f00 	.word	0xe7f00f00
e6306600:	180ff0ff 	.word	0x180ff0ff
e6306604:	ffff8440 	.word	0xffff8440
e6306608:	ffffc0c0 	.word	0xffffc0c0
e630660c:	fffe6000 	.word	0xfffe6000
e6306610:	00019fff 	.word	0x00019fff
e6306614:	ffd2000e 	.word	0xffd2000e
e6306618:	002dfff1 	.word	0x002dfff1
e630661c:	c02138f0 	.word	0xc02138f0
e6306620:	3fdec70f 	.word	0x3fdec70f
e6306624:	c007ffc0 	.word	0xc007ffc0
e6306628:	3ff8003f 	.word	0x3ff8003f
e630662c:	33333337 	.word	0x33333337
e6306630:	88888888 	.word	0x88888888
e6306634:	77777333 	.word	0x77777333
e6306638:	33377777 	.word	0x33377777
e630663c:	77777777 	.word	0x77777777
e6306640:	77773333 	.word	0x77773333
e6306644:	33337777 	.word	0x33337777
e6306648:	e6050000 	.word	0xe6050000
e630664c:	77333333 	.word	0x77333333
e6306650:	888888cc 	.word	0x888888cc
e6306654:	33777733 	.word	0x33777733
e6306658:	33300030 	.word	0x33300030
e630665c:	33777777 	.word	0x33777777
e6306660:	77555555 	.word	0x77555555
e6306664:	e6054000 	.word	0xe6054000
e6306668:	55555777 	.word	0x55555777
e630666c:	e6051000 	.word	0xe6051000
e6306670:	77777770 	.word	0x77777770
e6306674:	ffffa040 	.word	0xffffa040
e6306678:	e6052000 	.word	0xe6052000
e630667c:	ffcff001 	.word	0xffcff001
e6306680:	00300ffe 	.word	0x00300ffe
e6306684:	ccfffe19 	.word	0xccfffe19
e6306688:	330001e6 	.word	0x330001e6
e630668c:	80a00078 	.word	0x80a00078
e6306690:	fffff000 	.word	0xfffff000
e6306694:	ffeffdcb 	.word	0xffeffdcb
e6306698:	00100234 	.word	0x00100234
e630669c:	fffffb3b 	.word	0xfffffb3b
e63066a0:	e0fff7fa 	.word	0xe0fff7fa
e63066a4:	1f000805 	.word	0x1f000805
e63066a8:	e6053000 	.word	0xe6053000
e63066ac:	01000a00 	.word	0x01000a00
e63066b0:	00013880 	.word	0x00013880

e63066b4 <pfc_init>:
e63066b4:	e3e03aff 	mvn	r3, #1044480	; 0xff000
e63066b8:	e5131fbb 	ldr	r1, [r3, #-4027]	; 0xfffff045
e63066bc:	e2013c7f 	and	r3, r1, #32512	; 0x7f00
e63066c0:	e3530c52 	cmp	r3, #20992	; 0x5200
e63066c4:	0a000003 	beq	e63066d8 <pfc_init+0x24>
e63066c8:	9a000002 	bls	e63066d8 <pfc_init+0x24>
e63066cc:	e3530c55 	cmp	r3, #21760	; 0x5500
e63066d0:	1a000000 	bne	e63066d8 <pfc_init+0x24>
e63066d4:	eafffe57 	b	e6306038 <pfc_init_m3n>
e63066d8:	e92d4010 	push	{r4, lr}
e63066dc:	e59f0004 	ldr	r0, [pc, #4]	; e63066e8 <pfc_init+0x34>
e63066e0:	eb00165e 	bl	e630c060 <__tf_printf_veneer>
e63066e4:	eb00166b 	bl	e630c098 <__do_panic_veneer>
e63066e8:	e630c325 	.word	0xe630c325

e63066ec <pfc_write_and_poll>:
e63066ec:	e59f3024 	ldr	r3, [pc, #36]	; e6306718 <pfc_write_and_poll+0x2c>
e63066f0:	e1e01001 	mvn	r1, r1
e63066f4:	e5831000 	str	r1, [r3]
e63066f8:	e5933000 	ldr	r3, [r3]
e63066fc:	e1e03003 	mvn	r3, r3
e6306700:	e5803000 	str	r3, [r0]
e6306704:	e5902000 	ldr	r2, [r0]
e6306708:	e1530002 	cmp	r3, r2
e630670c:	1afffffc 	bne	e6306704 <pfc_write_and_poll+0x18>
e6306710:	f57ff04f 	dsb	sy
e6306714:	e12fff1e 	bx	lr
e6306718:	e6060000 	.word	0xe6060000

e630671c <vch_nxt>:
e630671c:	e59f301c 	ldr	r3, [pc, #28]	; e6306740 <vch_nxt+0x24>
e6306720:	e3a02001 	mov	r2, #1
e6306724:	e5933000 	ldr	r3, [r3]
e6306728:	e3500003 	cmp	r0, #3
e630672c:	812fff1e 	bxhi	lr
e6306730:	e0131012 	ands	r1, r3, r2, lsl r0
e6306734:	112fff1e 	bxne	lr
e6306738:	e2800001 	add	r0, r0, #1
e630673c:	eafffff9 	b	e6306728 <vch_nxt+0xc>
e6306740:	eb022d9c 	.word	0xeb022d9c

e6306744 <pll3_control>:
e6306744:	e59f32a4 	ldr	r3, [pc, #676]	; e63069f0 <pll3_control+0x2ac>
e6306748:	e3500000 	cmp	r0, #0
e630674c:	e92d4070 	push	{r4, r5, r6, lr}
e6306750:	e5935000 	ldr	r5, [r3]
e6306754:	e59f3298 	ldr	r3, [pc, #664]	; e63069f4 <pll3_control+0x2b0>
e6306758:	e5933000 	ldr	r3, [r3]
e630675c:	e0223395 	mla	r2, r5, r3, r3
e6306760:	e3003f9f 	movw	r3, #3999	; 0xf9f
e6306764:	e0030293 	mul	r3, r3, r2
e6306768:	e59f2288 	ldr	r2, [pc, #648]	; e63069f8 <pll3_control+0x2b4>
e630676c:	e5921000 	ldr	r1, [r2]
e6306770:	0a000013 	beq	e63067c4 <pll3_control+0x80>
e6306774:	e59f2280 	ldr	r2, [pc, #640]	; e63069fc <pll3_control+0x2b8>
e6306778:	e1a00003 	mov	r0, r3
e630677c:	e5924000 	ldr	r4, [r2]
e6306780:	e0010491 	mul	r1, r1, r4
e6306784:	eb00163f 	bl	e630c088 <____aeabi_uidiv_veneer>
e6306788:	e3a02002 	mov	r2, #2
e630678c:	e1a000a0 	lsr	r0, r0, #1
e6306790:	e0030490 	mul	r3, r0, r4
e6306794:	e2433001 	sub	r3, r3, #1
e6306798:	e1a03c03 	lsl	r3, r3, #24
e630679c:	e59f125c 	ldr	r1, [pc, #604]	; e6306a00 <pll3_control+0x2bc>
e63067a0:	e5812000 	str	r2, [r1]
e63067a4:	e2402001 	sub	r2, r0, #1
e63067a8:	e3520003 	cmp	r2, #3
e63067ac:	979ff102 	ldrls	pc, [pc, r2, lsl #2]
e63067b0:	ea00000e 	b	e63067f0 <pll3_control+0xac>
e63067b4:	e6306974 	.word	0xe6306974
e63067b8:	e6306804 	.word	0xe6306804
e63067bc:	e6306804 	.word	0xe6306804
e63067c0:	e6306804 	.word	0xe6306804
e63067c4:	e59f2238 	ldr	r2, [pc, #568]	; e6306a04 <pll3_control+0x2c0>
e63067c8:	e1a00003 	mov	r0, r3
e63067cc:	e5924000 	ldr	r4, [r2]
e63067d0:	e0010491 	mul	r1, r1, r4
e63067d4:	eb00162b 	bl	e630c088 <____aeabi_uidiv_veneer>
e63067d8:	e3a02008 	mov	r2, #8
e63067dc:	e1a000a0 	lsr	r0, r0, #1
e63067e0:	e0030490 	mul	r3, r0, r4
e63067e4:	e2433001 	sub	r3, r3, #1
e63067e8:	e1a03c03 	lsl	r3, r3, #24
e63067ec:	eaffffea 	b	e630679c <pll3_control+0x58>
e63067f0:	e0030390 	mul	r3, r0, r3
e63067f4:	e59f020c 	ldr	r0, [pc, #524]	; e6306a08 <pll3_control+0x2c4>
e63067f8:	e0810093 	umull	r0, r1, r3, r0
e63067fc:	e3a00006 	mov	r0, #6
e6306800:	e1a030a1 	lsr	r3, r1, #1
e6306804:	e59f2200 	ldr	r2, [pc, #512]	; e6306a0c <pll3_control+0x2c8>
e6306808:	e1833385 	orr	r3, r3, r5, lsl #7
e630680c:	e59210d0 	ldr	r1, [r2, #208]	; 0xd0
e6306810:	e3c11008 	bic	r1, r1, #8
e6306814:	e1e0c001 	mvn	ip, r1
e6306818:	e582c900 	str	ip, [r2, #2304]	; 0x900
e630681c:	e58210d0 	str	r1, [r2, #208]	; 0xd0
e6306820:	f57ff04f 	dsb	sy
e6306824:	e59f11e4 	ldr	r1, [pc, #484]	; e6306a10 <pll3_control+0x2cc>
e6306828:	e5911000 	ldr	r1, [r1]
e630682c:	e3510c52 	cmp	r1, #20992	; 0x5200
e6306830:	0a000005 	beq	e630684c <pll3_control+0x108>
e6306834:	e3510c4f 	cmp	r1, #20224	; 0x4f00
e6306838:	1a00004f 	bne	e630697c <pll3_control+0x238>
e630683c:	e59f11d0 	ldr	r1, [pc, #464]	; e6306a14 <pll3_control+0x2d0>
e6306840:	e5911000 	ldr	r1, [r1]
e6306844:	e3510010 	cmp	r1, #16
e6306848:	8a00004b 	bhi	e630697c <pll3_control+0x238>
e630684c:	e59210e4 	ldr	r1, [r2, #228]	; 0xe4
e6306850:	e59fc1c0 	ldr	ip, [pc, #448]	; e6306a18 <pll3_control+0x2d4>
e6306854:	e001100c 	and	r1, r1, ip
e6306858:	e3811803 	orr	r1, r1, #196608	; 0x30000
e630685c:	e3811003 	orr	r1, r1, #3
e6306860:	e1e0e001 	mvn	lr, r1
e6306864:	e582e900 	str	lr, [r2, #2304]	; 0x900
e6306868:	e58210e4 	str	r1, [r2, #228]	; 0xe4
e630686c:	f57ff04f 	dsb	sy
e6306870:	e5921380 	ldr	r1, [r2, #896]	; 0x380
e6306874:	e3811b02 	orr	r1, r1, #2048	; 0x800
e6306878:	e1e0e001 	mvn	lr, r1
e630687c:	e582e900 	str	lr, [r2, #2304]	; 0x900
e6306880:	e5821380 	str	r1, [r2, #896]	; 0x380
e6306884:	f57ff04f 	dsb	sy
e6306888:	e59210d0 	ldr	r1, [r2, #208]	; 0xd0
e630688c:	e3811008 	orr	r1, r1, #8
e6306890:	e1e0e001 	mvn	lr, r1
e6306894:	e582e900 	str	lr, [r2, #2304]	; 0x900
e6306898:	e58210d0 	str	r1, [r2, #208]	; 0xd0
e630689c:	f57ff04f 	dsb	sy
e63068a0:	e59f2164 	ldr	r2, [pc, #356]	; e6306a0c <pll3_control+0x2c8>
e63068a4:	e59210d0 	ldr	r1, [r2, #208]	; 0xd0
e63068a8:	e3110b02 	tst	r1, #2048	; 0x800
e63068ac:	0afffffc 	beq	e63068a4 <pll3_control+0x160>
e63068b0:	f57ff04f 	dsb	sy
e63068b4:	e59210e4 	ldr	r1, [r2, #228]	; 0xe4
e63068b8:	e001100c 	and	r1, r1, ip
e63068bc:	e1e0c001 	mvn	ip, r1
e63068c0:	e582c900 	str	ip, [r2, #2304]	; 0x900
e63068c4:	e58210e4 	str	r1, [r2, #228]	; 0xe4
e63068c8:	f57ff04f 	dsb	sy
e63068cc:	e5921004 	ldr	r1, [r2, #4]
e63068d0:	e3811102 	orr	r1, r1, #-2147483648	; 0x80000000
e63068d4:	e1e0c001 	mvn	ip, r1
e63068d8:	e582c900 	str	ip, [r2, #2304]	; 0x900
e63068dc:	e5821004 	str	r1, [r2, #4]
e63068e0:	f57ff04f 	dsb	sy
e63068e4:	e1e01003 	mvn	r1, r3
e63068e8:	e5821900 	str	r1, [r2, #2304]	; 0x900
e63068ec:	e58230dc 	str	r3, [r2, #220]	; 0xdc
e63068f0:	f57ff04f 	dsb	sy
e63068f4:	e59f2110 	ldr	r2, [pc, #272]	; e6306a0c <pll3_control+0x2c8>
e63068f8:	e59230d0 	ldr	r3, [r2, #208]	; 0xd0
e63068fc:	e3130b02 	tst	r3, #2048	; 0x800
e6306900:	0afffffc 	beq	e63068f8 <pll3_control+0x1b4>
e6306904:	f57ff04f 	dsb	sy
e6306908:	e59230e4 	ldr	r3, [r2, #228]	; 0xe4
e630690c:	e3c3387f 	bic	r3, r3, #8323072	; 0x7f0000
e6306910:	e3c3307f 	bic	r3, r3, #127	; 0x7f
e6306914:	e1833000 	orr	r3, r3, r0
e6306918:	e1833800 	orr	r3, r3, r0, lsl #16
e630691c:	e1e01003 	mvn	r1, r3
e6306920:	e5821900 	str	r1, [r2, #2304]	; 0x900
e6306924:	e58230e4 	str	r3, [r2, #228]	; 0xe4
e6306928:	f57ff04f 	dsb	sy
e630692c:	e5923004 	ldr	r3, [r2, #4]
e6306930:	e3833102 	orr	r3, r3, #-2147483648	; 0x80000000
e6306934:	e1e01003 	mvn	r1, r3
e6306938:	e5821900 	str	r1, [r2, #2304]	; 0x900
e630693c:	e5823004 	str	r3, [r2, #4]
e6306940:	f57ff04f 	dsb	sy
e6306944:	e59f30c0 	ldr	r3, [pc, #192]	; e6306a0c <pll3_control+0x2c8>
e6306948:	e59320d0 	ldr	r2, [r3, #208]	; 0xd0
e630694c:	e3120b02 	tst	r2, #2048	; 0x800
e6306950:	0afffffc 	beq	e6306948 <pll3_control+0x204>
e6306954:	f57ff04f 	dsb	sy
e6306958:	e5932380 	ldr	r2, [r3, #896]	; 0x380
e630695c:	e3c22b02 	bic	r2, r2, #2048	; 0x800
e6306960:	e1e01002 	mvn	r1, r2
e6306964:	e5831900 	str	r1, [r3, #2304]	; 0x900
e6306968:	e5832380 	str	r2, [r3, #896]	; 0x380
e630696c:	f57ff04f 	dsb	sy
e6306970:	e8bd8070 	pop	{r4, r5, r6, pc}
e6306974:	e3a00000 	mov	r0, #0
e6306978:	eaffffa1 	b	e6306804 <pll3_control+0xc0>
e630697c:	e1e01003 	mvn	r1, r3
e6306980:	e5821900 	str	r1, [r2, #2304]	; 0x900
e6306984:	e58230dc 	str	r3, [r2, #220]	; 0xdc
e6306988:	f57ff04f 	dsb	sy
e630698c:	e59230e4 	ldr	r3, [r2, #228]	; 0xe4
e6306990:	e3c3387f 	bic	r3, r3, #8323072	; 0x7f0000
e6306994:	e3c3307f 	bic	r3, r3, #127	; 0x7f
e6306998:	e1833000 	orr	r3, r3, r0
e630699c:	e1833800 	orr	r3, r3, r0, lsl #16
e63069a0:	e1e01003 	mvn	r1, r3
e63069a4:	e5821900 	str	r1, [r2, #2304]	; 0x900
e63069a8:	e58230e4 	str	r3, [r2, #228]	; 0xe4
e63069ac:	e5923004 	ldr	r3, [r2, #4]
e63069b0:	e3833102 	orr	r3, r3, #-2147483648	; 0x80000000
e63069b4:	e1e01003 	mvn	r1, r3
e63069b8:	e5821900 	str	r1, [r2, #2304]	; 0x900
e63069bc:	e5823004 	str	r3, [r2, #4]
e63069c0:	f57ff04f 	dsb	sy
e63069c4:	e59230d0 	ldr	r3, [r2, #208]	; 0xd0
e63069c8:	e3833008 	orr	r3, r3, #8
e63069cc:	e1e01003 	mvn	r1, r3
e63069d0:	e5821900 	str	r1, [r2, #2304]	; 0x900
e63069d4:	e58230d0 	str	r3, [r2, #208]	; 0xd0
e63069d8:	f57ff04f 	dsb	sy
e63069dc:	e59f2028 	ldr	r2, [pc, #40]	; e6306a0c <pll3_control+0x2c8>
e63069e0:	e59230d0 	ldr	r3, [r2, #208]	; 0xd0
e63069e4:	e3130b02 	tst	r3, #2048	; 0x800
e63069e8:	0afffffc 	beq	e63069e0 <pll3_control+0x29c>
e63069ec:	eaffffde 	b	e630696c <pll3_control+0x228>
e63069f0:	eb022d64 	.word	0xeb022d64
e63069f4:	eb022d60 	.word	0xeb022d60
e63069f8:	eb022d5c 	.word	0xeb022d5c
e63069fc:	eb022d94 	.word	0xeb022d94
e6306a00:	eb022da8 	.word	0xeb022da8
e6306a04:	eb022d68 	.word	0xeb022d68
e6306a08:	aaaaaaab 	.word	0xaaaaaaab
e6306a0c:	e6150000 	.word	0xe6150000
e6306a10:	eb022058 	.word	0xeb022058
e6306a14:	eb022054 	.word	0xeb022054
e6306a18:	ff80ff80 	.word	0xff80ff80

e6306a1c <wait_dbcmd>:
e6306a1c:	e59f3018 	ldr	r3, [pc, #24]	; e6306a3c <wait_dbcmd+0x20>
e6306a20:	e5932208 	ldr	r2, [r3, #520]	; 0x208
e6306a24:	f57ff04f 	dsb	sy
e6306a28:	e5932210 	ldr	r2, [r3, #528]	; 0x210
e6306a2c:	f57ff04f 	dsb	sy
e6306a30:	e3120001 	tst	r2, #1
e6306a34:	1afffffb 	bne	e6306a28 <wait_dbcmd+0xc>
e6306a38:	e12fff1e 	bx	lr
e6306a3c:	e6790000 	.word	0xe6790000

e6306a40 <send_dbcmd>:
e6306a40:	e92d4010 	push	{r4, lr}
e6306a44:	ebfffff4 	bl	e6306a1c <wait_dbcmd>
e6306a48:	e59f3008 	ldr	r3, [pc, #8]	; e6306a58 <send_dbcmd+0x18>
e6306a4c:	e5830208 	str	r0, [r3, #520]	; 0x208
e6306a50:	f57ff04f 	dsb	sy
e6306a54:	e8bd8010 	pop	{r4, pc}
e6306a58:	e6790000 	.word	0xe6790000

e6306a5c <ddr_regdef_adr>:
e6306a5c:	e59f300c 	ldr	r3, [pc, #12]	; e6306a70 <ddr_regdef_adr+0x14>
e6306a60:	e5933000 	ldr	r3, [r3]
e6306a64:	e7930100 	ldr	r0, [r3, r0, lsl #2]
e6306a68:	e6ff0070 	uxth	r0, r0
e6306a6c:	e12fff1e 	bx	lr
e6306a70:	eb022db0 	.word	0xeb022db0

e6306a74 <_tblcopy>:
e6306a74:	e3a03000 	mov	r3, #0
e6306a78:	e791c103 	ldr	ip, [r1, r3, lsl #2]
e6306a7c:	e780c103 	str	ip, [r0, r3, lsl #2]
e6306a80:	e2833001 	add	r3, r3, #1
e6306a84:	e1520003 	cmp	r2, r3
e6306a88:	1afffffa 	bne	e6306a78 <_tblcopy+0x4>
e6306a8c:	e12fff1e 	bx	lr

e6306a90 <_f_scale>:
e6306a90:	e92d4070 	push	{r4, r5, r6, lr}
e6306a94:	e1a06003 	mov	r6, r3
e6306a98:	e2822009 	add	r2, r2, #9
e6306a9c:	e59f3038 	ldr	r3, [pc, #56]	; e6306adc <_f_scale+0x4c>
e6306aa0:	e59f4038 	ldr	r4, [pc, #56]	; e6306ae0 <_f_scale+0x50>
e6306aa4:	e0832392 	umull	r2, r3, r2, r3
e6306aa8:	e0040194 	mul	r4, r4, r1
e6306aac:	e1a01004 	mov	r1, r4
e6306ab0:	e1a051a3 	lsr	r5, r3, #3
e6306ab4:	e0050590 	mul	r5, r0, r5
e6306ab8:	e1a00005 	mov	r0, r5
e6306abc:	eb001571 	bl	e630c088 <____aeabi_uidiv_veneer>
e6306ac0:	e0040490 	mul	r4, r0, r4
e6306ac4:	e1540005 	cmp	r4, r5
e6306ac8:	12800001 	addne	r0, r0, #1
e6306acc:	e1560000 	cmp	r6, r0
e6306ad0:	36ff6070 	uxthcc	r6, r0
e6306ad4:	e1a00006 	mov	r0, r6
e6306ad8:	e8bd8070 	pop	{r4, r5, r6, pc}
e6306adc:	cccccccd 	.word	0xcccccccd
e6306ae0:	00030d40 	.word	0x00030d40

e6306ae4 <_f_scale_adj>:
e6306ae4:	e59f3030 	ldr	r3, [pc, #48]	; e6306b1c <_f_scale_adj+0x38>
e6306ae8:	e92d4010 	push	{r4, lr}
e6306aec:	e5933000 	ldr	r3, [r3]
e6306af0:	e0000093 	mul	r0, r3, r0
e6306af4:	e59f3024 	ldr	r3, [pc, #36]	; e6306b20 <_f_scale_adj+0x3c>
e6306af8:	e1a00100 	lsl	r0, r0, #2
e6306afc:	e5931000 	ldr	r1, [r3]
e6306b00:	eb001558 	bl	e630c068 <____aeabi_idiv_veneer>
e6306b04:	e59f2018 	ldr	r2, [pc, #24]	; e6306b24 <_f_scale_adj+0x40>
e6306b08:	e0c32290 	smull	r2, r3, r0, r2
e6306b0c:	e1a00fc0 	asr	r0, r0, #31
e6306b10:	e0600643 	rsb	r0, r0, r3, asr #12
e6306b14:	e6bf0070 	sxth	r0, r0
e6306b18:	e8bd8010 	pop	{r4, pc}
e6306b1c:	eb022d8c 	.word	0xeb022d8c
e6306b20:	eb022d90 	.word	0xeb022d90
e6306b24:	431bde83 	.word	0x431bde83

e6306b28 <wait_freqchgreq>:
e6306b28:	e59f30c8 	ldr	r3, [pc, #200]	; e6306bf8 <wait_freqchgreq+0xd0>
e6306b2c:	e5933000 	ldr	r3, [r3]
e6306b30:	e3530c4f 	cmp	r3, #20224	; 0x4f00
e6306b34:	1a000003 	bne	e6306b48 <wait_freqchgreq+0x20>
e6306b38:	e59f30bc 	ldr	r3, [pc, #188]	; e6306bfc <wait_freqchgreq+0xd4>
e6306b3c:	e5933000 	ldr	r3, [r3]
e6306b40:	e3530001 	cmp	r3, #1
e6306b44:	9a000029 	bls	e6306bf0 <wait_freqchgreq+0xc8>
e6306b48:	e3500000 	cmp	r0, #0
e6306b4c:	e92d41f0 	push	{r4, r5, r6, r7, r8, lr}
e6306b50:	e59f40a8 	ldr	r4, [pc, #168]	; e6306c00 <wait_freqchgreq+0xd8>
e6306b54:	e1a06000 	mov	r6, r0
e6306b58:	0a000013 	beq	e6306bac <wait_freqchgreq+0x84>
e6306b5c:	e59f70a0 	ldr	r7, [pc, #160]	; e6306c04 <wait_freqchgreq+0xdc>
e6306b60:	e3a00000 	mov	r0, #0
e6306b64:	e1a05006 	mov	r5, r6
e6306b68:	ebfffeeb 	bl	e630671c <vch_nxt>
e6306b6c:	e3500003 	cmp	r0, #3
e6306b70:	9a000008 	bls	e6306b98 <wait_freqchgreq+0x70>
e6306b74:	e2255001 	eor	r5, r5, #1
e6306b78:	e2544001 	subs	r4, r4, #1
e6306b7c:	03a05000 	moveq	r5, #0
e6306b80:	12055001 	andne	r5, r5, #1
e6306b84:	e3550000 	cmp	r5, #0
e6306b88:	1afffff4 	bne	e6306b60 <wait_freqchgreq+0x38>
e6306b8c:	e16f0f14 	clz	r0, r4
e6306b90:	e1a002a0 	lsr	r0, r0, #5
e6306b94:	e8bd81f0 	pop	{r4, r5, r6, r7, r8, pc}
e6306b98:	e7973300 	ldr	r3, [r7, r0, lsl #6]
e6306b9c:	e2800001 	add	r0, r0, #1
e6306ba0:	e0055003 	and	r5, r5, r3
e6306ba4:	ebfffedc 	bl	e630671c <vch_nxt>
e6306ba8:	eaffffef 	b	e6306b6c <wait_freqchgreq+0x44>
e6306bac:	e59f6050 	ldr	r6, [pc, #80]	; e6306c04 <wait_freqchgreq+0xdc>
e6306bb0:	e3a00000 	mov	r0, #0
e6306bb4:	e3a05000 	mov	r5, #0
e6306bb8:	ebfffed7 	bl	e630671c <vch_nxt>
e6306bbc:	e3500003 	cmp	r0, #3
e6306bc0:	9a000005 	bls	e6306bdc <wait_freqchgreq+0xb4>
e6306bc4:	e2544001 	subs	r4, r4, #1
e6306bc8:	12055001 	andne	r5, r5, #1
e6306bcc:	03a05000 	moveq	r5, #0
e6306bd0:	e3550000 	cmp	r5, #0
e6306bd4:	1afffff5 	bne	e6306bb0 <wait_freqchgreq+0x88>
e6306bd8:	eaffffeb 	b	e6306b8c <wait_freqchgreq+0x64>
e6306bdc:	e7963300 	ldr	r3, [r6, r0, lsl #6]
e6306be0:	e2800001 	add	r0, r0, #1
e6306be4:	e1855003 	orr	r5, r5, r3
e6306be8:	ebfffecb 	bl	e630671c <vch_nxt>
e6306bec:	eafffff2 	b	e6306bbc <wait_freqchgreq+0x94>
e6306bf0:	e3a00000 	mov	r0, #0
e6306bf4:	e12fff1e 	bx	lr
e6306bf8:	eb022058 	.word	0xeb022058
e6306bfc:	eb022054 	.word	0xeb022054
e6306c00:	000186a0 	.word	0x000186a0
e6306c04:	e6790630 	.word	0xe6790630

e6306c08 <set_freqchgack>:
e6306c08:	e92d4070 	push	{r4, r5, r6, lr}
e6306c0c:	e59f3028 	ldr	r3, [pc, #40]	; e6306c3c <set_freqchgack+0x34>
e6306c10:	e2504000 	subs	r4, r0, #0
e6306c14:	e3a00000 	mov	r0, #0
e6306c18:	11a04003 	movne	r4, r3
e6306c1c:	ebfffebe 	bl	e630671c <vch_nxt>
e6306c20:	e59f5018 	ldr	r5, [pc, #24]	; e6306c40 <set_freqchgack+0x38>
e6306c24:	e3500003 	cmp	r0, #3
e6306c28:	88bd8070 	pophi	{r4, r5, r6, pc}
e6306c2c:	e7854300 	str	r4, [r5, r0, lsl #6]
e6306c30:	e2800001 	add	r0, r0, #1
e6306c34:	ebfffeb8 	bl	e630671c <vch_nxt>
e6306c38:	eafffff9 	b	e6306c24 <set_freqchgack+0x1c>
e6306c3c:	0cf20000 	.word	0x0cf20000
e6306c40:	e6790618 	.word	0xe6790618

e6306c44 <reg_ddrphy_read>:
e6306c44:	e59fc0d8 	ldr	ip, [pc, #216]	; e6306d24 <reg_ddrphy_read+0xe0>
e6306c48:	e59f30d8 	ldr	r3, [pc, #216]	; e6306d28 <reg_ddrphy_read+0xe4>
e6306c4c:	e52de004 	push	{lr}		; (str lr, [sp, #-4]!)
e6306c50:	e59cc000 	ldr	ip, [ip]
e6306c54:	e1a0e300 	lsl	lr, r0, #6
e6306c58:	e08e2003 	add	r2, lr, r3
e6306c5c:	e24ccc55 	sub	ip, ip, #21760	; 0x5500
e6306c60:	e3dccc01 	bics	ip, ip, #256	; 0x100
e6306c64:	0a000011 	beq	e6306cb0 <reg_ddrphy_read+0x6c>
e6306c68:	e7831300 	str	r1, [r3, r0, lsl #6]
e6306c6c:	f57ff04f 	dsb	sy
e6306c70:	e5923000 	ldr	r3, [r2]
e6306c74:	e1510003 	cmp	r1, r3
e6306c78:	1afffffb 	bne	e6306c6c <reg_ddrphy_read+0x28>
e6306c7c:	f57ff04f 	dsb	sy
e6306c80:	e59f20a4 	ldr	r2, [pc, #164]	; e6306d2c <reg_ddrphy_read+0xe8>
e6306c84:	e3a03000 	mov	r3, #0
e6306c88:	e59fc0a0 	ldr	ip, [pc, #160]	; e6306d30 <reg_ddrphy_read+0xec>
e6306c8c:	e1a00003 	mov	r0, r3
e6306c90:	e08e2002 	add	r2, lr, r2
e6306c94:	e59c1000 	ldr	r1, [ip]
e6306c98:	e1510003 	cmp	r1, r3
e6306c9c:	949df004 	popls	{pc}		; (ldrls pc, [sp], #4)
e6306ca0:	e5920000 	ldr	r0, [r2]
e6306ca4:	f57ff04f 	dsb	sy
e6306ca8:	e2833001 	add	r3, r3, #1
e6306cac:	eafffff8 	b	e6306c94 <reg_ddrphy_read+0x50>
e6306cb0:	e381c901 	orr	ip, r1, #16384	; 0x4000
e6306cb4:	e783c300 	str	ip, [r3, r0, lsl #6]
e6306cb8:	f57ff04f 	dsb	sy
e6306cbc:	e381c903 	orr	ip, r1, #49152	; 0xc000
e6306cc0:	e592e000 	ldr	lr, [r2]
e6306cc4:	e15e000c 	cmp	lr, ip
e6306cc8:	1a00000f 	bne	e6306d0c <reg_ddrphy_read+0xc8>
e6306ccc:	e793c300 	ldr	ip, [r3, r0, lsl #6]
e6306cd0:	e381c902 	orr	ip, r1, #32768	; 0x8000
e6306cd4:	e783c300 	str	ip, [r3, r0, lsl #6]
e6306cd8:	e592e000 	ldr	lr, [r2]
e6306cdc:	e151000e 	cmp	r1, lr
e6306ce0:	1a00000b 	bne	e6306d14 <reg_ddrphy_read+0xd0>
e6306ce4:	f57ff04f 	dsb	sy
e6306ce8:	e783c300 	str	ip, [r3, r0, lsl #6]
e6306cec:	e5923000 	ldr	r3, [r2]
e6306cf0:	e1510003 	cmp	r1, r3
e6306cf4:	1a000008 	bne	e6306d1c <reg_ddrphy_read+0xd8>
e6306cf8:	f57ff04f 	dsb	sy
e6306cfc:	e59f3028 	ldr	r3, [pc, #40]	; e6306d2c <reg_ddrphy_read+0xe8>
e6306d00:	e7930300 	ldr	r0, [r3, r0, lsl #6]
e6306d04:	f57ff04f 	dsb	sy
e6306d08:	e49df004 	pop	{pc}		; (ldr pc, [sp], #4)
e6306d0c:	f57ff04f 	dsb	sy
e6306d10:	eaffffea 	b	e6306cc0 <reg_ddrphy_read+0x7c>
e6306d14:	f57ff04f 	dsb	sy
e6306d18:	eaffffee 	b	e6306cd8 <reg_ddrphy_read+0x94>
e6306d1c:	f57ff04f 	dsb	sy
e6306d20:	eafffff1 	b	e6306cec <reg_ddrphy_read+0xa8>
e6306d24:	eb022058 	.word	0xeb022058
e6306d28:	e6790624 	.word	0xe6790624
e6306d2c:	e6790628 	.word	0xe6790628
e6306d30:	eb022da8 	.word	0xeb022da8

e6306d34 <ddrphy_regif_idle>:
e6306d34:	e92d4010 	push	{r4, lr}
e6306d38:	e3a00fff 	mov	r0, #1020	; 0x3fc
e6306d3c:	ebffff46 	bl	e6306a5c <ddr_regdef_adr>
e6306d40:	e1a01000 	mov	r1, r0
e6306d44:	e3a00000 	mov	r0, #0
e6306d48:	ebffffbd 	bl	e6306c44 <reg_ddrphy_read>
e6306d4c:	f57ff04f 	dsb	sy
e6306d50:	e8bd8010 	pop	{r4, pc}

e6306d54 <reg_ddrphy_write>:
e6306d54:	e92d4030 	push	{r4, r5, lr}
e6306d58:	e59f40d4 	ldr	r4, [pc, #212]	; e6306e34 <reg_ddrphy_write+0xe0>
e6306d5c:	e1a0e300 	lsl	lr, r0, #6
e6306d60:	e59f30d0 	ldr	r3, [pc, #208]	; e6306e38 <reg_ddrphy_write+0xe4>
e6306d64:	e5944000 	ldr	r4, [r4]
e6306d68:	e08ec003 	add	ip, lr, r3
e6306d6c:	e7831300 	str	r1, [r3, r0, lsl #6]
e6306d70:	e2444c55 	sub	r4, r4, #21760	; 0x5500
e6306d74:	e3d44c01 	bics	r4, r4, #256	; 0x100
e6306d78:	0a000016 	beq	e6306dd8 <reg_ddrphy_write+0x84>
e6306d7c:	f57ff04f 	dsb	sy
e6306d80:	e59f10b4 	ldr	r1, [pc, #180]	; e6306e3c <reg_ddrphy_write+0xe8>
e6306d84:	e3a03000 	mov	r3, #0
e6306d88:	e1a04001 	mov	r4, r1
e6306d8c:	e5915000 	ldr	r5, [r1]
e6306d90:	e1550003 	cmp	r5, r3
e6306d94:	8a00000b 	bhi	e6306dc8 <reg_ddrphy_write+0x74>
e6306d98:	e59f30a0 	ldr	r3, [pc, #160]	; e6306e40 <reg_ddrphy_write+0xec>
e6306d9c:	e7832300 	str	r2, [r3, r0, lsl #6]
e6306da0:	e08ee003 	add	lr, lr, r3
e6306da4:	f57ff04f 	dsb	sy
e6306da8:	e3a03000 	mov	r3, #0
e6306dac:	e5942000 	ldr	r2, [r4]
e6306db0:	e1520003 	cmp	r2, r3
e6306db4:	98bd8030 	popls	{r4, r5, pc}
e6306db8:	e59e2000 	ldr	r2, [lr]
e6306dbc:	f57ff04f 	dsb	sy
e6306dc0:	e2833001 	add	r3, r3, #1
e6306dc4:	eafffff8 	b	e6306dac <reg_ddrphy_write+0x58>
e6306dc8:	e59c5000 	ldr	r5, [ip]
e6306dcc:	f57ff04f 	dsb	sy
e6306dd0:	e2833001 	add	r3, r3, #1
e6306dd4:	eaffffec 	b	e6306d8c <reg_ddrphy_write+0x38>
e6306dd8:	f57ff04f 	dsb	sy
e6306ddc:	e59ce000 	ldr	lr, [ip]
e6306de0:	e151000e 	cmp	r1, lr
e6306de4:	1afffffb 	bne	e6306dd8 <reg_ddrphy_write+0x84>
e6306de8:	f57ff04f 	dsb	sy
e6306dec:	e59fe04c 	ldr	lr, [pc, #76]	; e6306e40 <reg_ddrphy_write+0xec>
e6306df0:	e78e2300 	str	r2, [lr, r0, lsl #6]
e6306df4:	f57ff04f 	dsb	sy
e6306df8:	e3812902 	orr	r2, r1, #32768	; 0x8000
e6306dfc:	e59ce000 	ldr	lr, [ip]
e6306e00:	e15e0002 	cmp	lr, r2
e6306e04:	1a000006 	bne	e6306e24 <reg_ddrphy_write+0xd0>
e6306e08:	e7832300 	str	r2, [r3, r0, lsl #6]
e6306e0c:	e59c2000 	ldr	r2, [ip]
e6306e10:	e1510002 	cmp	r1, r2
e6306e14:	1a000004 	bne	e6306e2c <reg_ddrphy_write+0xd8>
e6306e18:	f57ff04f 	dsb	sy
e6306e1c:	e7831300 	str	r1, [r3, r0, lsl #6]
e6306e20:	e8bd8030 	pop	{r4, r5, pc}
e6306e24:	f57ff04f 	dsb	sy
e6306e28:	eafffff3 	b	e6306dfc <reg_ddrphy_write+0xa8>
e6306e2c:	f57ff04f 	dsb	sy
e6306e30:	eafffff5 	b	e6306e0c <reg_ddrphy_write+0xb8>
e6306e34:	eb022058 	.word	0xeb022058
e6306e38:	e6790624 	.word	0xe6790624
e6306e3c:	eb022da8 	.word	0xeb022da8
e6306e40:	e6790628 	.word	0xe6790628

e6306e44 <ddr_setval_s>:
e6306e44:	e92d41f0 	push	{r4, r5, r6, r7, r8, lr}
e6306e48:	e1a06003 	mov	r6, r3
e6306e4c:	e3e04000 	mvn	r4, #0
e6306e50:	e59f3048 	ldr	r3, [pc, #72]	; e6306ea0 <ddr_setval_s+0x5c>
e6306e54:	e1a01381 	lsl	r1, r1, #7
e6306e58:	e1a07000 	mov	r7, r0
e6306e5c:	e5933000 	ldr	r3, [r3]
e6306e60:	e7932102 	ldr	r2, [r3, r2, lsl #2]
e6306e64:	e7e73852 	ubfx	r3, r2, #16, #8
e6306e68:	e3530020 	cmp	r3, #32
e6306e6c:	e6f18072 	uxtah	r8, r1, r2
e6306e70:	11e04314 	mvnne	r4, r4, lsl r3
e6306e74:	e1a01008 	mov	r1, r8
e6306e78:	e1a05c22 	lsr	r5, r2, #24
e6306e7c:	11a04514 	lslne	r4, r4, r5
e6306e80:	ebffff6f 	bl	e6306c44 <reg_ddrphy_read>
e6306e84:	e1a01008 	mov	r1, r8
e6306e88:	e0205516 	eor	r5, r0, r6, lsl r5
e6306e8c:	e0044005 	and	r4, r4, r5
e6306e90:	e0242000 	eor	r2, r4, r0
e6306e94:	e1a00007 	mov	r0, r7
e6306e98:	e8bd41f0 	pop	{r4, r5, r6, r7, r8, lr}
e6306e9c:	eaffffac 	b	e6306d54 <reg_ddrphy_write>
e6306ea0:	eb022db0 	.word	0xeb022db0

e6306ea4 <ddr_setval>:
e6306ea4:	e1a03002 	mov	r3, r2
e6306ea8:	e1a02001 	mov	r2, r1
e6306eac:	e3a01000 	mov	r1, #0
e6306eb0:	eaffffe3 	b	e6306e44 <ddr_setval_s>

e6306eb4 <ddr_setval_ach_s>:
e6306eb4:	e92d41f0 	push	{r4, r5, r6, r7, r8, lr}
e6306eb8:	e1a05000 	mov	r5, r0
e6306ebc:	e1a06001 	mov	r6, r1
e6306ec0:	e1a07002 	mov	r7, r2
e6306ec4:	e3a00000 	mov	r0, #0
e6306ec8:	ebfffe13 	bl	e630671c <vch_nxt>
e6306ecc:	e1a04000 	mov	r4, r0
e6306ed0:	e3500003 	cmp	r0, #3
e6306ed4:	88bd81f0 	pophi	{r4, r5, r6, r7, r8, pc}
e6306ed8:	e1a00004 	mov	r0, r4
e6306edc:	e1a03007 	mov	r3, r7
e6306ee0:	e1a02006 	mov	r2, r6
e6306ee4:	e1a01005 	mov	r1, r5
e6306ee8:	ebffffd5 	bl	e6306e44 <ddr_setval_s>
e6306eec:	e2840001 	add	r0, r4, #1
e6306ef0:	eafffff4 	b	e6306ec8 <ddr_setval_ach_s+0x14>

e6306ef4 <ddr_setval_ach>:
e6306ef4:	e1a02001 	mov	r2, r1
e6306ef8:	e1a01000 	mov	r1, r0
e6306efc:	e3a00000 	mov	r0, #0
e6306f00:	eaffffeb 	b	e6306eb4 <ddr_setval_ach_s>

e6306f04 <update_dly>:
e6306f04:	e92d4010 	push	{r4, lr}
e6306f08:	e3a01001 	mov	r1, #1
e6306f0c:	e300013e 	movw	r0, #318	; 0x13e
e6306f10:	ebfffff7 	bl	e6306ef4 <ddr_setval_ach>
e6306f14:	e3a01001 	mov	r1, #1
e6306f18:	e3a00d07 	mov	r0, #448	; 0x1c0
e6306f1c:	e8bd4010 	pop	{r4, lr}
e6306f20:	eafffff3 	b	e6306ef4 <ddr_setval_ach>

e6306f24 <ddr_setval_ach_as>:
e6306f24:	e92d4070 	push	{r4, r5, r6, lr}
e6306f28:	e1a05000 	mov	r5, r0
e6306f2c:	e1a06001 	mov	r6, r1
e6306f30:	e3a04000 	mov	r4, #0
e6306f34:	e1a00004 	mov	r0, r4
e6306f38:	e1a02006 	mov	r2, r6
e6306f3c:	e1a01005 	mov	r1, r5
e6306f40:	e2844001 	add	r4, r4, #1
e6306f44:	ebffffda 	bl	e6306eb4 <ddr_setval_ach_s>
e6306f48:	e3540004 	cmp	r4, #4
e6306f4c:	1afffff8 	bne	e6306f34 <ddr_setval_ach_as+0x10>
e6306f50:	e8bd8070 	pop	{r4, r5, r6, pc}

e6306f54 <wdqdm_cp>:
e6306f54:	e92d4ff0 	push	{r4, r5, r6, r7, r8, r9, sl, fp, lr}
e6306f58:	e1a0b001 	mov	fp, r1
e6306f5c:	e24dd014 	sub	sp, sp, #20
e6306f60:	e59fa110 	ldr	sl, [pc, #272]	; e6307078 <wdqdm_cp+0x124>
e6306f64:	e58d000c 	str	r0, [sp, #12]
e6306f68:	e3a00000 	mov	r0, #0
e6306f6c:	ebfffdea 	bl	e630671c <vch_nxt>
e6306f70:	e1a05000 	mov	r5, r0
e6306f74:	e3550003 	cmp	r5, #3
e6306f78:	8a00003c 	bhi	e6307070 <wdqdm_cp+0x11c>
e6306f7c:	e3a03001 	mov	r3, #1
e6306f80:	e3a08000 	mov	r8, #0
e6306f84:	e1a03513 	lsl	r3, r3, r5
e6306f88:	e58d3008 	str	r3, [sp, #8]
e6306f8c:	e3a03d12 	mov	r3, #1152	; 0x480
e6306f90:	e0030593 	mul	r3, r3, r5
e6306f94:	e083900a 	add	r9, r3, sl
e6306f98:	e58d3004 	str	r3, [sp, #4]
e6306f9c:	ea00002c 	b	e6307054 <wdqdm_cp+0x100>
e6306fa0:	e3a02018 	mov	r2, #24
e6306fa4:	e1a01006 	mov	r1, r6
e6306fa8:	e1a03008 	mov	r3, r8
e6306fac:	e1a00005 	mov	r0, r5
e6306fb0:	ebffffa3 	bl	e6306e44 <ddr_setval_s>
e6306fb4:	e59f30c0 	ldr	r3, [pc, #192]	; e630707c <wdqdm_cp+0x128>
e6306fb8:	e1a01006 	mov	r1, r6
e6306fbc:	e1a00005 	mov	r0, r5
e6306fc0:	e2877024 	add	r7, r7, #36	; 0x24
e6306fc4:	e5934004 	ldr	r4, [r3, #4]
e6306fc8:	e59d3008 	ldr	r3, [sp, #8]
e6306fcc:	e0134004 	ands	r4, r3, r4
e6306fd0:	159d300c 	ldrne	r3, [sp, #12]
e6306fd4:	12034001 	andne	r4, r3, #1
e6306fd8:	e35b0000 	cmp	fp, #0
e6306fdc:	03a03e12 	moveq	r3, #288	; 0x120
e6306fe0:	00020493 	muleq	r2, r3, r4
e6306fe4:	15173024 	ldrne	r3, [r7, #-36]	; 0xffffffdc
e6306fe8:	03a03024 	moveq	r3, #36	; 0x24
e6306fec:	00232693 	mlaeq	r3, r3, r6, r2
e6306ff0:	059d2004 	ldreq	r2, [sp, #4]
e6306ff4:	00833002 	addeq	r3, r3, r2
e6306ff8:	e3a020a8 	mov	r2, #168	; 0xa8
e6306ffc:	079a3003 	ldreq	r3, [sl, r3]
e6307000:	ebffff8f 	bl	e6306e44 <ddr_setval_s>
e6307004:	e1a01006 	mov	r1, r6
e6307008:	e1a00005 	mov	r0, r5
e630700c:	e35b0000 	cmp	fp, #0
e6307010:	03a03024 	moveq	r3, #36	; 0x24
e6307014:	059d2004 	ldreq	r2, [sp, #4]
e6307018:	15173014 	ldrne	r3, [r7, #-20]	; 0xffffffec
e630701c:	00232693 	mlaeq	r3, r3, r6, r2
e6307020:	03a02e12 	moveq	r2, #288	; 0x120
e6307024:	e2866001 	add	r6, r6, #1
e6307028:	00243492 	mlaeq	r4, r2, r4, r3
e630702c:	e3a020b0 	mov	r2, #176	; 0xb0
e6307030:	008a4004 	addeq	r4, sl, r4
e6307034:	05943010 	ldreq	r3, [r4, #16]
e6307038:	ebffff81 	bl	e6306e44 <ddr_setval_s>
e630703c:	e3560004 	cmp	r6, #4
e6307040:	1affffd6 	bne	e6306fa0 <wdqdm_cp+0x4c>
e6307044:	e3580001 	cmp	r8, #1
e6307048:	e2899e12 	add	r9, r9, #288	; 0x120
e630704c:	0a000003 	beq	e6307060 <wdqdm_cp+0x10c>
e6307050:	e3a08001 	mov	r8, #1
e6307054:	e1a07009 	mov	r7, r9
e6307058:	e3a06000 	mov	r6, #0
e630705c:	eaffffcf 	b	e6306fa0 <wdqdm_cp+0x4c>
e6307060:	e2850001 	add	r0, r5, #1
e6307064:	ebfffdac 	bl	e630671c <vch_nxt>
e6307068:	e1a05000 	mov	r5, r0
e630706c:	eaffffc0 	b	e6306f74 <wdqdm_cp+0x20>
e6307070:	e28dd014 	add	sp, sp, #20
e6307074:	e8bd8ff0 	pop	{r4, r5, r6, r7, r8, r9, sl, fp, pc}
e6307078:	eb022db4 	.word	0xeb022db4
e630707c:	eb022000 	.word	0xeb022000

e6307080 <reg_ddrphy_write_a>:
e6307080:	e92d41f0 	push	{r4, r5, r6, r7, r8, lr}
e6307084:	e1a05000 	mov	r5, r0
e6307088:	e3a00000 	mov	r0, #0
e630708c:	e1a06001 	mov	r6, r1
e6307090:	ebfffda1 	bl	e630671c <vch_nxt>
e6307094:	e59f30b0 	ldr	r3, [pc, #176]	; e630714c <reg_ddrphy_write_a+0xcc>
e6307098:	e5933000 	ldr	r3, [r3]
e630709c:	e2433c55 	sub	r3, r3, #21760	; 0x5500
e63070a0:	e3d33c01 	bics	r3, r3, #256	; 0x100
e63070a4:	e1a04000 	mov	r4, r0
e63070a8:	0a000024 	beq	e6307140 <reg_ddrphy_write_a+0xc0>
e63070ac:	e59f709c 	ldr	r7, [pc, #156]	; e6307150 <reg_ddrphy_write_a+0xd0>
e63070b0:	e3540003 	cmp	r4, #3
e63070b4:	9a00000e 	bls	e63070f4 <reg_ddrphy_write_a+0x74>
e63070b8:	e59f4094 	ldr	r4, [pc, #148]	; e6307154 <reg_ddrphy_write_a+0xd4>
e63070bc:	e3a00000 	mov	r0, #0
e63070c0:	ebfffd95 	bl	e630671c <vch_nxt>
e63070c4:	e3500003 	cmp	r0, #3
e63070c8:	9a00000f 	bls	e630710c <reg_ddrphy_write_a+0x8c>
e63070cc:	e59f1084 	ldr	r1, [pc, #132]	; e6307158 <reg_ddrphy_write_a+0xd8>
e63070d0:	e3a03000 	mov	r3, #0
e63070d4:	e59f0080 	ldr	r0, [pc, #128]	; e630715c <reg_ddrphy_write_a+0xdc>
e63070d8:	e5912000 	ldr	r2, [r1]
e63070dc:	e1530002 	cmp	r3, r2
e63070e0:	28bd81f0 	popcs	{r4, r5, r6, r7, r8, pc}
e63070e4:	e5902628 	ldr	r2, [r0, #1576]	; 0x628
e63070e8:	f57ff04f 	dsb	sy
e63070ec:	e2833001 	add	r3, r3, #1
e63070f0:	eafffff8 	b	e63070d8 <reg_ddrphy_write_a+0x58>
e63070f4:	e7875304 	str	r5, [r7, r4, lsl #6]
e63070f8:	f57ff04f 	dsb	sy
e63070fc:	e2840001 	add	r0, r4, #1
e6307100:	ebfffd85 	bl	e630671c <vch_nxt>
e6307104:	e1a04000 	mov	r4, r0
e6307108:	eaffffe8 	b	e63070b0 <reg_ddrphy_write_a+0x30>
e630710c:	e7846300 	str	r6, [r4, r0, lsl #6]
e6307110:	f57ff04f 	dsb	sy
e6307114:	e2800001 	add	r0, r0, #1
e6307118:	ebfffd7f 	bl	e630671c <vch_nxt>
e630711c:	eaffffe8 	b	e63070c4 <reg_ddrphy_write_a+0x44>
e6307120:	e1a02006 	mov	r2, r6
e6307124:	e1a01005 	mov	r1, r5
e6307128:	e1a00004 	mov	r0, r4
e630712c:	ebffff08 	bl	e6306d54 <reg_ddrphy_write>
e6307130:	f57ff04f 	dsb	sy
e6307134:	e2840001 	add	r0, r4, #1
e6307138:	ebfffd77 	bl	e630671c <vch_nxt>
e630713c:	e1a04000 	mov	r4, r0
e6307140:	e3540003 	cmp	r4, #3
e6307144:	9afffff5 	bls	e6307120 <reg_ddrphy_write_a+0xa0>
e6307148:	e8bd81f0 	pop	{r4, r5, r6, r7, r8, pc}
e630714c:	eb022058 	.word	0xeb022058
e6307150:	e6790624 	.word	0xe6790624
e6307154:	e6790628 	.word	0xe6790628
e6307158:	eb022da8 	.word	0xeb022da8
e630715c:	e6790000 	.word	0xe6790000

e6307160 <_rx_offset_cal_updn>:
e6307160:	e59f3064 	ldr	r3, [pc, #100]	; e63071cc <_rx_offset_cal_updn+0x6c>
e6307164:	e5933000 	ldr	r3, [r3]
e6307168:	e3530c4f 	cmp	r3, #20224	; 0x4f00
e630716c:	1a00000f 	bne	e63071b0 <_rx_offset_cal_updn+0x50>
e6307170:	e59f3058 	ldr	r3, [pc, #88]	; e63071d0 <_rx_offset_cal_updn+0x70>
e6307174:	e5933000 	ldr	r3, [r3]
e6307178:	e3530001 	cmp	r3, #1
e630717c:	8a00000b 	bhi	e63071b0 <_rx_offset_cal_updn+0x50>
e6307180:	e3500000 	cmp	r0, #0
e6307184:	0a00000e 	beq	e63071c4 <_rx_offset_cal_updn+0x64>
e6307188:	e3500020 	cmp	r0, #32
e630718c:	93e03001 	mvnls	r3, #1
e6307190:	90000093 	mulls	r0, r3, r0
e6307194:	91e00000 	mvnls	r0, r0
e6307198:	91a00300 	lslls	r0, r0, #6
e630719c:	9380003f 	orrls	r0, r0, #63	; 0x3f
e63071a0:	81a00080 	lslhi	r0, r0, #1
e63071a4:	8260007f 	rsbhi	r0, r0, #127	; 0x7f
e63071a8:	83800d3f 	orrhi	r0, r0, #4032	; 0xfc0
e63071ac:	e12fff1e 	bx	lr
e63071b0:	e3500000 	cmp	r0, #0
e63071b4:	0a000002 	beq	e63071c4 <_rx_offset_cal_updn+0x64>
e63071b8:	e2603040 	rsb	r3, r0, #64	; 0x40
e63071bc:	e1830300 	orr	r0, r3, r0, lsl #6
e63071c0:	e12fff1e 	bx	lr
e63071c4:	e3a0007f 	mov	r0, #127	; 0x7f
e63071c8:	e12fff1e 	bx	lr
e63071cc:	eb022058 	.word	0xeb022058
e63071d0:	eb022054 	.word	0xeb022054

e63071d4 <pll3_freq.part.5>:
e63071d4:	e92d4070 	push	{r4, r5, r6, lr}
e63071d8:	e1a04000 	mov	r4, r0
e63071dc:	ebfffd58 	bl	e6306744 <pll3_control>
e63071e0:	e59f30b4 	ldr	r3, [pc, #180]	; e630729c <pll3_freq.part.5+0xc8>
e63071e4:	e3a00000 	mov	r0, #0
e63071e8:	e5933000 	ldr	r3, [r3]
e63071ec:	e3530c4f 	cmp	r3, #20224	; 0x4f00
e63071f0:	1a00001d 	bne	e630726c <pll3_freq.part.5+0x98>
e63071f4:	e59f30a4 	ldr	r3, [pc, #164]	; e63072a0 <pll3_freq.part.5+0xcc>
e63071f8:	e5933000 	ldr	r3, [r3]
e63071fc:	e3530001 	cmp	r3, #1
e6307200:	8a000019 	bhi	e630726c <pll3_freq.part.5+0x98>
e6307204:	ebfffd44 	bl	e630671c <vch_nxt>
e6307208:	e59f5094 	ldr	r5, [pc, #148]	; e63072a4 <pll3_freq.part.5+0xd0>
e630720c:	e3500003 	cmp	r0, #3
e6307210:	9a00000e 	bls	e6307250 <pll3_freq.part.5+0x7c>
e6307214:	f57ff04f 	dsb	sy
e6307218:	e3a00001 	mov	r0, #1
e630721c:	ebfffe79 	bl	e6306c08 <set_freqchgack>
e6307220:	e3a00000 	mov	r0, #0
e6307224:	ebfffe3f 	bl	e6306b28 <wait_freqchgreq>
e6307228:	e1a04000 	mov	r4, r0
e630722c:	e3a00000 	mov	r0, #0
e6307230:	ebfffe74 	bl	e6306c08 <set_freqchgack>
e6307234:	e3540000 	cmp	r4, #0
e6307238:	0a000002 	beq	e6307248 <pll3_freq.part.5+0x74>
e630723c:	e59f0064 	ldr	r0, [pc, #100]	; e63072a8 <pll3_freq.part.5+0xd4>
e6307240:	e3a04001 	mov	r4, #1
e6307244:	eb001385 	bl	e630c060 <__tf_printf_veneer>
e6307248:	e1a00004 	mov	r0, r4
e630724c:	e8bd8070 	pop	{r4, r5, r6, pc}
e6307250:	e7953300 	ldr	r3, [r5, r0, lsl #6]
e6307254:	e3c3301f 	bic	r3, r3, #31
e6307258:	e1833004 	orr	r3, r3, r4
e630725c:	e7853300 	str	r3, [r5, r0, lsl #6]
e6307260:	e2800001 	add	r0, r0, #1
e6307264:	ebfffd2c 	bl	e630671c <vch_nxt>
e6307268:	eaffffe7 	b	e630720c <pll3_freq.part.5+0x38>
e630726c:	ebfffd2a 	bl	e630671c <vch_nxt>
e6307270:	e59f5034 	ldr	r5, [pc, #52]	; e63072ac <pll3_freq.part.5+0xd8>
e6307274:	e1a04c04 	lsl	r4, r4, #24
e6307278:	e3500003 	cmp	r0, #3
e630727c:	8affffe4 	bhi	e6307214 <pll3_freq.part.5+0x40>
e6307280:	e7953300 	ldr	r3, [r5, r0, lsl #6]
e6307284:	e3c3341f 	bic	r3, r3, #520093696	; 0x1f000000
e6307288:	e1833004 	orr	r3, r3, r4
e630728c:	e7853300 	str	r3, [r5, r0, lsl #6]
e6307290:	e2800001 	add	r0, r0, #1
e6307294:	ebfffd20 	bl	e630671c <vch_nxt>
e6307298:	eafffff6 	b	e6307278 <pll3_freq.part.5+0xa4>
e630729c:	eb022058 	.word	0xeb022058
e63072a0:	eb022054 	.word	0xeb022054
e63072a4:	e6790614 	.word	0xe6790614
e63072a8:	e631664e 	.word	0xe631664e
e63072ac:	e6790604 	.word	0xe6790604

e63072b0 <ddrtbl_getval>:
e63072b0:	e59f3034 	ldr	r3, [pc, #52]	; e63072ec <ddrtbl_getval+0x3c>
e63072b4:	e5933000 	ldr	r3, [r3]
e63072b8:	e7932101 	ldr	r2, [r3, r1, lsl #2]
e63072bc:	e3e03000 	mvn	r3, #0
e63072c0:	e7e71852 	ubfx	r1, r2, #16, #8
e63072c4:	e3510020 	cmp	r1, #32
e63072c8:	11e03113 	mvnne	r3, r3, lsl r1
e63072cc:	e3120b3f 	tst	r2, #64512	; 0xfc00
e63072d0:	13a0107f 	movne	r1, #127	; 0x7f
e63072d4:	03a010ff 	moveq	r1, #255	; 0xff
e63072d8:	e1a0cc22 	lsr	ip, r2, #24
e63072dc:	e0022001 	and	r2, r2, r1
e63072e0:	e7900102 	ldr	r0, [r0, r2, lsl #2]
e63072e4:	e0030c30 	and	r0, r3, r0, lsr ip
e63072e8:	e12fff1e 	bx	lr
e63072ec:	eb022db0 	.word	0xeb022db0

e63072f0 <ddrtbl_setval>:
e63072f0:	e59f3048 	ldr	r3, [pc, #72]	; e6307340 <ddrtbl_setval+0x50>
e63072f4:	e52de004 	push	{lr}		; (str lr, [sp, #-4]!)
e63072f8:	e5933000 	ldr	r3, [r3]
e63072fc:	e793c101 	ldr	ip, [r3, r1, lsl #2]
e6307300:	e3e03000 	mvn	r3, #0
e6307304:	e7e7185c 	ubfx	r1, ip, #16, #8
e6307308:	e3510020 	cmp	r1, #32
e630730c:	11e03113 	mvnne	r3, r3, lsl r1
e6307310:	e1a0ec2c 	lsr	lr, ip, #24
e6307314:	11a03e13 	lslne	r3, r3, lr
e6307318:	e31c0b3f 	tst	ip, #64512	; 0xfc00
e630731c:	13a0107f 	movne	r1, #127	; 0x7f
e6307320:	03a010ff 	moveq	r1, #255	; 0xff
e6307324:	e001100c 	and	r1, r1, ip
e6307328:	e790c101 	ldr	ip, [r0, r1, lsl #2]
e630732c:	e02c2e12 	eor	r2, ip, r2, lsl lr
e6307330:	e0022003 	and	r2, r2, r3
e6307334:	e022200c 	eor	r2, r2, ip
e6307338:	e7802101 	str	r2, [r0, r1, lsl #2]
e630733c:	e49df004 	pop	{pc}		; (ldr pc, [sp], #4)
e6307340:	eb022db0 	.word	0xeb022db0

e6307344 <ddr_config>:
e6307344:	e92d4ff0 	push	{r4, r5, r6, r7, r8, r9, sl, fp, lr}
e6307348:	e3a00000 	mov	r0, #0
e630734c:	e24dd01c 	sub	sp, sp, #28
e6307350:	ebfffcf1 	bl	e630671c <vch_nxt>
e6307354:	e59f5974 	ldr	r5, [pc, #2420]	; e6307cd0 <ddr_config+0x98c>
e6307358:	e58d5000 	str	r5, [sp]
e630735c:	e5956000 	ldr	r6, [r5]
e6307360:	e3560c4f 	cmp	r6, #20224	; 0x4f00
e6307364:	e1a04000 	mov	r4, r0
e6307368:	1a000004 	bne	e6307380 <ddr_config+0x3c>
e630736c:	e59f3960 	ldr	r3, [pc, #2400]	; e6307cd4 <ddr_config+0x990>
e6307370:	e5933000 	ldr	r3, [r3]
e6307374:	e3530001 	cmp	r3, #1
e6307378:	93a090a0 	movls	r9, #160	; 0xa0
e630737c:	9a00008b 	bls	e63075b0 <ddr_config+0x26c>
e6307380:	e59fb950 	ldr	fp, [pc, #2384]	; e6307cd8 <ddr_config+0x994>
e6307384:	ea000133 	b	e6307858 <ddr_config+0x514>
e6307388:	e0030499 	mul	r3, r9, r4
e630738c:	e3a08000 	mov	r8, #0
e6307390:	e28da008 	add	sl, sp, #8
e6307394:	e1a0b00a 	mov	fp, sl
e6307398:	e1a06008 	mov	r6, r8
e630739c:	e58d3000 	str	r3, [sp]
e63073a0:	e3a03028 	mov	r3, #40	; 0x28
e63073a4:	e0030493 	mul	r3, r3, r4
e63073a8:	e58d3004 	str	r3, [sp, #4]
e63073ac:	e59f3928 	ldr	r3, [pc, #2344]	; e6307cdc <ddr_config+0x998>
e63073b0:	e3560001 	cmp	r6, #1
e63073b4:	e5935000 	ldr	r5, [r3]
e63073b8:	e59d3000 	ldr	r3, [sp]
e63073bc:	e0853003 	add	r3, r5, r3
e63073c0:	e1d372b0 	ldrh	r7, [r3, #32]
e63073c4:	e1a03106 	lsl	r3, r6, #2
e63073c8:	e1a07357 	asr	r7, r7, r3
e63073cc:	93a03000 	movls	r3, #0
e63073d0:	e207200f 	and	r2, r7, #15
e63073d4:	83a03001 	movhi	r3, #1
e63073d8:	e2077001 	and	r7, r7, #1
e63073dc:	e3520001 	cmp	r2, #1
e63073e0:	13a01000 	movne	r1, #0
e63073e4:	02031001 	andeq	r1, r3, #1
e63073e8:	e4cb7001 	strb	r7, [fp], #1
e63073ec:	e3510000 	cmp	r1, #0
e63073f0:	13888005 	orrne	r8, r8, #5
e63073f4:	1a000004 	bne	e630740c <ddr_config+0xc8>
e63073f8:	e3520003 	cmp	r2, #3
e63073fc:	13a03000 	movne	r3, #0
e6307400:	02033001 	andeq	r3, r3, #1
e6307404:	e3530000 	cmp	r3, #0
e6307408:	13888050 	orrne	r8, r8, #80	; 0x50
e630740c:	e59d3004 	ldr	r3, [sp, #4]
e6307410:	e1a01006 	mov	r1, r6
e6307414:	e3a0205e 	mov	r2, #94	; 0x5e
e6307418:	e1a00004 	mov	r0, r4
e630741c:	e0833006 	add	r3, r3, r6
e6307420:	e0853103 	add	r3, r5, r3, lsl #2
e6307424:	e5933024 	ldr	r3, [r3, #36]	; 0x24
e6307428:	ebfffe85 	bl	e6306e44 <ddr_setval_s>
e630742c:	e1a01006 	mov	r1, r6
e6307430:	e3a0205f 	mov	r2, #95	; 0x5f
e6307434:	e3570000 	cmp	r7, #0
e6307438:	13a03000 	movne	r3, #0
e630743c:	03a03001 	moveq	r3, #1
e6307440:	e1a00004 	mov	r0, r4
e6307444:	e2866001 	add	r6, r6, #1
e6307448:	ebfffe7d 	bl	e6306e44 <ddr_setval_s>
e630744c:	e3560004 	cmp	r6, #4
e6307450:	1affffd5 	bne	e63073ac <ddr_config+0x68>
e6307454:	e0265499 	mla	r6, r9, r4, r5
e6307458:	e300111f 	movw	r1, #287	; 0x11f
e630745c:	e1a00004 	mov	r0, r4
e6307460:	e5962018 	ldr	r2, [r6, #24]
e6307464:	e3c224ff 	bic	r2, r2, #-16777216	; 0xff000000
e6307468:	ebfffe8d 	bl	e6306ea4 <ddr_setval>
e630746c:	e300114e 	movw	r1, #334	; 0x14e
e6307470:	e1a02008 	mov	r2, r8
e6307474:	e1a00004 	mov	r0, r4
e6307478:	ebfffe89 	bl	e6306ea4 <ddr_setval>
e630747c:	e3a03000 	mov	r3, #0
e6307480:	e1d612b0 	ldrh	r1, [r6, #32]
e6307484:	e1a02103 	lsl	r2, r3, #2
e6307488:	e1a02251 	asr	r2, r1, r2
e630748c:	e202200f 	and	r2, r2, #15
e6307490:	e3520001 	cmp	r2, #1
e6307494:	0a000002 	beq	e63074a4 <ddr_config+0x160>
e6307498:	e2833001 	add	r3, r3, #1
e630749c:	e3530004 	cmp	r3, #4
e63074a0:	1afffff7 	bne	e6307484 <ddr_config+0x140>
e63074a4:	e0225499 	mla	r2, r9, r4, r5
e63074a8:	e3001107 	movw	r1, #263	; 0x107
e63074ac:	e3130001 	tst	r3, #1
e63074b0:	e1a00004 	mov	r0, r4
e63074b4:	e3a06000 	mov	r6, #0
e63074b8:	e0255499 	mla	r5, r9, r4, r5
e63074bc:	e5922018 	ldr	r2, [r2, #24]
e63074c0:	e3a07001 	mov	r7, #1
e63074c4:	e2855024 	add	r5, r5, #36	; 0x24
e63074c8:	e3c224ff 	bic	r2, r2, #-16777216	; 0xff000000
e63074cc:	13822722 	orrne	r2, r2, #8912896	; 0x880000
e63074d0:	13822b22 	orrne	r2, r2, #34816	; 0x8800
e63074d4:	13822088 	orrne	r2, r2, #136	; 0x88
e63074d8:	ebfffe71 	bl	e6306ea4 <ddr_setval>
e63074dc:	e3a02000 	mov	r2, #0
e63074e0:	e3a01f42 	mov	r1, #264	; 0x108
e63074e4:	e1a00004 	mov	r0, r4
e63074e8:	ebfffe6d 	bl	e6306ea4 <ddr_setval>
e63074ec:	e3a02000 	mov	r2, #0
e63074f0:	e3001109 	movw	r1, #265	; 0x109
e63074f4:	e1a00004 	mov	r0, r4
e63074f8:	ebfffe69 	bl	e6306ea4 <ddr_setval>
e63074fc:	e3a02000 	mov	r2, #0
e6307500:	e300110a 	movw	r1, #266	; 0x10a
e6307504:	e1a00004 	mov	r0, r4
e6307508:	ebfffe65 	bl	e6306ea4 <ddr_setval>
e630750c:	e3a02001 	mov	r2, #1
e6307510:	e300110b 	movw	r1, #267	; 0x10b
e6307514:	e1a00004 	mov	r0, r4
e6307518:	ebfffe61 	bl	e6306ea4 <ddr_setval>
e630751c:	e3a03001 	mov	r3, #1
e6307520:	e3a02fb1 	mov	r2, #708	; 0x2c4
e6307524:	e1a01006 	mov	r1, r6
e6307528:	e1a00004 	mov	r0, r4
e630752c:	ebfffe44 	bl	e6306e44 <ddr_setval_s>
e6307530:	e3a03008 	mov	r3, #8
e6307534:	e1a01006 	mov	r1, r6
e6307538:	e1a00004 	mov	r0, r4
e630753c:	e30022c3 	movw	r2, #707	; 0x2c3
e6307540:	ebfffe3f 	bl	e6306e44 <ddr_setval_s>
e6307544:	e495c004 	ldr	ip, [r5], #4
e6307548:	e3a03000 	mov	r3, #0
e630754c:	e4da0001 	ldrb	r0, [sl], #1
e6307550:	e1a01003 	mov	r1, r3
e6307554:	e1a02101 	lsl	r2, r1, #2
e6307558:	e1a0223c 	lsr	r2, ip, r2
e630755c:	e202200f 	and	r2, r2, #15
e6307560:	e1a02217 	lsl	r2, r7, r2
e6307564:	e3120055 	tst	r2, #85	; 0x55
e6307568:	11833117 	orrne	r3, r3, r7, lsl r1
e630756c:	e2811001 	add	r1, r1, #1
e6307570:	e3510008 	cmp	r1, #8
e6307574:	1afffff6 	bne	e6307554 <ddr_config+0x210>
e6307578:	e3052a3c 	movw	r2, #23100	; 0x5a3c
e630757c:	e3500000 	cmp	r0, #0
e6307580:	11823803 	orrne	r3, r2, r3, lsl #16
e6307584:	e1a01006 	mov	r1, r6
e6307588:	01823c03 	orreq	r3, r2, r3, lsl #24
e630758c:	e1a00004 	mov	r0, r4
e6307590:	e3a02037 	mov	r2, #55	; 0x37
e6307594:	e2866001 	add	r6, r6, #1
e6307598:	ebfffe29 	bl	e6306e44 <ddr_setval_s>
e630759c:	e3560004 	cmp	r6, #4
e63075a0:	1affffdd 	bne	e630751c <ddr_config+0x1d8>
e63075a4:	e2840001 	add	r0, r4, #1
e63075a8:	ebfffc5b 	bl	e630671c <vch_nxt>
e63075ac:	e1a04000 	mov	r4, r0
e63075b0:	e3540003 	cmp	r4, #3
e63075b4:	9affff73 	bls	e6307388 <ddr_config+0x44>
e63075b8:	e3a00000 	mov	r0, #0
e63075bc:	e3a08001 	mov	r8, #1
e63075c0:	ebfffc55 	bl	e630671c <vch_nxt>
e63075c4:	e1a04000 	mov	r4, r0
e63075c8:	e3540003 	cmp	r4, #3
e63075cc:	8a000103 	bhi	e63079e0 <ddr_config+0x69c>
e63075d0:	e3a070a0 	mov	r7, #160	; 0xa0
e63075d4:	e3a05000 	mov	r5, #0
e63075d8:	e0070497 	mul	r7, r7, r4
e63075dc:	e2877038 	add	r7, r7, #56	; 0x38
e63075e0:	ea0000f3 	b	e63079b4 <ddr_config+0x670>
e63075e4:	e3a090a0 	mov	r9, #160	; 0xa0
e63075e8:	e3a0a028 	mov	sl, #40	; 0x28
e63075ec:	e3a05000 	mov	r5, #0
e63075f0:	e0090499 	mul	r9, r9, r4
e63075f4:	e00a049a 	mul	sl, sl, r4
e63075f8:	e59f36dc 	ldr	r3, [pc, #1756]	; e6307cdc <ddr_config+0x998>
e63075fc:	e1a01005 	mov	r1, r5
e6307600:	e3a02000 	mov	r2, #0
e6307604:	e1a00004 	mov	r0, r4
e6307608:	e5936000 	ldr	r6, [r3]
e630760c:	e1a03105 	lsl	r3, r5, #2
e6307610:	e0868009 	add	r8, r6, r9
e6307614:	e1d872b0 	ldrh	r7, [r8, #32]
e6307618:	e1a07357 	asr	r7, r7, r3
e630761c:	e08a3005 	add	r3, sl, r5
e6307620:	e0888005 	add	r8, r8, r5
e6307624:	e0863103 	add	r3, r6, r3, lsl #2
e6307628:	e2077001 	and	r7, r7, #1
e630762c:	e5933024 	ldr	r3, [r3, #36]	; 0x24
e6307630:	ebfffe03 	bl	e6306e44 <ddr_setval_s>
e6307634:	e5d83034 	ldrb	r3, [r8, #52]	; 0x34
e6307638:	e1a01005 	mov	r1, r5
e630763c:	e3a02001 	mov	r2, #1
e6307640:	e1a00004 	mov	r0, r4
e6307644:	ebfffdfe 	bl	e6306e44 <ddr_setval_s>
e6307648:	e1a01005 	mov	r1, r5
e630764c:	e3a0205f 	mov	r2, #95	; 0x5f
e6307650:	e3570000 	cmp	r7, #0
e6307654:	13a03000 	movne	r3, #0
e6307658:	03a03001 	moveq	r3, #1
e630765c:	e1a00004 	mov	r0, r4
e6307660:	e2855001 	add	r5, r5, #1
e6307664:	ebfffdf6 	bl	e6306e44 <ddr_setval_s>
e6307668:	e3550004 	cmp	r5, #4
e630766c:	1affffe1 	bne	e63075f8 <ddr_config+0x2b4>
e6307670:	e3a030a0 	mov	r3, #160	; 0xa0
e6307674:	e0236493 	mla	r3, r3, r4, r6
e6307678:	e5935018 	ldr	r5, [r3, #24]
e630767c:	e59d3000 	ldr	r3, [sp]
e6307680:	e3c554ff 	bic	r5, r5, #-16777216	; 0xff000000
e6307684:	e3c55722 	bic	r5, r5, #8912896	; 0x880000
e6307688:	e5938000 	ldr	r8, [r3]
e630768c:	e3c55b22 	bic	r5, r5, #34816	; 0x8800
e6307690:	e3c55088 	bic	r5, r5, #136	; 0x88
e6307694:	e3580c52 	cmp	r8, #20992	; 0x5200
e6307698:	e185500b 	orr	r5, r5, fp
e630769c:	e1a02005 	mov	r2, r5
e63076a0:	1a00006f 	bne	e6307864 <ddr_config+0x520>
e63076a4:	e3001107 	movw	r1, #263	; 0x107
e63076a8:	e1a00004 	mov	r0, r4
e63076ac:	ebfffdfc 	bl	e6306ea4 <ddr_setval>
e63076b0:	e3a02000 	mov	r2, #0
e63076b4:	e3a01f42 	mov	r1, #264	; 0x108
e63076b8:	e1a00004 	mov	r0, r4
e63076bc:	ebfffdf8 	bl	e6306ea4 <ddr_setval>
e63076c0:	e1a02005 	mov	r2, r5
e63076c4:	e3001109 	movw	r1, #265	; 0x109
e63076c8:	e1a00004 	mov	r0, r4
e63076cc:	ebfffdf4 	bl	e6306ea4 <ddr_setval>
e63076d0:	e3a02000 	mov	r2, #0
e63076d4:	e300110a 	movw	r1, #266	; 0x10a
e63076d8:	e1a00004 	mov	r0, r4
e63076dc:	ebfffdf0 	bl	e6306ea4 <ddr_setval>
e63076e0:	e3a02001 	mov	r2, #1
e63076e4:	e300110b 	movw	r1, #267	; 0x10b
e63076e8:	e1a00004 	mov	r0, r4
e63076ec:	ebfffdec 	bl	e6306ea4 <ddr_setval>
e63076f0:	e3a030a0 	mov	r3, #160	; 0xa0
e63076f4:	e3580c4f 	cmp	r8, #20224	; 0x4f00
e63076f8:	e0236493 	mla	r3, r3, r4, r6
e63076fc:	e5931018 	ldr	r1, [r3, #24]
e6307700:	1a000004 	bne	e6307718 <ddr_config+0x3d4>
e6307704:	e59f35c8 	ldr	r3, [pc, #1480]	; e6307cd4 <ddr_config+0x990>
e6307708:	e5933000 	ldr	r3, [r3]
e630770c:	e3530001 	cmp	r3, #1
e6307710:	83c124ff 	bichi	r2, r1, #-16777216	; 0xff000000
e6307714:	8a000007 	bhi	e6307738 <ddr_config+0x3f4>
e6307718:	e3a03000 	mov	r3, #0
e630771c:	e1a02003 	mov	r2, r3
e6307720:	e201000f 	and	r0, r1, #15
e6307724:	e1a01221 	lsr	r1, r1, #4
e6307728:	e1822310 	orr	r2, r2, r0, lsl r3
e630772c:	e2833005 	add	r3, r3, #5
e6307730:	e353001e 	cmp	r3, #30
e6307734:	1afffff9 	bne	e6307720 <ddr_config+0x3dc>
e6307738:	e300111f 	movw	r1, #287	; 0x11f
e630773c:	e1a00004 	mov	r0, r4
e6307740:	ebfffdd7 	bl	e6306ea4 <ddr_setval>
e6307744:	e59f3594 	ldr	r3, [pc, #1428]	; e6307ce0 <ddr_config+0x99c>
e6307748:	e5939000 	ldr	r9, [r3]
e630774c:	e3590001 	cmp	r9, #1
e6307750:	1a00002d 	bne	e630780c <ddr_config+0x4c8>
e6307754:	e3a030a0 	mov	r3, #160	; 0xa0
e6307758:	e3580c52 	cmp	r8, #20992	; 0x5200
e630775c:	e59f7580 	ldr	r7, [pc, #1408]	; e6307ce4 <ddr_config+0x9a0>
e6307760:	e0236493 	mla	r3, r3, r4, r6
e6307764:	e593501c 	ldr	r5, [r3, #28]
e6307768:	e1a05425 	lsr	r5, r5, #8
e630776c:	e0057007 	and	r7, r5, r7
e6307770:	e187700b 	orr	r7, r7, fp
e6307774:	e1a03007 	mov	r3, r7
e6307778:	1a000043 	bne	e630788c <ddr_config+0x548>
e630777c:	e3002107 	movw	r2, #263	; 0x107
e6307780:	e3a01002 	mov	r1, #2
e6307784:	e1a00004 	mov	r0, r4
e6307788:	ebfffdad 	bl	e6306e44 <ddr_setval_s>
e630778c:	e3a03000 	mov	r3, #0
e6307790:	e3a02f42 	mov	r2, #264	; 0x108
e6307794:	e3a01002 	mov	r1, #2
e6307798:	e1a00004 	mov	r0, r4
e630779c:	ebfffda8 	bl	e6306e44 <ddr_setval_s>
e63077a0:	e1a03007 	mov	r3, r7
e63077a4:	e3002109 	movw	r2, #265	; 0x109
e63077a8:	e3a01002 	mov	r1, #2
e63077ac:	e1a00004 	mov	r0, r4
e63077b0:	ebfffda3 	bl	e6306e44 <ddr_setval_s>
e63077b4:	e3a03000 	mov	r3, #0
e63077b8:	e300210a 	movw	r2, #266	; 0x10a
e63077bc:	e3a01002 	mov	r1, #2
e63077c0:	e1a00004 	mov	r0, r4
e63077c4:	ebfffd9e 	bl	e6306e44 <ddr_setval_s>
e63077c8:	e1a03009 	mov	r3, r9
e63077cc:	e300210b 	movw	r2, #267	; 0x10b
e63077d0:	e3a01002 	mov	r1, #2
e63077d4:	e1a00004 	mov	r0, r4
e63077d8:	ebfffd99 	bl	e6306e44 <ddr_setval_s>
e63077dc:	e3a02000 	mov	r2, #0
e63077e0:	e1a03002 	mov	r3, r2
e63077e4:	e205100f 	and	r1, r5, #15
e63077e8:	e1a05225 	lsr	r5, r5, #4
e63077ec:	e1833211 	orr	r3, r3, r1, lsl r2
e63077f0:	e2822005 	add	r2, r2, #5
e63077f4:	e352001e 	cmp	r2, #30
e63077f8:	1afffff9 	bne	e63077e4 <ddr_config+0x4a0>
e63077fc:	e300211f 	movw	r2, #287	; 0x11f
e6307800:	e3a01002 	mov	r1, #2
e6307804:	e1a00004 	mov	r0, r4
e6307808:	ebfffd8d 	bl	e6306e44 <ddr_setval_s>
e630780c:	e3a030a0 	mov	r3, #160	; 0xa0
e6307810:	e3580c52 	cmp	r8, #20992	; 0x5200
e6307814:	e0266493 	mla	r6, r3, r4, r6
e6307818:	e1d652b0 	ldrh	r5, [r6, #32]
e630781c:	1a000026 	bne	e63078bc <ddr_config+0x578>
e6307820:	e3a03000 	mov	r3, #0
e6307824:	e1a02003 	mov	r2, r3
e6307828:	e2051003 	and	r1, r5, #3
e630782c:	e1a05225 	lsr	r5, r5, #4
e6307830:	e1822311 	orr	r2, r2, r1, lsl r3
e6307834:	e2833002 	add	r3, r3, #2
e6307838:	e3530008 	cmp	r3, #8
e630783c:	1afffff9 	bne	e6307828 <ddr_config+0x4e4>
e6307840:	e1a00004 	mov	r0, r4
e6307844:	e30011cd 	movw	r1, #461	; 0x1cd
e6307848:	ebfffd95 	bl	e6306ea4 <ddr_setval>
e630784c:	e2840001 	add	r0, r4, #1
e6307850:	ebfffbb1 	bl	e630671c <vch_nxt>
e6307854:	e1a04000 	mov	r4, r0
e6307858:	e3540003 	cmp	r4, #3
e630785c:	9affff60 	bls	e63075e4 <ddr_config+0x2a0>
e6307860:	eaffff54 	b	e63075b8 <ddr_config+0x274>
e6307864:	e3001105 	movw	r1, #261	; 0x105
e6307868:	e1a00004 	mov	r0, r4
e630786c:	ebfffd8c 	bl	e6306ea4 <ddr_setval>
e6307870:	e3a02000 	mov	r2, #0
e6307874:	e3001106 	movw	r1, #262	; 0x106
e6307878:	e1a00004 	mov	r0, r4
e630787c:	ebfffd88 	bl	e6306ea4 <ddr_setval>
e6307880:	e3a02001 	mov	r2, #1
e6307884:	e3a01e1d 	mov	r1, #464	; 0x1d0
e6307888:	eaffff96 	b	e63076e8 <ddr_config+0x3a4>
e630788c:	e3002105 	movw	r2, #261	; 0x105
e6307890:	e3a01002 	mov	r1, #2
e6307894:	e1a00004 	mov	r0, r4
e6307898:	ebfffd69 	bl	e6306e44 <ddr_setval_s>
e630789c:	e3a03000 	mov	r3, #0
e63078a0:	e3002106 	movw	r2, #262	; 0x106
e63078a4:	e3a01002 	mov	r1, #2
e63078a8:	e1a00004 	mov	r0, r4
e63078ac:	ebfffd64 	bl	e6306e44 <ddr_setval_s>
e63078b0:	e1a03009 	mov	r3, r9
e63078b4:	e3a02e1d 	mov	r2, #464	; 0x1d0
e63078b8:	eaffffc4 	b	e63077d0 <ddr_config+0x48c>
e63078bc:	e3a02001 	mov	r2, #1
e63078c0:	e3001422 	movw	r1, #1058	; 0x422
e63078c4:	e1a00004 	mov	r0, r4
e63078c8:	ebfffd75 	bl	e6306ea4 <ddr_setval>
e63078cc:	e3001423 	movw	r1, #1059	; 0x423
e63078d0:	e1a00004 	mov	r0, r4
e63078d4:	e205200f 	and	r2, r5, #15
e63078d8:	ebfffd71 	bl	e6306ea4 <ddr_setval>
e63078dc:	e3001424 	movw	r1, #1060	; 0x424
e63078e0:	e1a00004 	mov	r0, r4
e63078e4:	e7e32255 	ubfx	r2, r5, #4, #4
e63078e8:	ebfffd6d 	bl	e6306ea4 <ddr_setval>
e63078ec:	e3001425 	movw	r1, #1061	; 0x425
e63078f0:	e1a00004 	mov	r0, r4
e63078f4:	e7e32455 	ubfx	r2, r5, #8, #4
e63078f8:	ebfffd69 	bl	e6306ea4 <ddr_setval>
e63078fc:	e3001426 	movw	r1, #1062	; 0x426
e6307900:	e1a00004 	mov	r0, r4
e6307904:	e1a02625 	lsr	r2, r5, #12
e6307908:	ebfffd65 	bl	e6306ea4 <ddr_setval>
e630790c:	e3a02000 	mov	r2, #0
e6307910:	e30011ce 	movw	r1, #462	; 0x1ce
e6307914:	e1a00004 	mov	r0, r4
e6307918:	ebfffd61 	bl	e6306ea4 <ddr_setval>
e630791c:	e1a02005 	mov	r2, r5
e6307920:	eaffffc6 	b	e6307840 <ddr_config+0x4fc>
e6307924:	e0d200b2 	ldrh	r0, [r2], #2
e6307928:	e4c10001 	strb	r0, [r1], #1
e630792c:	e3100c01 	tst	r0, #256	; 0x100
e6307930:	11866318 	orrne	r6, r6, r8, lsl r3
e6307934:	e2833001 	add	r3, r3, #1
e6307938:	16ff6076 	uxthne	r6, r6
e630793c:	e3530010 	cmp	r3, #16
e6307940:	1afffff7 	bne	e6307924 <ddr_config+0x5e0>
e6307944:	e1a01005 	mov	r1, r5
e6307948:	e3a02059 	mov	r2, #89	; 0x59
e630794c:	e59d3008 	ldr	r3, [sp, #8]
e6307950:	e1a00004 	mov	r0, r4
e6307954:	ebfffd3a 	bl	e6306e44 <ddr_setval_s>
e6307958:	e1a01005 	mov	r1, r5
e630795c:	e59d300c 	ldr	r3, [sp, #12]
e6307960:	e3a0205a 	mov	r2, #90	; 0x5a
e6307964:	e1a00004 	mov	r0, r4
e6307968:	ebfffd35 	bl	e6306e44 <ddr_setval_s>
e630796c:	e1a01005 	mov	r1, r5
e6307970:	e59d3010 	ldr	r3, [sp, #16]
e6307974:	e3a0205b 	mov	r2, #91	; 0x5b
e6307978:	e1a00004 	mov	r0, r4
e630797c:	ebfffd30 	bl	e6306e44 <ddr_setval_s>
e6307980:	e1a01005 	mov	r1, r5
e6307984:	e59d3014 	ldr	r3, [sp, #20]
e6307988:	e3a0205c 	mov	r2, #92	; 0x5c
e630798c:	e1a00004 	mov	r0, r4
e6307990:	ebfffd2b 	bl	e6306e44 <ddr_setval_s>
e6307994:	e1a01005 	mov	r1, r5
e6307998:	e1a03006 	mov	r3, r6
e630799c:	e3a0205d 	mov	r2, #93	; 0x5d
e63079a0:	e1a00004 	mov	r0, r4
e63079a4:	e2855001 	add	r5, r5, #1
e63079a8:	ebfffd25 	bl	e6306e44 <ddr_setval_s>
e63079ac:	e3550004 	cmp	r5, #4
e63079b0:	0a000006 	beq	e63079d0 <ddr_config+0x68c>
e63079b4:	e59f3320 	ldr	r3, [pc, #800]	; e6307cdc <ddr_config+0x998>
e63079b8:	e3a06000 	mov	r6, #0
e63079bc:	e28d1008 	add	r1, sp, #8
e63079c0:	e5932000 	ldr	r2, [r3]
e63079c4:	e1a03006 	mov	r3, r6
e63079c8:	e0822007 	add	r2, r2, r7
e63079cc:	eaffffd4 	b	e6307924 <ddr_config+0x5e0>
e63079d0:	e2840001 	add	r0, r4, #1
e63079d4:	ebfffb50 	bl	e630671c <vch_nxt>
e63079d8:	e1a04000 	mov	r4, r0
e63079dc:	eafffef9 	b	e63075c8 <ddr_config+0x284>
e63079e0:	e59f32f4 	ldr	r3, [pc, #756]	; e6307cdc <ddr_config+0x998>
e63079e4:	e593a000 	ldr	sl, [r3]
e63079e8:	e1da00f4 	ldrsh	r0, [sl, #4]
e63079ec:	ebfffc3c 	bl	e6306ae4 <_f_scale_adj>
e63079f0:	e1da60b2 	ldrh	r6, [sl, #2]
e63079f4:	e0866000 	add	r6, r6, r0
e63079f8:	e3000135 	movw	r0, #309	; 0x135
e63079fc:	ebfffc16 	bl	e6306a5c <ddr_regdef_adr>
e6307a00:	e3a01000 	mov	r1, #0
e6307a04:	ebfffd9d 	bl	e6307080 <reg_ddrphy_write_a>
e6307a08:	e3a00000 	mov	r0, #0
e6307a0c:	ebfffb42 	bl	e630671c <vch_nxt>
e6307a10:	e1a05000 	mov	r5, r0
e6307a14:	e3500003 	cmp	r0, #3
e6307a18:	9a000015 	bls	e6307a74 <ddr_config+0x730>
e6307a1c:	e3000135 	movw	r0, #309	; 0x135
e6307a20:	ebfffc0d 	bl	e6306a5c <ddr_regdef_adr>
e6307a24:	e59f32bc 	ldr	r3, [pc, #700]	; e6307ce8 <ddr_config+0x9a4>
e6307a28:	e3a01001 	mov	r1, #1
e6307a2c:	e5933000 	ldr	r3, [r3]
e6307a30:	e5d334d7 	ldrb	r3, [r3, #1239]	; 0x4d7
e6307a34:	e1a01311 	lsl	r1, r1, r3
e6307a38:	ebfffd90 	bl	e6307080 <reg_ddrphy_write_a>
e6307a3c:	e3a00000 	mov	r0, #0
e6307a40:	e1dab0b6 	ldrh	fp, [sl, #6]
e6307a44:	ebfffb34 	bl	e630671c <vch_nxt>
e6307a48:	e1a06000 	mov	r6, r0
e6307a4c:	e3500003 	cmp	r0, #3
e6307a50:	8a00006c 	bhi	e6307c08 <ddr_config+0x8c4>
e6307a54:	e3a030a0 	mov	r3, #160	; 0xa0
e6307a58:	e3a08000 	mov	r8, #0
e6307a5c:	e0040093 	mul	r4, r3, r0
e6307a60:	e2845068 	add	r5, r4, #104	; 0x68
e6307a64:	e284406c 	add	r4, r4, #108	; 0x6c
e6307a68:	e08a5005 	add	r5, sl, r5
e6307a6c:	e08a4004 	add	r4, sl, r4
e6307a70:	ea00005f 	b	e6307bf4 <ddr_config+0x8b0>
e6307a74:	e59f7270 	ldr	r7, [pc, #624]	; e6307cec <ddr_config+0x9a8>
e6307a78:	e3a040a0 	mov	r4, #160	; 0xa0
e6307a7c:	e1a09007 	mov	r9, r7
e6307a80:	e0040594 	mul	r4, r4, r5
e6307a84:	e2848058 	add	r8, r4, #88	; 0x58
e6307a88:	e08a8008 	add	r8, sl, r8
e6307a8c:	e0d800d1 	ldrsb	r0, [r8], #1
e6307a90:	ebfffc13 	bl	e6306ae4 <_f_scale_adj>
e6307a94:	e499b004 	ldr	fp, [r9], #4
e6307a98:	e1a0100b 	mov	r1, fp
e6307a9c:	e0802006 	add	r2, r0, r6
e6307aa0:	e59f0248 	ldr	r0, [pc, #584]	; e6307cf0 <ddr_config+0x9ac>
e6307aa4:	ebfffe11 	bl	e63072f0 <ddrtbl_setval>
e6307aa8:	e1a0000b 	mov	r0, fp
e6307aac:	ebfffbea 	bl	e6306a5c <ddr_regdef_adr>
e6307ab0:	e59f323c 	ldr	r3, [pc, #572]	; e6307cf4 <ddr_config+0x9b0>
e6307ab4:	e59f2234 	ldr	r2, [pc, #564]	; e6307cf0 <ddr_config+0x9ac>
e6307ab8:	e5933000 	ldr	r3, [r3]
e6307abc:	e58d3000 	str	r3, [sp]
e6307ac0:	e1a01000 	mov	r1, r0
e6307ac4:	e0403003 	sub	r3, r0, r3
e6307ac8:	e1a00005 	mov	r0, r5
e6307acc:	e7922103 	ldr	r2, [r2, r3, lsl #2]
e6307ad0:	ebfffc9f 	bl	e6306d54 <reg_ddrphy_write>
e6307ad4:	e59f321c 	ldr	r3, [pc, #540]	; e6307cf8 <ddr_config+0x9b4>
e6307ad8:	e1530009 	cmp	r3, r9
e6307adc:	1affffea 	bne	e6307a8c <ddr_config+0x748>
e6307ae0:	e1a08003 	mov	r8, r3
e6307ae4:	e284905e 	add	r9, r4, #94	; 0x5e
e6307ae8:	e08a9009 	add	r9, sl, r9
e6307aec:	e0d900d1 	ldrsb	r0, [r9], #1
e6307af0:	ebfffbfb 	bl	e6306ae4 <_f_scale_adj>
e6307af4:	e498b004 	ldr	fp, [r8], #4
e6307af8:	e1a0100b 	mov	r1, fp
e6307afc:	e0802006 	add	r2, r0, r6
e6307b00:	e59f01f4 	ldr	r0, [pc, #500]	; e6307cfc <ddr_config+0x9b8>
e6307b04:	ebfffdf9 	bl	e63072f0 <ddrtbl_setval>
e6307b08:	e1a0000b 	mov	r0, fp
e6307b0c:	ebfffbd2 	bl	e6306a5c <ddr_regdef_adr>
e6307b10:	e59f31e8 	ldr	r3, [pc, #488]	; e6307d00 <ddr_config+0x9bc>
e6307b14:	e5932000 	ldr	r2, [r3]
e6307b18:	e59f31dc 	ldr	r3, [pc, #476]	; e6307cfc <ddr_config+0x9b8>
e6307b1c:	e1a01000 	mov	r1, r0
e6307b20:	e0402002 	sub	r2, r0, r2
e6307b24:	e1a00005 	mov	r0, r5
e6307b28:	e7932102 	ldr	r2, [r3, r2, lsl #2]
e6307b2c:	ebfffc88 	bl	e6306d54 <reg_ddrphy_write>
e6307b30:	e59f31cc 	ldr	r3, [pc, #460]	; e6307d04 <ddr_config+0x9c0>
e6307b34:	e1530008 	cmp	r3, r8
e6307b38:	1affffeb 	bne	e6307aec <ddr_config+0x7a8>
e6307b3c:	e59f319c 	ldr	r3, [pc, #412]	; e6307ce0 <ddr_config+0x99c>
e6307b40:	e5933000 	ldr	r3, [r3]
e6307b44:	e3530001 	cmp	r3, #1
e6307b48:	0a000001 	beq	e6307b54 <ddr_config+0x810>
e6307b4c:	e2850001 	add	r0, r5, #1
e6307b50:	eaffffad 	b	e6307a0c <ddr_config+0x6c8>
e6307b54:	e3a08000 	mov	r8, #0
e6307b58:	e2844062 	add	r4, r4, #98	; 0x62
e6307b5c:	e08a4004 	add	r4, sl, r4
e6307b60:	e0d400d1 	ldrsb	r0, [r4], #1
e6307b64:	e2888001 	add	r8, r8, #1
e6307b68:	ebfffbdd 	bl	e6306ae4 <_f_scale_adj>
e6307b6c:	e4979004 	ldr	r9, [r7], #4
e6307b70:	e1a01009 	mov	r1, r9
e6307b74:	e0802006 	add	r2, r0, r6
e6307b78:	e59f0170 	ldr	r0, [pc, #368]	; e6307cf0 <ddr_config+0x9ac>
e6307b7c:	ebfffddb 	bl	e63072f0 <ddrtbl_setval>
e6307b80:	e1a00009 	mov	r0, r9
e6307b84:	ebfffbb4 	bl	e6306a5c <ddr_regdef_adr>
e6307b88:	e59d3000 	ldr	r3, [sp]
e6307b8c:	e59f215c 	ldr	r2, [pc, #348]	; e6307cf0 <ddr_config+0x9ac>
e6307b90:	e0403003 	sub	r3, r0, r3
e6307b94:	e2801c01 	add	r1, r0, #256	; 0x100
e6307b98:	e1a00005 	mov	r0, r5
e6307b9c:	e7922103 	ldr	r2, [r2, r3, lsl #2]
e6307ba0:	ebfffc6b 	bl	e6306d54 <reg_ddrphy_write>
e6307ba4:	e3580006 	cmp	r8, #6
e6307ba8:	1affffec 	bne	e6307b60 <ddr_config+0x81c>
e6307bac:	eaffffe6 	b	e6307b4c <ddr_config+0x808>
e6307bb0:	e3570008 	cmp	r7, #8
e6307bb4:	119400d7 	ldrsbne	r0, [r4, r7]
e6307bb8:	01d500d0 	ldrsbeq	r0, [r5]
e6307bbc:	e2877001 	add	r7, r7, #1
e6307bc0:	ebfffbc7 	bl	e6306ae4 <_f_scale_adj>
e6307bc4:	e4992004 	ldr	r2, [r9], #4
e6307bc8:	e1a01008 	mov	r1, r8
e6307bcc:	e080300b 	add	r3, r0, fp
e6307bd0:	e1a00006 	mov	r0, r6
e6307bd4:	ebfffc9a 	bl	e6306e44 <ddr_setval_s>
e6307bd8:	e3570009 	cmp	r7, #9
e6307bdc:	1afffff3 	bne	e6307bb0 <ddr_config+0x86c>
e6307be0:	e2888001 	add	r8, r8, #1
e6307be4:	e3580004 	cmp	r8, #4
e6307be8:	e2855001 	add	r5, r5, #1
e6307bec:	e2844008 	add	r4, r4, #8
e6307bf0:	0a000002 	beq	e6307c00 <ddr_config+0x8bc>
e6307bf4:	e59f910c 	ldr	r9, [pc, #268]	; e6307d08 <ddr_config+0x9c4>
e6307bf8:	e3a07000 	mov	r7, #0
e6307bfc:	eaffffeb 	b	e6307bb0 <ddr_config+0x86c>
e6307c00:	e2860001 	add	r0, r6, #1
e6307c04:	eaffff8e 	b	e6307a44 <ddr_config+0x700>
e6307c08:	e3a00000 	mov	r0, #0
e6307c0c:	e1da30b8 	ldrh	r3, [sl, #8]
e6307c10:	e58d3004 	str	r3, [sp, #4]
e6307c14:	ebfffac0 	bl	e630671c <vch_nxt>
e6307c18:	e1a05000 	mov	r5, r0
e6307c1c:	e3500003 	cmp	r0, #3
e6307c20:	8a000028 	bhi	e6307cc8 <ddr_config+0x984>
e6307c24:	e3a030a0 	mov	r3, #160	; 0xa0
e6307c28:	e3a06000 	mov	r6, #0
e6307c2c:	e0040093 	mul	r4, r3, r0
e6307c30:	e284708c 	add	r7, r4, #140	; 0x8c
e6307c34:	e2844090 	add	r4, r4, #144	; 0x90
e6307c38:	e08a7007 	add	r7, sl, r7
e6307c3c:	e08a4004 	add	r4, sl, r4
e6307c40:	ea000019 	b	e6307cac <ddr_config+0x968>
e6307c44:	e3580008 	cmp	r8, #8
e6307c48:	119400d8 	ldrsbne	r0, [r4, r8]
e6307c4c:	01d700d0 	ldrsbeq	r0, [r7]
e6307c50:	e2888001 	add	r8, r8, #1
e6307c54:	ebfffba2 	bl	e6306ae4 <_f_scale_adj>
e6307c58:	e59d1000 	ldr	r1, [sp]
e6307c5c:	e59d3004 	ldr	r3, [sp, #4]
e6307c60:	e4912004 	ldr	r2, [r1], #4
e6307c64:	e58d1000 	str	r1, [sp]
e6307c68:	e1a01006 	mov	r1, r6
e6307c6c:	e080b003 	add	fp, r0, r3
e6307c70:	e1a0300b 	mov	r3, fp
e6307c74:	e1a00005 	mov	r0, r5
e6307c78:	ebfffc71 	bl	e6306e44 <ddr_setval_s>
e6307c7c:	e1a0300b 	mov	r3, fp
e6307c80:	e4992004 	ldr	r2, [r9], #4
e6307c84:	e1a01006 	mov	r1, r6
e6307c88:	e1a00005 	mov	r0, r5
e6307c8c:	ebfffc6c 	bl	e6306e44 <ddr_setval_s>
e6307c90:	e3580009 	cmp	r8, #9
e6307c94:	1affffea 	bne	e6307c44 <ddr_config+0x900>
e6307c98:	e2866001 	add	r6, r6, #1
e6307c9c:	e3560004 	cmp	r6, #4
e6307ca0:	e2877001 	add	r7, r7, #1
e6307ca4:	e2844008 	add	r4, r4, #8
e6307ca8:	0a000004 	beq	e6307cc0 <ddr_config+0x97c>
e6307cac:	e59f3058 	ldr	r3, [pc, #88]	; e6307d0c <ddr_config+0x9c8>
e6307cb0:	e3a08000 	mov	r8, #0
e6307cb4:	e58d3000 	str	r3, [sp]
e6307cb8:	e59f9050 	ldr	r9, [pc, #80]	; e6307d10 <ddr_config+0x9cc>
e6307cbc:	eaffffe0 	b	e6307c44 <ddr_config+0x900>
e6307cc0:	e2850001 	add	r0, r5, #1
e6307cc4:	eaffffd2 	b	e6307c14 <ddr_config+0x8d0>
e6307cc8:	e28dd01c 	add	sp, sp, #28
e6307ccc:	e8bd8ff0 	pop	{r4, r5, r6, r7, r8, r9, sl, fp, pc}
e6307cd0:	eb022058 	.word	0xeb022058
e6307cd4:	eb022054 	.word	0xeb022054
e6307cd8:	00888888 	.word	0x00888888
e6307cdc:	eb02201c 	.word	0xeb02201c
e6307ce0:	eb022d98 	.word	0xeb022d98
e6307ce4:	00777777 	.word	0x00777777
e6307ce8:	eb022db0 	.word	0xeb022db0
e6307cec:	e6312b30 	.word	0xe6312b30
e6307cf0:	eb02245c 	.word	0xeb02245c
e6307cf4:	eb02203c 	.word	0xeb02203c
e6307cf8:	e6312b48 	.word	0xe6312b48
e6307cfc:	eb02205c 	.word	0xeb02205c
e6307d00:	eb022024 	.word	0xeb022024
e6307d04:	e6312b58 	.word	0xe6312b58
e6307d08:	e6312b58 	.word	0xe6312b58
e6307d0c:	e6312ba0 	.word	0xe6312ba0
e6307d10:	e6312bc4 	.word	0xe6312bc4

e6307d14 <ddr_getval_s>:
e6307d14:	e59f3030 	ldr	r3, [pc, #48]	; e6307d4c <ddr_getval_s+0x38>
e6307d18:	e1a01381 	lsl	r1, r1, #7
e6307d1c:	e92d4070 	push	{r4, r5, r6, lr}
e6307d20:	e5933000 	ldr	r3, [r3]
e6307d24:	e3e05000 	mvn	r5, #0
e6307d28:	e7933102 	ldr	r3, [r3, r2, lsl #2]
e6307d2c:	e7e72853 	ubfx	r2, r3, #16, #8
e6307d30:	e3520020 	cmp	r2, #32
e6307d34:	e6f11073 	uxtah	r1, r1, r3
e6307d38:	e1a04c23 	lsr	r4, r3, #24
e6307d3c:	11e05215 	mvnne	r5, r5, lsl r2
e6307d40:	ebfffbbf 	bl	e6306c44 <reg_ddrphy_read>
e6307d44:	e0050430 	and	r0, r5, r0, lsr r4
e6307d48:	e8bd8070 	pop	{r4, r5, r6, pc}
e6307d4c:	eb022db0 	.word	0xeb022db0

e6307d50 <ddr_getval>:
e6307d50:	e1a02001 	mov	r2, r1
e6307d54:	e3a01000 	mov	r1, #0
e6307d58:	eaffffed 	b	e6307d14 <ddr_getval_s>

e6307d5c <change_lpddr4_en>:
e6307d5c:	e59f3074 	ldr	r3, [pc, #116]	; e6307dd8 <change_lpddr4_en+0x7c>
e6307d60:	e92d43f0 	push	{r4, r5, r6, r7, r8, r9, lr}
e6307d64:	e1a08000 	mov	r8, r0
e6307d68:	e24dd014 	sub	sp, sp, #20
e6307d6c:	e8930007 	ldm	r3, {r0, r1, r2}
e6307d70:	e28d5004 	add	r5, sp, #4
e6307d74:	e8850007 	stm	r5, {r0, r1, r2}
e6307d78:	e3a00000 	mov	r0, #0
e6307d7c:	ebfffa66 	bl	e630671c <vch_nxt>
e6307d80:	e1a04000 	mov	r4, r0
e6307d84:	e3500003 	cmp	r0, #3
e6307d88:	9a000001 	bls	e6307d94 <change_lpddr4_en+0x38>
e6307d8c:	e28dd014 	add	sp, sp, #20
e6307d90:	e8bd83f0 	pop	{r4, r5, r6, r7, r8, r9, pc}
e6307d94:	e1a09005 	mov	r9, r5
e6307d98:	e3a06000 	mov	r6, #0
e6307d9c:	e4997004 	ldr	r7, [r9], #4
e6307da0:	e1a00004 	mov	r0, r4
e6307da4:	e1a01007 	mov	r1, r7
e6307da8:	e2866001 	add	r6, r6, #1
e6307dac:	ebffffe7 	bl	e6307d50 <ddr_getval>
e6307db0:	e1a01007 	mov	r1, r7
e6307db4:	e3580000 	cmp	r8, #0
e6307db8:	13802901 	orrne	r2, r0, #16384	; 0x4000
e6307dbc:	03c02901 	biceq	r2, r0, #16384	; 0x4000
e6307dc0:	e1a00004 	mov	r0, r4
e6307dc4:	ebfffc36 	bl	e6306ea4 <ddr_setval>
e6307dc8:	e3560003 	cmp	r6, #3
e6307dcc:	1afffff2 	bne	e6307d9c <change_lpddr4_en+0x40>
e6307dd0:	e2840001 	add	r0, r4, #1
e6307dd4:	eaffffe8 	b	e6307d7c <change_lpddr4_en+0x20>
e6307dd8:	e630c368 	.word	0xe630c368

e6307ddc <swlvl1>:
e6307ddc:	e92d4ff8 	push	{r3, r4, r5, r6, r7, r8, r9, sl, fp, lr}
e6307de0:	e1a06000 	mov	r6, r0
e6307de4:	e1a09001 	mov	r9, r1
e6307de8:	e3000246 	movw	r0, #582	; 0x246
e6307dec:	e3a01001 	mov	r1, #1
e6307df0:	e1a0a002 	mov	sl, r2
e6307df4:	ebfffc3e 	bl	e6306ef4 <ddr_setval_ach>
e6307df8:	e3a00000 	mov	r0, #0
e6307dfc:	e2068001 	and	r8, r6, #1
e6307e00:	ebfffa45 	bl	e630671c <vch_nxt>
e6307e04:	e59f70f4 	ldr	r7, [pc, #244]	; e6307f00 <swlvl1+0x124>
e6307e08:	e3a0b001 	mov	fp, #1
e6307e0c:	e1a04000 	mov	r4, r0
e6307e10:	e7975108 	ldr	r5, [r7, r8, lsl #2]
e6307e14:	e3540003 	cmp	r4, #3
e6307e18:	9a00001b 	bls	e6307e8c <swlvl1+0xb0>
e6307e1c:	e3a00000 	mov	r0, #0
e6307e20:	ebfffa3d 	bl	e630671c <vch_nxt>
e6307e24:	e1a04000 	mov	r4, r0
e6307e28:	e3500003 	cmp	r0, #3
e6307e2c:	9a000024 	bls	e6307ec4 <swlvl1+0xe8>
e6307e30:	f57ff04f 	dsb	sy
e6307e34:	e3a06a01 	mov	r6, #4096	; 0x1000
e6307e38:	e3a08001 	mov	r8, #1
e6307e3c:	e3a00000 	mov	r0, #0
e6307e40:	ebfffa35 	bl	e630671c <vch_nxt>
e6307e44:	e1a04000 	mov	r4, r0
e6307e48:	e3500003 	cmp	r0, #3
e6307e4c:	9a000021 	bls	e6307ed8 <swlvl1+0xfc>
e6307e50:	e2566001 	subs	r6, r6, #1
e6307e54:	13a03001 	movne	r3, #1
e6307e58:	03a03000 	moveq	r3, #0
e6307e5c:	e3550000 	cmp	r5, #0
e6307e60:	03a03000 	moveq	r3, #0
e6307e64:	e3530000 	cmp	r3, #0
e6307e68:	1afffff3 	bne	e6307e3c <swlvl1+0x60>
e6307e6c:	f57ff04f 	dsb	sy
e6307e70:	e3a01001 	mov	r1, #1
e6307e74:	e3000246 	movw	r0, #582	; 0x246
e6307e78:	ebfffc1d 	bl	e6306ef4 <ddr_setval_ach>
e6307e7c:	f57ff04f 	dsb	sy
e6307e80:	e16f0f16 	clz	r0, r6
e6307e84:	e1a002a0 	lsr	r0, r0, #5
e6307e88:	e8bd8ff8 	pop	{r3, r4, r5, r6, r7, r8, r9, sl, fp, pc}
e6307e8c:	e015341b 	ands	r3, r5, fp, lsl r4
e6307e90:	0a000007 	beq	e6307eb4 <swlvl1+0xd8>
e6307e94:	e1a02006 	mov	r2, r6
e6307e98:	e1a01009 	mov	r1, r9
e6307e9c:	e1a00004 	mov	r0, r4
e6307ea0:	ebfffbff 	bl	e6306ea4 <ddr_setval>
e6307ea4:	e3a02001 	mov	r2, #1
e6307ea8:	e1a0100a 	mov	r1, sl
e6307eac:	e1a00004 	mov	r0, r4
e6307eb0:	ebfffbfb 	bl	e6306ea4 <ddr_setval>
e6307eb4:	e2840001 	add	r0, r4, #1
e6307eb8:	ebfffa17 	bl	e630671c <vch_nxt>
e6307ebc:	e1a04000 	mov	r4, r0
e6307ec0:	eaffffd2 	b	e6307e10 <swlvl1+0x34>
e6307ec4:	e300123a 	movw	r1, #570	; 0x23a
e6307ec8:	e1a00004 	mov	r0, r4
e6307ecc:	ebffff9f 	bl	e6307d50 <ddr_getval>
e6307ed0:	e2840001 	add	r0, r4, #1
e6307ed4:	eaffffd1 	b	e6307e20 <swlvl1+0x44>
e6307ed8:	e1a07418 	lsl	r7, r8, r4
e6307edc:	e1170005 	tst	r7, r5
e6307ee0:	0a000004 	beq	e6307ef8 <swlvl1+0x11c>
e6307ee4:	e300123a 	movw	r1, #570	; 0x23a
e6307ee8:	e1a00004 	mov	r0, r4
e6307eec:	ebffff97 	bl	e6307d50 <ddr_getval>
e6307ef0:	e3100001 	tst	r0, #1
e6307ef4:	11c55007 	bicne	r5, r5, r7
e6307ef8:	e2840001 	add	r0, r4, #1
e6307efc:	eaffffcf 	b	e6307e40 <swlvl1+0x64>
e6307f00:	eb022000 	.word	0xeb022000

e6307f04 <wdqdm_man1>:
e6307f04:	e59f32e0 	ldr	r3, [pc, #736]	; e63081ec <wdqdm_man1+0x2e8>
e6307f08:	e92d47f0 	push	{r4, r5, r6, r7, r8, r9, sl, lr}
e6307f0c:	e5936000 	ldr	r6, [r3]
e6307f10:	e24dd020 	sub	sp, sp, #32
e6307f14:	e3560c4f 	cmp	r6, #20224	; 0x4f00
e6307f18:	0a00000e 	beq	e6307f58 <wdqdm_man1+0x54>
e6307f1c:	e59f72cc 	ldr	r7, [pc, #716]	; e63081f0 <wdqdm_man1+0x2ec>
e6307f20:	e2465c55 	sub	r5, r6, #21760	; 0x5500
e6307f24:	e3a04000 	mov	r4, #0
e6307f28:	e3c55c01 	bic	r5, r5, #256	; 0x100
e6307f2c:	e1a01004 	mov	r1, r4
e6307f30:	e3a00018 	mov	r0, #24
e6307f34:	ebfffbfa 	bl	e6306f24 <ddr_setval_ach_as>
e6307f38:	e3560c4f 	cmp	r6, #20224	; 0x4f00
e6307f3c:	1a00002b 	bne	e6307ff0 <wdqdm_man1+0xec>
e6307f40:	e5973000 	ldr	r3, [r7]
e6307f44:	e3530001 	cmp	r3, #1
e6307f48:	8a00002a 	bhi	e6307ff8 <wdqdm_man1+0xf4>
e6307f4c:	e3a01001 	mov	r1, #1
e6307f50:	e3a00057 	mov	r0, #87	; 0x57
e6307f54:	ea000029 	b	e6308000 <wdqdm_man1+0xfc>
e6307f58:	e59f3290 	ldr	r3, [pc, #656]	; e63081f0 <wdqdm_man1+0x2ec>
e6307f5c:	e5933000 	ldr	r3, [r3]
e6307f60:	e3530001 	cmp	r3, #1
e6307f64:	8affffec 	bhi	e6307f1c <wdqdm_man1+0x18>
e6307f68:	e3a00000 	mov	r0, #0
e6307f6c:	e3a07001 	mov	r7, #1
e6307f70:	ebfff9e9 	bl	e630671c <vch_nxt>
e6307f74:	e59f5278 	ldr	r5, [pc, #632]	; e63081f4 <wdqdm_man1+0x2f0>
e6307f78:	e1a04000 	mov	r4, r0
e6307f7c:	e3540003 	cmp	r4, #3
e6307f80:	8affffe5 	bhi	e6307f1c <wdqdm_man1+0x18>
e6307f84:	e5950000 	ldr	r0, [r5]
e6307f88:	e28d2020 	add	r2, sp, #32
e6307f8c:	e3a03000 	mov	r3, #0
e6307f90:	e0822104 	add	r2, r2, r4, lsl #2
e6307f94:	e3a010a0 	mov	r1, #160	; 0xa0
e6307f98:	e5023020 	str	r3, [r2, #-32]	; 0xffffffe0
e6307f9c:	e0210491 	mla	r1, r1, r4, r0
e6307fa0:	e1d102b0 	ldrh	r0, [r1, #32]
e6307fa4:	e1a01103 	lsl	r1, r3, #2
e6307fa8:	e1a01150 	asr	r1, r0, r1
e6307fac:	e311000e 	tst	r1, #14
e6307fb0:	15121020 	ldrne	r1, [r2, #-32]	; 0xffffffe0
e6307fb4:	11811317 	orrne	r1, r1, r7, lsl r3
e6307fb8:	e2833001 	add	r3, r3, #1
e6307fbc:	15021020 	strne	r1, [r2, #-32]	; 0xffffffe0
e6307fc0:	e3530004 	cmp	r3, #4
e6307fc4:	1afffff6 	bne	e6307fa4 <wdqdm_man1+0xa0>
e6307fc8:	e1a00004 	mov	r0, r4
e6307fcc:	e3a02000 	mov	r2, #0
e6307fd0:	e300125f 	movw	r1, #607	; 0x25f
e6307fd4:	ebfffbb2 	bl	e6306ea4 <ddr_setval>
e6307fd8:	e2840001 	add	r0, r4, #1
e6307fdc:	ebfff9ce 	bl	e630671c <vch_nxt>
e6307fe0:	e1a04000 	mov	r4, r0
e6307fe4:	eaffffe4 	b	e6307f7c <wdqdm_man1+0x78>
e6307fe8:	e3a04001 	mov	r4, #1
e6307fec:	eaffffce 	b	e6307f2c <wdqdm_man1+0x28>
e6307ff0:	e3550000 	cmp	r5, #0
e6307ff4:	1affffd4 	bne	e6307f4c <wdqdm_man1+0x48>
e6307ff8:	e3a01001 	mov	r1, #1
e6307ffc:	e3a00056 	mov	r0, #86	; 0x56
e6308000:	ebfffbc7 	bl	e6306f24 <ddr_setval_ach_as>
e6308004:	e3540001 	cmp	r4, #1
e6308008:	1afffff6 	bne	e6307fe8 <wdqdm_man1+0xe4>
e630800c:	ebfffb48 	bl	e6306d34 <ddrphy_regif_idle>
e6308010:	e59f71e0 	ldr	r7, [pc, #480]	; e63081f8 <wdqdm_man1+0x2f4>
e6308014:	e59f81d4 	ldr	r8, [pc, #468]	; e63081f0 <wdqdm_man1+0x2ec>
e6308018:	e3a05000 	mov	r5, #0
e630801c:	e59f91d8 	ldr	r9, [pc, #472]	; e63081fc <wdqdm_man1+0x2f8>
e6308020:	e3560c4f 	cmp	r6, #20224	; 0x4f00
e6308024:	1a00006a 	bne	e63081d4 <wdqdm_man1+0x2d0>
e6308028:	e5983000 	ldr	r3, [r8]
e630802c:	e3530001 	cmp	r3, #1
e6308030:	93a00000 	movls	r0, #0
e6308034:	9a000034 	bls	e630810c <wdqdm_man1+0x208>
e6308038:	e3a00000 	mov	r0, #0
e630803c:	ebfff9b6 	bl	e630671c <vch_nxt>
e6308040:	e1a04000 	mov	r4, r0
e6308044:	e3500003 	cmp	r0, #3
e6308048:	9a000037 	bls	e630812c <wdqdm_man1+0x228>
e630804c:	e3002356 	movw	r2, #854	; 0x356
e6308050:	e3001357 	movw	r1, #855	; 0x357
e6308054:	e1a00005 	mov	r0, r5
e6308058:	ebffff5f 	bl	e6307ddc <swlvl1>
e630805c:	e250a000 	subs	sl, r0, #0
e6308060:	1a000009 	bne	e630808c <wdqdm_man1+0x188>
e6308064:	ebfff9ac 	bl	e630671c <vch_nxt>
e6308068:	e3550000 	cmp	r5, #0
e630806c:	e1a04000 	mov	r4, r0
e6308070:	1a000049 	bne	e630819c <wdqdm_man1+0x298>
e6308074:	e3540003 	cmp	r4, #3
e6308078:	9a000034 	bls	e6308150 <wdqdm_man1+0x24c>
e630807c:	e2855001 	add	r5, r5, #1
e6308080:	e3550004 	cmp	r5, #4
e6308084:	e2877004 	add	r7, r7, #4
e6308088:	1affffe4 	bne	e6308020 <wdqdm_man1+0x11c>
e630808c:	e3560c4f 	cmp	r6, #20224	; 0x4f00
e6308090:	1a00000c 	bne	e63080c8 <wdqdm_man1+0x1c4>
e6308094:	e59f3154 	ldr	r3, [pc, #340]	; e63081f0 <wdqdm_man1+0x2ec>
e6308098:	e5933000 	ldr	r3, [r3]
e630809c:	e3530001 	cmp	r3, #1
e63080a0:	8a000008 	bhi	e63080c8 <wdqdm_man1+0x1c4>
e63080a4:	e3a01001 	mov	r1, #1
e63080a8:	e300025f 	movw	r0, #607	; 0x25f
e63080ac:	ebfffb90 	bl	e6306ef4 <ddr_setval_ach>
e63080b0:	e59f5144 	ldr	r5, [pc, #324]	; e63081fc <wdqdm_man1+0x2f8>
e63080b4:	e3a00000 	mov	r0, #0
e63080b8:	ebfff997 	bl	e630671c <vch_nxt>
e63080bc:	e1a04000 	mov	r4, r0
e63080c0:	e3540003 	cmp	r4, #3
e63080c4:	9a000037 	bls	e63081a8 <wdqdm_man1+0x2a4>
e63080c8:	e1a0000a 	mov	r0, sl
e63080cc:	e28dd020 	add	sp, sp, #32
e63080d0:	e8bd87f0 	pop	{r4, r5, r6, r7, r8, r9, sl, pc}
e63080d4:	e7993304 	ldr	r3, [r9, r4, lsl #6]
e63080d8:	e28d2020 	add	r2, sp, #32
e63080dc:	e0822104 	add	r2, r2, r4, lsl #2
e63080e0:	e3550001 	cmp	r5, #1
e63080e4:	e3c338ff 	bic	r3, r3, #16711680	; 0xff0000
e63080e8:	e5122020 	ldr	r2, [r2, #-32]	; 0xffffffe0
e63080ec:	e1a01304 	lsl	r1, r4, #6
e63080f0:	e1a00004 	mov	r0, r4
e63080f4:	8222200f 	eorhi	r2, r2, #15
e63080f8:	e1833802 	orr	r3, r3, r2, lsl #16
e63080fc:	e7813009 	str	r3, [r1, r9]
e6308100:	e3a01fd1 	mov	r1, #836	; 0x344
e6308104:	ebfffb66 	bl	e6306ea4 <ddr_setval>
e6308108:	e2840001 	add	r0, r4, #1
e630810c:	ebfff982 	bl	e630671c <vch_nxt>
e6308110:	e1a04000 	mov	r4, r0
e6308114:	e3500003 	cmp	r0, #3
e6308118:	9affffed 	bls	e63080d4 <wdqdm_man1+0x1d0>
e630811c:	e3a01000 	mov	r1, #0
e6308120:	e1a00005 	mov	r0, r5
e6308124:	ebfffb8a 	bl	e6306f54 <wdqdm_cp>
e6308128:	eaffffc2 	b	e6308038 <wdqdm_man1+0x134>
e630812c:	e5971000 	ldr	r1, [r7]
e6308130:	e1a00004 	mov	r0, r4
e6308134:	ebffff05 	bl	e6307d50 <ddr_getval>
e6308138:	e300136f 	movw	r1, #879	; 0x36f
e630813c:	e1a02000 	mov	r2, r0
e6308140:	e1a00004 	mov	r0, r4
e6308144:	ebfffb56 	bl	e6306ea4 <ddr_setval>
e6308148:	e2840001 	add	r0, r4, #1
e630814c:	eaffffba 	b	e630803c <wdqdm_man1+0x138>
e6308150:	e300136f 	movw	r1, #879	; 0x36f
e6308154:	e1a00004 	mov	r0, r4
e6308158:	ebfffefc 	bl	e6307d50 <ddr_getval>
e630815c:	e28d3020 	add	r3, sp, #32
e6308160:	e0833104 	add	r3, r3, r4, lsl #2
e6308164:	e5030010 	str	r0, [r3, #-16]
e6308168:	e2840001 	add	r0, r4, #1
e630816c:	ebfff96a 	bl	e630671c <vch_nxt>
e6308170:	e1a04000 	mov	r4, r0
e6308174:	eaffffbe 	b	e6308074 <wdqdm_man1+0x170>
e6308178:	e1a00004 	mov	r0, r4
e630817c:	e28d3020 	add	r3, sp, #32
e6308180:	e300136f 	movw	r1, #879	; 0x36f
e6308184:	e0833104 	add	r3, r3, r4, lsl #2
e6308188:	e5132010 	ldr	r2, [r3, #-16]
e630818c:	ebfffb44 	bl	e6306ea4 <ddr_setval>
e6308190:	e2840001 	add	r0, r4, #1
e6308194:	ebfff960 	bl	e630671c <vch_nxt>
e6308198:	e1a04000 	mov	r4, r0
e630819c:	e3540003 	cmp	r4, #3
e63081a0:	9afffff4 	bls	e6308178 <wdqdm_man1+0x274>
e63081a4:	eaffffb4 	b	e630807c <wdqdm_man1+0x178>
e63081a8:	e7953304 	ldr	r3, [r5, r4, lsl #6]
e63081ac:	e1a00004 	mov	r0, r4
e63081b0:	e3a02000 	mov	r2, #0
e63081b4:	e3a01fd1 	mov	r1, #836	; 0x344
e63081b8:	e3c338ff 	bic	r3, r3, #16711680	; 0xff0000
e63081bc:	e7853304 	str	r3, [r5, r4, lsl #6]
e63081c0:	ebfffb37 	bl	e6306ea4 <ddr_setval>
e63081c4:	e2840001 	add	r0, r4, #1
e63081c8:	ebfff953 	bl	e630671c <vch_nxt>
e63081cc:	e1a04000 	mov	r4, r0
e63081d0:	eaffffba 	b	e63080c0 <wdqdm_man1+0x1bc>
e63081d4:	e3560c52 	cmp	r6, #20992	; 0x5200
e63081d8:	1affff96 	bne	e6308038 <wdqdm_man1+0x134>
e63081dc:	e5983000 	ldr	r3, [r8]
e63081e0:	e3530000 	cmp	r3, #0
e63081e4:	1affff93 	bne	e6308038 <wdqdm_man1+0x134>
e63081e8:	eaffffcb 	b	e630811c <wdqdm_man1+0x218>
e63081ec:	eb022058 	.word	0xeb022058
e63081f0:	eb022054 	.word	0xeb022054
e63081f4:	eb02201c 	.word	0xeb02201c
e63081f8:	e6312c64 	.word	0xe6312c64
e63081fc:	e6790604 	.word	0xe6790604

e6308200 <rx_offset_cal>:
e6308200:	e92d4ff0 	push	{r4, r5, r6, r7, r8, r9, sl, fp, lr}
e6308204:	e3a01001 	mov	r1, #1
e6308208:	e24dde5d 	sub	sp, sp, #1488	; 0x5d0
e630820c:	e3a00084 	mov	r0, #132	; 0x84
e6308210:	e24dd004 	sub	sp, sp, #4
e6308214:	ebfffb42 	bl	e6306f24 <ddr_setval_ach_as>
e6308218:	e3a00000 	mov	r0, #0
e630821c:	ebfff93e 	bl	e630671c <vch_nxt>
e6308220:	e3a06e16 	mov	r6, #352	; 0x160
e6308224:	e3a04000 	mov	r4, #0
e6308228:	e3a05000 	mov	r5, #0
e630822c:	e3500003 	cmp	r0, #3
e6308230:	8a000011 	bhi	e630827c <rx_offset_cal+0x7c>
e6308234:	e28d3050 	add	r3, sp, #80	; 0x50
e6308238:	e0223096 	mla	r2, r6, r0, r3
e630823c:	e3a03000 	mov	r3, #0
e6308240:	ea000007 	b	e6308264 <rx_offset_cal+0x64>
e6308244:	e0cc40f8 	strd	r4, [ip], #8
e6308248:	e2811001 	add	r1, r1, #1
e630824c:	e351000b 	cmp	r1, #11
e6308250:	1afffffb 	bne	e6308244 <rx_offset_cal+0x44>
e6308254:	e2833001 	add	r3, r3, #1
e6308258:	e3530004 	cmp	r3, #4
e630825c:	e2822058 	add	r2, r2, #88	; 0x58
e6308260:	0a000002 	beq	e6308270 <rx_offset_cal+0x70>
e6308264:	e1a0c002 	mov	ip, r2
e6308268:	e3a01000 	mov	r1, #0
e630826c:	eafffff4 	b	e6308244 <rx_offset_cal+0x44>
e6308270:	e2800001 	add	r0, r0, #1
e6308274:	ebfff928 	bl	e630671c <vch_nxt>
e6308278:	eaffffeb 	b	e630822c <rx_offset_cal+0x2c>
e630827c:	e3a05000 	mov	r5, #0
e6308280:	e59f624c 	ldr	r6, [pc, #588]	; e63084d4 <rx_offset_cal+0x2d4>
e6308284:	e1a00085 	lsl	r0, r5, #1
e6308288:	ebfffbb4 	bl	e6307160 <_rx_offset_cal_updn>
e630828c:	e3a04000 	mov	r4, #0
e6308290:	e1a07000 	mov	r7, r0
e6308294:	e1a01007 	mov	r1, r7
e6308298:	e2844001 	add	r4, r4, #1
e630829c:	e4960004 	ldr	r0, [r6], #4
e63082a0:	ebfffb1f 	bl	e6306f24 <ddr_setval_ach_as>
e63082a4:	e354000b 	cmp	r4, #11
e63082a8:	1afffff9 	bne	e6308294 <rx_offset_cal+0x94>
e63082ac:	f57ff04f 	dsb	sy
e63082b0:	e3a00000 	mov	r0, #0
e63082b4:	e28d7010 	add	r7, sp, #16
e63082b8:	ebfff917 	bl	e630671c <vch_nxt>
e63082bc:	e1a06000 	mov	r6, r0
e63082c0:	e3560003 	cmp	r6, #3
e63082c4:	9a00001e 	bls	e6308344 <rx_offset_cal+0x144>
e63082c8:	e3a06001 	mov	r6, #1
e63082cc:	e3a00000 	mov	r0, #0
e63082d0:	ebfff911 	bl	e630671c <vch_nxt>
e63082d4:	e2454020 	sub	r4, r5, #32
e63082d8:	e2653020 	rsb	r3, r5, #32
e63082dc:	e1a04416 	lsl	r4, r6, r4
e63082e0:	e1a07516 	lsl	r7, r6, r5
e63082e4:	e3a0be16 	mov	fp, #352	; 0x160
e63082e8:	e1844336 	orr	r4, r4, r6, lsr r3
e63082ec:	e58d600c 	str	r6, [sp, #12]
e63082f0:	e1e03007 	mvn	r3, r7
e63082f4:	e58d3004 	str	r3, [sp, #4]
e63082f8:	e1e03004 	mvn	r3, r4
e63082fc:	e58d3008 	str	r3, [sp, #8]
e6308300:	e3500003 	cmp	r0, #3
e6308304:	9a00001c 	bls	e630837c <rx_offset_cal+0x17c>
e6308308:	e2855001 	add	r5, r5, #1
e630830c:	e3550020 	cmp	r5, #32
e6308310:	1affffda 	bne	e6308280 <rx_offset_cal+0x80>
e6308314:	e3a00000 	mov	r0, #0
e6308318:	ebfff8ff 	bl	e630671c <vch_nxt>
e630831c:	e59f31b0 	ldr	r3, [pc, #432]	; e63084d4 <rx_offset_cal+0x2d4>
e6308320:	e283902c 	add	r9, r3, #44	; 0x2c
e6308324:	e1a04000 	mov	r4, r0
e6308328:	e3540003 	cmp	r4, #3
e630832c:	8a000061 	bhi	e63084b8 <rx_offset_cal+0x2b8>
e6308330:	e3a03e16 	mov	r3, #352	; 0x160
e6308334:	e28d2050 	add	r2, sp, #80	; 0x50
e6308338:	e3a05000 	mov	r5, #0
e630833c:	e0272493 	mla	r7, r3, r4, r2
e6308340:	ea000055 	b	e630849c <rx_offset_cal+0x29c>
e6308344:	e3a04000 	mov	r4, #0
e6308348:	e1a01004 	mov	r1, r4
e630834c:	e3a02091 	mov	r2, #145	; 0x91
e6308350:	e1a00006 	mov	r0, r6
e6308354:	ebfffe6e 	bl	e6307d14 <ddr_getval_s>
e6308358:	e7870104 	str	r0, [r7, r4, lsl #2]
e630835c:	e2844001 	add	r4, r4, #1
e6308360:	e3540004 	cmp	r4, #4
e6308364:	1afffff7 	bne	e6308348 <rx_offset_cal+0x148>
e6308368:	e2860001 	add	r0, r6, #1
e630836c:	ebfff8ea 	bl	e630671c <vch_nxt>
e6308370:	e2877010 	add	r7, r7, #16
e6308374:	e1a06000 	mov	r6, r0
e6308378:	eaffffd0 	b	e63082c0 <rx_offset_cal+0xc0>
e630837c:	e3a0e000 	mov	lr, #0
e6308380:	e28d3010 	add	r3, sp, #16
e6308384:	e0839200 	add	r9, r3, r0, lsl #4
e6308388:	e28d3050 	add	r3, sp, #80	; 0x50
e630838c:	e028309b 	mla	r8, fp, r0, r3
e6308390:	e499a004 	ldr	sl, [r9], #4
e6308394:	e1a03008 	mov	r3, r8
e6308398:	e3a0c000 	mov	ip, #0
e630839c:	e59d600c 	ldr	r6, [sp, #12]
e63083a0:	e8930006 	ldm	r3, {r1, r2}
e63083a4:	e2833008 	add	r3, r3, #8
e63083a8:	e01a6c16 	ands	r6, sl, r6, lsl ip
e63083ac:	e28cc001 	add	ip, ip, #1
e63083b0:	11871001 	orrne	r1, r7, r1
e63083b4:	059d6004 	ldreq	r6, [sp, #4]
e63083b8:	11842002 	orrne	r2, r4, r2
e63083bc:	00011006 	andeq	r1, r1, r6
e63083c0:	059d6008 	ldreq	r6, [sp, #8]
e63083c4:	00022006 	andeq	r2, r2, r6
e63083c8:	e35c000b 	cmp	ip, #11
e63083cc:	e9030006 	stmdb	r3, {r1, r2}
e63083d0:	1afffff1 	bne	e630839c <rx_offset_cal+0x19c>
e63083d4:	e28ee001 	add	lr, lr, #1
e63083d8:	e35e0004 	cmp	lr, #4
e63083dc:	e2888058 	add	r8, r8, #88	; 0x58
e63083e0:	1affffea 	bne	e6308390 <rx_offset_cal+0x190>
e63083e4:	e2800001 	add	r0, r0, #1
e63083e8:	ebfff8cb 	bl	e630671c <vch_nxt>
e63083ec:	eaffffc3 	b	e6308300 <rx_offset_cal+0x100>
e63083f0:	e8961002 	ldm	r6, {r1, ip}
e63083f4:	e3a03001 	mov	r3, #1
e63083f8:	e2866008 	add	r6, r6, #8
e63083fc:	e201a001 	and	sl, r1, #1
e6308400:	e263e020 	rsb	lr, r3, #32
e6308404:	e1a02331 	lsr	r2, r1, r3
e6308408:	e2430020 	sub	r0, r3, #32
e630840c:	e1822e1c 	orr	r2, r2, ip, lsl lr
e6308410:	e182203c 	orr	r2, r2, ip, lsr r0
e6308414:	e2022001 	and	r2, r2, #1
e6308418:	e15a0002 	cmp	sl, r2
e630841c:	1a000003 	bne	e6308430 <rx_offset_cal+0x230>
e6308420:	e2833001 	add	r3, r3, #1
e6308424:	e3530040 	cmp	r3, #64	; 0x40
e6308428:	1afffff4 	bne	e6308400 <rx_offset_cal+0x200>
e630842c:	e3a0303f 	mov	r3, #63	; 0x3f
e6308430:	e3a0001e 	mov	r0, #30
e6308434:	e1a0bfa1 	lsr	fp, r1, #31
e6308438:	e260a020 	rsb	sl, r0, #32
e630843c:	e1a02031 	lsr	r2, r1, r0
e6308440:	e240e020 	sub	lr, r0, #32
e6308444:	e1822a1c 	orr	r2, r2, ip, lsl sl
e6308448:	e1822e3c 	orr	r2, r2, ip, lsr lr
e630844c:	e2022001 	and	r2, r2, #1
e6308450:	e15b0002 	cmp	fp, r2
e6308454:	1a000002 	bne	e6308464 <rx_offset_cal+0x264>
e6308458:	e2500001 	subs	r0, r0, #1
e630845c:	2afffff5 	bcs	e6308438 <rx_offset_cal+0x238>
e6308460:	e3a00000 	mov	r0, #0
e6308464:	e0800003 	add	r0, r0, r3
e6308468:	e3c00001 	bic	r0, r0, #1
e630846c:	ebfffb3b 	bl	e6307160 <_rx_offset_cal_updn>
e6308470:	e4982004 	ldr	r2, [r8], #4
e6308474:	e1a01005 	mov	r1, r5
e6308478:	e1a03000 	mov	r3, r0
e630847c:	e1a00004 	mov	r0, r4
e6308480:	ebfffa6f 	bl	e6306e44 <ddr_setval_s>
e6308484:	e1590008 	cmp	r9, r8
e6308488:	1affffd8 	bne	e63083f0 <rx_offset_cal+0x1f0>
e630848c:	e2855001 	add	r5, r5, #1
e6308490:	e3550004 	cmp	r5, #4
e6308494:	e2877058 	add	r7, r7, #88	; 0x58
e6308498:	0a000002 	beq	e63084a8 <rx_offset_cal+0x2a8>
e630849c:	e59f8030 	ldr	r8, [pc, #48]	; e63084d4 <rx_offset_cal+0x2d4>
e63084a0:	e1a06007 	mov	r6, r7
e63084a4:	eaffffd1 	b	e63083f0 <rx_offset_cal+0x1f0>
e63084a8:	e2840001 	add	r0, r4, #1
e63084ac:	ebfff89a 	bl	e630671c <vch_nxt>
e63084b0:	e1a04000 	mov	r4, r0
e63084b4:	eaffff9b 	b	e6308328 <rx_offset_cal+0x128>
e63084b8:	e3a01000 	mov	r1, #0
e63084bc:	e3a00084 	mov	r0, #132	; 0x84
e63084c0:	ebfffa97 	bl	e6306f24 <ddr_setval_ach_as>
e63084c4:	e3a00000 	mov	r0, #0
e63084c8:	e28dde5d 	add	sp, sp, #1488	; 0x5d0
e63084cc:	e28dd004 	add	sp, sp, #4
e63084d0:	e8bd8ff0 	pop	{r4, r5, r6, r7, r8, r9, sl, fp, pc}
e63084d4:	e6312be8 	.word	0xe6312be8

e63084d8 <ddrphy_regif_chk>:
e63084d8:	e59f30ac 	ldr	r3, [pc, #172]	; e630858c <ddrphy_regif_chk+0xb4>
e63084dc:	e92d4030 	push	{r4, r5, lr}
e63084e0:	e5933000 	ldr	r3, [r3]
e63084e4:	e24dd014 	sub	sp, sp, #20
e63084e8:	e3530c4f 	cmp	r3, #20224	; 0x4f00
e63084ec:	1a000011 	bne	e6308538 <ddrphy_regif_chk+0x60>
e63084f0:	e59f3098 	ldr	r3, [pc, #152]	; e6308590 <ddrphy_regif_chk+0xb8>
e63084f4:	e3024041 	movw	r4, #8257	; 0x2041
e63084f8:	e5933000 	ldr	r3, [r3]
e63084fc:	e3530001 	cmp	r3, #1
e6308500:	83a04d81 	movhi	r4, #8256	; 0x2040
e6308504:	e3a00000 	mov	r0, #0
e6308508:	ebfff883 	bl	e630671c <vch_nxt>
e630850c:	e1a05000 	mov	r5, r0
e6308510:	e3500003 	cmp	r0, #3
e6308514:	9a00000b 	bls	e6308548 <ddrphy_regif_chk+0x70>
e6308518:	e3a00000 	mov	r0, #0
e630851c:	e3a05000 	mov	r5, #0
e6308520:	ebfff87d 	bl	e630671c <vch_nxt>
e6308524:	e3500003 	cmp	r0, #3
e6308528:	9a00000f 	bls	e630856c <ddrphy_regif_chk+0x94>
e630852c:	e1a00005 	mov	r0, r5
e6308530:	e28dd014 	add	sp, sp, #20
e6308534:	e8bd8030 	pop	{r4, r5, pc}
e6308538:	e3024041 	movw	r4, #8257	; 0x2041
e630853c:	e3530c52 	cmp	r3, #20992	; 0x5200
e6308540:	13a04d81 	movne	r4, #8256	; 0x2040
e6308544:	eaffffee 	b	e6308504 <ddrphy_regif_chk+0x2c>
e6308548:	e3a02e1e 	mov	r2, #480	; 0x1e0
e630854c:	e3a01000 	mov	r1, #0
e6308550:	e1a00005 	mov	r0, r5
e6308554:	ebfffdee 	bl	e6307d14 <ddr_getval_s>
e6308558:	e28d3010 	add	r3, sp, #16
e630855c:	e0833105 	add	r3, r3, r5, lsl #2
e6308560:	e5030010 	str	r0, [r3, #-16]
e6308564:	e2850001 	add	r0, r5, #1
e6308568:	eaffffe6 	b	e6308508 <ddrphy_regif_chk+0x30>
e630856c:	e28d3010 	add	r3, sp, #16
e6308570:	e0833100 	add	r3, r3, r0, lsl #2
e6308574:	e2800001 	add	r0, r0, #1
e6308578:	e5133010 	ldr	r3, [r3, #-16]
e630857c:	e1530004 	cmp	r3, r4
e6308580:	13a05001 	movne	r5, #1
e6308584:	ebfff864 	bl	e630671c <vch_nxt>
e6308588:	eaffffe5 	b	e6308524 <ddrphy_regif_chk+0x4c>
e630858c:	eb022058 	.word	0xeb022058
e6308590:	eb022054 	.word	0xeb022054

e6308594 <ddrtbl_load>:
e6308594:	e59f2bac 	ldr	r2, [pc, #2988]	; e6309148 <ddrtbl_load+0xbb4>
e6308598:	e3a0000a 	mov	r0, #10
e630859c:	e92d4ff0 	push	{r4, r5, r6, r7, r8, r9, sl, fp, lr}
e63085a0:	e5923000 	ldr	r3, [r2]
e63085a4:	e24dd01c 	sub	sp, sp, #28
e63085a8:	e3a04002 	mov	r4, #2
e63085ac:	e58d300c 	str	r3, [sp, #12]
e63085b0:	e59f3b94 	ldr	r3, [pc, #2964]	; e630914c <ddrtbl_load+0xbb8>
e63085b4:	e1cd20f4 	strd	r2, [sp, #4]
e63085b8:	e59f2b90 	ldr	r2, [pc, #2960]	; e6309150 <ddrtbl_load+0xbbc>
e63085bc:	e5939000 	ldr	r9, [r3]
e63085c0:	e1a08002 	mov	r8, r2
e63085c4:	e0891089 	add	r1, r9, r9, lsl #1
e63085c8:	e59dc00c 	ldr	ip, [sp, #12]
e63085cc:	e0030490 	mul	r3, r0, r4
e63085d0:	e19330b2 	ldrh	r3, [r3, r2]
e63085d4:	e003039c 	mul	r3, ip, r3
e63085d8:	e1510083 	cmp	r1, r3, lsl #1
e63085dc:	9a000076 	bls	e63087bc <ddrtbl_load+0x228>
e63085e0:	e2844001 	add	r4, r4, #1
e63085e4:	e3540007 	cmp	r4, #7
e63085e8:	1afffff6 	bne	e63085c8 <ddrtbl_load+0x34>
e63085ec:	e3a04005 	mov	r4, #5
e63085f0:	e59f2b5c 	ldr	r2, [pc, #2908]	; e6309154 <ddrtbl_load+0xbc0>
e63085f4:	e59f3b5c 	ldr	r3, [pc, #2908]	; e6309158 <ddrtbl_load+0xbc4>
e63085f8:	e5834000 	str	r4, [r3]
e63085fc:	e5923000 	ldr	r3, [r2]
e6308600:	e5d33001 	ldrb	r3, [r3, #1]
e6308604:	e59fab50 	ldr	sl, [pc, #2896]	; e630915c <ddrtbl_load+0xbc8>
e6308608:	e3530000 	cmp	r3, #0
e630860c:	e3a0300a 	mov	r3, #10
e6308610:	e1a0500a 	mov	r5, sl
e6308614:	e59f6b44 	ldr	r6, [pc, #2884]	; e6309160 <ddrtbl_load+0xbcc>
e6308618:	e0238493 	mla	r3, r3, r4, r8
e630861c:	15d37003 	ldrbne	r7, [r3, #3]
e6308620:	05d37002 	ldrbeq	r7, [r3, #2]
e6308624:	e58d2010 	str	r2, [sp, #16]
e6308628:	e3a0300a 	mov	r3, #10
e630862c:	e59f2b30 	ldr	r2, [pc, #2864]	; e6309164 <ddrtbl_load+0xbd0>
e6308630:	e0238493 	mla	r3, r3, r4, r8
e6308634:	e5d3b004 	ldrb	fp, [r3, #4]
e6308638:	e59f3b28 	ldr	r3, [pc, #2856]	; e6309168 <ddrtbl_load+0xbd4>
e630863c:	e5c27000 	strb	r7, [r2]
e6308640:	e5c3b000 	strb	fp, [r3]
e6308644:	e58d2014 	str	r2, [sp, #20]
e6308648:	e1d630b2 	ldrh	r3, [r6, #2]
e630864c:	e59d100c 	ldr	r1, [sp, #12]
e6308650:	e0d620b4 	ldrh	r2, [r6], #4
e6308654:	e1a00009 	mov	r0, r9
e6308658:	ebfff90c 	bl	e6306a90 <_f_scale>
e630865c:	e59f3b08 	ldr	r3, [pc, #2824]	; e630916c <ddrtbl_load+0xbd8>
e6308660:	e1530006 	cmp	r3, r6
e6308664:	e0ca00b2 	strh	r0, [sl], #2
e6308668:	1afffff6 	bne	e6308648 <ddrtbl_load+0xb4>
e630866c:	e1d530bc 	ldrh	r3, [r5, #12]
e6308670:	e1d520b8 	ldrh	r2, [r5, #8]
e6308674:	e0832002 	add	r2, r3, r2
e6308678:	e1c522be 	strh	r2, [r5, #46]	; 0x2e
e630867c:	e1d520ba 	ldrh	r2, [r5, #10]
e6308680:	e0833002 	add	r3, r3, r2
e6308684:	e1c533b0 	strh	r3, [r5, #48]	; 0x30
e6308688:	e59f3ae0 	ldr	r3, [pc, #2784]	; e6309170 <ddrtbl_load+0xbdc>
e630868c:	e58d300c 	str	r3, [sp, #12]
e6308690:	e59f5adc 	ldr	r5, [pc, #2780]	; e6309174 <ddrtbl_load+0xbe0>
e6308694:	e593a000 	ldr	sl, [r3]
e6308698:	e35a0c4f 	cmp	sl, #20224	; 0x4f00
e630869c:	1a00008d 	bne	e63088d8 <ddrtbl_load+0x344>
e63086a0:	e59f3ad0 	ldr	r3, [pc, #2768]	; e6309178 <ddrtbl_load+0xbe4>
e63086a4:	e5936000 	ldr	r6, [r3]
e63086a8:	e3560001 	cmp	r6, #1
e63086ac:	8a000045 	bhi	e63087c8 <ddrtbl_load+0x234>
e63086b0:	e59f1ac4 	ldr	r1, [pc, #2756]	; e630917c <ddrtbl_load+0xbe8>
e63086b4:	e3a02058 	mov	r2, #88	; 0x58
e63086b8:	e59f0ac0 	ldr	r0, [pc, #2752]	; e6309180 <ddrtbl_load+0xbec>
e63086bc:	ebfff8ec 	bl	e6306a74 <_tblcopy>
e63086c0:	e59f1abc 	ldr	r1, [pc, #2748]	; e6309184 <ddrtbl_load+0xbf0>
e63086c4:	e59f0abc 	ldr	r0, [pc, #2748]	; e6309188 <ddrtbl_load+0xbf4>
e63086c8:	e3a02025 	mov	r2, #37	; 0x25
e63086cc:	ebfff8e8 	bl	e6306a74 <_tblcopy>
e63086d0:	e59f1ab4 	ldr	r1, [pc, #2740]	; e630918c <ddrtbl_load+0xbf8>
e63086d4:	e59f0ab4 	ldr	r0, [pc, #2740]	; e6309190 <ddrtbl_load+0xbfc>
e63086d8:	e3a02025 	mov	r2, #37	; 0x25
e63086dc:	ebfff8e4 	bl	e6306a74 <_tblcopy>
e63086e0:	e59f1aac 	ldr	r1, [pc, #2732]	; e6309194 <ddrtbl_load+0xc00>
e63086e4:	e59f0aac 	ldr	r0, [pc, #2732]	; e6309198 <ddrtbl_load+0xc04>
e63086e8:	e3a0203b 	mov	r2, #59	; 0x3b
e63086ec:	ebfff8e0 	bl	e6306a74 <_tblcopy>
e63086f0:	e59f1aa4 	ldr	r1, [pc, #2724]	; e630919c <ddrtbl_load+0xc08>
e63086f4:	e59f0aa4 	ldr	r0, [pc, #2724]	; e63091a0 <ddrtbl_load+0xc0c>
e63086f8:	e3a020b5 	mov	r2, #181	; 0xb5
e63086fc:	ebfff8dc 	bl	e6306a74 <_tblcopy>
e6308700:	e3a03b01 	mov	r3, #1024	; 0x400
e6308704:	e3a02c06 	mov	r2, #1536	; 0x600
e6308708:	e5853000 	str	r3, [r5]
e630870c:	e59f3a90 	ldr	r3, [pc, #2704]	; e63091a4 <ddrtbl_load+0xc10>
e6308710:	e5832000 	str	r2, [r3]
e6308714:	e3a02d1a 	mov	r2, #1664	; 0x680
e6308718:	e59f3a88 	ldr	r3, [pc, #2696]	; e63091a8 <ddrtbl_load+0xc14>
e630871c:	e5832000 	str	r2, [r3]
e6308720:	e3a02c07 	mov	r2, #1792	; 0x700
e6308724:	e59f3a80 	ldr	r3, [pc, #2688]	; e63091ac <ddrtbl_load+0xc18>
e6308728:	e5832000 	str	r2, [r3]
e630872c:	e3a02c02 	mov	r2, #512	; 0x200
e6308730:	e59f3a78 	ldr	r3, [pc, #2680]	; e63091b0 <ddrtbl_load+0xc1c>
e6308734:	e5832000 	str	r2, [r3]
e6308738:	e3a03080 	mov	r3, #128	; 0x80
e630873c:	e59f2a70 	ldr	r2, [pc, #2672]	; e63091b4 <ddrtbl_load+0xc20>
e6308740:	e5823000 	str	r3, [r2]
e6308744:	e59f2a6c 	ldr	r2, [pc, #2668]	; e63091b8 <ddrtbl_load+0xc24>
e6308748:	e5823000 	str	r3, [r2]
e630874c:	e3a02058 	mov	r2, #88	; 0x58
e6308750:	e59f3a64 	ldr	r3, [pc, #2660]	; e63091bc <ddrtbl_load+0xc28>
e6308754:	e5832000 	str	r2, [r3]
e6308758:	e3a03025 	mov	r3, #37	; 0x25
e630875c:	e59f2a5c 	ldr	r2, [pc, #2652]	; e63091c0 <ddrtbl_load+0xc2c>
e6308760:	e5823000 	str	r3, [r2]
e6308764:	e59f2a58 	ldr	r2, [pc, #2648]	; e63091c4 <ddrtbl_load+0xc30>
e6308768:	e5823000 	str	r3, [r2]
e630876c:	e3a0203b 	mov	r2, #59	; 0x3b
e6308770:	e59f3a50 	ldr	r3, [pc, #2640]	; e63091c8 <ddrtbl_load+0xc34>
e6308774:	e5832000 	str	r2, [r3]
e6308778:	e3a020b5 	mov	r2, #181	; 0xb5
e630877c:	e59f3a48 	ldr	r3, [pc, #2632]	; e63091cc <ddrtbl_load+0xc38>
e6308780:	e5832000 	str	r2, [r3]
e6308784:	e3a02001 	mov	r2, #1
e6308788:	e59f3a40 	ldr	r3, [pc, #2624]	; e63091d0 <ddrtbl_load+0xc3c>
e630878c:	e1560002 	cmp	r6, r2
e6308790:	e5832000 	str	r2, [r3]
e6308794:	1a000038 	bne	e630887c <ddrtbl_load+0x2e8>
e6308798:	e3012142 	movw	r2, #4418	; 0x1142
e630879c:	e3a01f5a 	mov	r1, #360	; 0x168
e63087a0:	e59f09f0 	ldr	r0, [pc, #2544]	; e6309198 <ddrtbl_load+0xc04>
e63087a4:	ebfffad1 	bl	e63072f0 <ddrtbl_setval>
e63087a8:	e59f09e8 	ldr	r0, [pc, #2536]	; e6309198 <ddrtbl_load+0xc04>
e63087ac:	e3012142 	movw	r2, #4418	; 0x1142
e63087b0:	e300117f 	movw	r1, #383	; 0x17f
e63087b4:	ebfffacd 	bl	e63072f0 <ddrtbl_setval>
e63087b8:	ea00002f 	b	e630887c <ddrtbl_load+0x2e8>
e63087bc:	e3540005 	cmp	r4, #5
e63087c0:	23a04005 	movcs	r4, #5
e63087c4:	eaffff89 	b	e63085f0 <ddrtbl_load+0x5c>
e63087c8:	e59f1a04 	ldr	r1, [pc, #2564]	; e63091d4 <ddrtbl_load+0xc40>
e63087cc:	e3a02061 	mov	r2, #97	; 0x61
e63087d0:	e59f09a8 	ldr	r0, [pc, #2472]	; e6309180 <ddrtbl_load+0xbec>
e63087d4:	ebfff8a6 	bl	e6306a74 <_tblcopy>
e63087d8:	e59f19f8 	ldr	r1, [pc, #2552]	; e63091d8 <ddrtbl_load+0xc44>
e63087dc:	e59f09a4 	ldr	r0, [pc, #2468]	; e6309188 <ddrtbl_load+0xbf4>
e63087e0:	e3a02025 	mov	r2, #37	; 0x25
e63087e4:	ebfff8a2 	bl	e6306a74 <_tblcopy>
e63087e8:	e59f19ec 	ldr	r1, [pc, #2540]	; e63091dc <ddrtbl_load+0xc48>
e63087ec:	e59f09a4 	ldr	r0, [pc, #2468]	; e6309198 <ddrtbl_load+0xc04>
e63087f0:	e3a0204f 	mov	r2, #79	; 0x4f
e63087f4:	ebfff89e 	bl	e6306a74 <_tblcopy>
e63087f8:	e59f19e0 	ldr	r1, [pc, #2528]	; e63091e0 <ddrtbl_load+0xc4c>
e63087fc:	e59f099c 	ldr	r0, [pc, #2460]	; e63091a0 <ddrtbl_load+0xc0c>
e6308800:	e3a020f5 	mov	r2, #245	; 0xf5
e6308804:	ebfff89a 	bl	e6306a74 <_tblcopy>
e6308808:	e3a03b01 	mov	r3, #1024	; 0x400
e630880c:	e3a02c06 	mov	r2, #1536	; 0x600
e6308810:	e5853000 	str	r3, [r5]
e6308814:	e59f3988 	ldr	r3, [pc, #2440]	; e63091a4 <ddrtbl_load+0xc10>
e6308818:	e5832000 	str	r2, [r3]
e630881c:	e3a02d1a 	mov	r2, #1664	; 0x680
e6308820:	e59f3984 	ldr	r3, [pc, #2436]	; e63091ac <ddrtbl_load+0xc18>
e6308824:	e5832000 	str	r2, [r3]
e6308828:	e3a02c02 	mov	r2, #512	; 0x200
e630882c:	e59f397c 	ldr	r3, [pc, #2428]	; e63091b0 <ddrtbl_load+0xc1c>
e6308830:	e5832000 	str	r2, [r3]
e6308834:	e3a02080 	mov	r2, #128	; 0x80
e6308838:	e59f3974 	ldr	r3, [pc, #2420]	; e63091b4 <ddrtbl_load+0xc20>
e630883c:	e5832000 	str	r2, [r3]
e6308840:	e3a02061 	mov	r2, #97	; 0x61
e6308844:	e59f3970 	ldr	r3, [pc, #2416]	; e63091bc <ddrtbl_load+0xc28>
e6308848:	e5832000 	str	r2, [r3]
e630884c:	e3a02025 	mov	r2, #37	; 0x25
e6308850:	e59f3968 	ldr	r3, [pc, #2408]	; e63091c0 <ddrtbl_load+0xc2c>
e6308854:	e5832000 	str	r2, [r3]
e6308858:	e3a0204f 	mov	r2, #79	; 0x4f
e630885c:	e59f3964 	ldr	r3, [pc, #2404]	; e63091c8 <ddrtbl_load+0xc34>
e6308860:	e5832000 	str	r2, [r3]
e6308864:	e3a020f5 	mov	r2, #245	; 0xf5
e6308868:	e59f395c 	ldr	r3, [pc, #2396]	; e63091cc <ddrtbl_load+0xc38>
e630886c:	e5832000 	str	r2, [r3]
e6308870:	e3a02000 	mov	r2, #0
e6308874:	e59f3954 	ldr	r3, [pc, #2388]	; e63091d0 <ddrtbl_load+0xc3c>
e6308878:	e5832000 	str	r2, [r3]
e630887c:	e24a5c55 	sub	r5, sl, #21760	; 0x5500
e6308880:	e3d55c01 	bics	r5, r5, #256	; 0x100
e6308884:	1a00008c 	bne	e6308abc <ddrtbl_load+0x528>
e6308888:	e59d1004 	ldr	r1, [sp, #4]
e630888c:	e1a03005 	mov	r3, r5
e6308890:	e59d0008 	ldr	r0, [sp, #8]
e6308894:	e3012b58 	movw	r2, #7000	; 0x1b58
e6308898:	e5911000 	ldr	r1, [r1]
e630889c:	e5900000 	ldr	r0, [r0]
e63088a0:	ebfff87a 	bl	e6306a90 <_f_scale>
e63088a4:	e59f38b0 	ldr	r3, [pc, #2224]	; e630915c <ddrtbl_load+0xbc8>
e63088a8:	e2800007 	add	r0, r0, #7
e63088ac:	e6ff0070 	uxth	r0, r0
e63088b0:	e1500007 	cmp	r0, r7
e63088b4:	21a00007 	movcs	r0, r7
e63088b8:	e35a0c4f 	cmp	sl, #20224	; 0x4f00
e63088bc:	e1c302ba 	strh	r0, [r3, #42]	; 0x2a
e63088c0:	1a00008d 	bne	e6308afc <ddrtbl_load+0x568>
e63088c4:	e59f38ac 	ldr	r3, [pc, #2220]	; e6309178 <ddrtbl_load+0xbe4>
e63088c8:	e5933000 	ldr	r3, [r3]
e63088cc:	e3530001 	cmp	r3, #1
e63088d0:	8a000089 	bhi	e6308afc <ddrtbl_load+0x568>
e63088d4:	ea0001d7 	b	e6309038 <ddrtbl_load+0xaa4>
e63088d8:	e35a0c52 	cmp	sl, #20992	; 0x5200
e63088dc:	1a00003e 	bne	e63089dc <ddrtbl_load+0x448>
e63088e0:	e59f18fc 	ldr	r1, [pc, #2300]	; e63091e4 <ddrtbl_load+0xc50>
e63088e4:	e3a02059 	mov	r2, #89	; 0x59
e63088e8:	e59f0890 	ldr	r0, [pc, #2192]	; e6309180 <ddrtbl_load+0xbec>
e63088ec:	ebfff860 	bl	e6306a74 <_tblcopy>
e63088f0:	e59f18f0 	ldr	r1, [pc, #2288]	; e63091e8 <ddrtbl_load+0xc54>
e63088f4:	e59f088c 	ldr	r0, [pc, #2188]	; e6309188 <ddrtbl_load+0xbf4>
e63088f8:	e3a02025 	mov	r2, #37	; 0x25
e63088fc:	ebfff85c 	bl	e6306a74 <_tblcopy>
e6308900:	e59f18e4 	ldr	r1, [pc, #2276]	; e63091ec <ddrtbl_load+0xc58>
e6308904:	e59f0884 	ldr	r0, [pc, #2180]	; e6309190 <ddrtbl_load+0xbfc>
e6308908:	e3a02025 	mov	r2, #37	; 0x25
e630890c:	ebfff858 	bl	e6306a74 <_tblcopy>
e6308910:	e59f18d8 	ldr	r1, [pc, #2264]	; e63091f0 <ddrtbl_load+0xc5c>
e6308914:	e59f087c 	ldr	r0, [pc, #2172]	; e6309198 <ddrtbl_load+0xc04>
e6308918:	e3a02040 	mov	r2, #64	; 0x40
e630891c:	ebfff854 	bl	e6306a74 <_tblcopy>
e6308920:	e59f18cc 	ldr	r1, [pc, #2252]	; e63091f4 <ddrtbl_load+0xc60>
e6308924:	e59f0874 	ldr	r0, [pc, #2164]	; e63091a0 <ddrtbl_load+0xc0c>
e6308928:	e3a020ca 	mov	r2, #202	; 0xca
e630892c:	ebfff850 	bl	e6306a74 <_tblcopy>
e6308930:	e3a03b02 	mov	r3, #2048	; 0x800
e6308934:	e3a02c0a 	mov	r2, #2560	; 0xa00
e6308938:	e5853000 	str	r3, [r5]
e630893c:	e59f3860 	ldr	r3, [pc, #2144]	; e63091a4 <ddrtbl_load+0xc10>
e6308940:	e5832000 	str	r2, [r3]
e6308944:	e3a02d2a 	mov	r2, #2688	; 0xa80
e6308948:	e59f3858 	ldr	r3, [pc, #2136]	; e63091a8 <ddrtbl_load+0xc14>
e630894c:	e5832000 	str	r2, [r3]
e6308950:	e3a02d2e 	mov	r2, #2944	; 0xb80
e6308954:	e59f3850 	ldr	r3, [pc, #2128]	; e63091ac <ddrtbl_load+0xc18>
e6308958:	e5832000 	str	r2, [r3]
e630895c:	e3a02c02 	mov	r2, #512	; 0x200
e6308960:	e59f3848 	ldr	r3, [pc, #2120]	; e63091b0 <ddrtbl_load+0xc1c>
e6308964:	e5832000 	str	r2, [r3]
e6308968:	e3a03080 	mov	r3, #128	; 0x80
e630896c:	e59f2840 	ldr	r2, [pc, #2112]	; e63091b4 <ddrtbl_load+0xc20>
e6308970:	e5823000 	str	r3, [r2]
e6308974:	e59f283c 	ldr	r2, [pc, #2108]	; e63091b8 <ddrtbl_load+0xc24>
e6308978:	e5823000 	str	r3, [r2]
e630897c:	e3a02059 	mov	r2, #89	; 0x59
e6308980:	e59f3834 	ldr	r3, [pc, #2100]	; e63091bc <ddrtbl_load+0xc28>
e6308984:	e5832000 	str	r2, [r3]
e6308988:	e3a03025 	mov	r3, #37	; 0x25
e630898c:	e59f282c 	ldr	r2, [pc, #2092]	; e63091c0 <ddrtbl_load+0xc2c>
e6308990:	e5823000 	str	r3, [r2]
e6308994:	e59f2828 	ldr	r2, [pc, #2088]	; e63091c4 <ddrtbl_load+0xc30>
e6308998:	e5823000 	str	r3, [r2]
e630899c:	e3a02040 	mov	r2, #64	; 0x40
e63089a0:	e59f3820 	ldr	r3, [pc, #2080]	; e63091c8 <ddrtbl_load+0xc34>
e63089a4:	e5832000 	str	r2, [r3]
e63089a8:	e3a020ca 	mov	r2, #202	; 0xca
e63089ac:	e59f3818 	ldr	r3, [pc, #2072]	; e63091cc <ddrtbl_load+0xc38>
e63089b0:	e5832000 	str	r2, [r3]
e63089b4:	e3a02002 	mov	r2, #2
e63089b8:	e59f3810 	ldr	r3, [pc, #2064]	; e63091d0 <ddrtbl_load+0xc3c>
e63089bc:	e5832000 	str	r2, [r3]
e63089c0:	e59f37b0 	ldr	r3, [pc, #1968]	; e6309178 <ddrtbl_load+0xbe4>
e63089c4:	e5932000 	ldr	r2, [r3]
e63089c8:	e3520000 	cmp	r2, #0
e63089cc:	1affffaa 	bne	e630887c <ddrtbl_load+0x2e8>
e63089d0:	e59f07a8 	ldr	r0, [pc, #1960]	; e6309180 <ddrtbl_load+0xbec>
e63089d4:	e3a0102f 	mov	r1, #47	; 0x2f
e63089d8:	eaffff75 	b	e63087b4 <ddrtbl_load+0x220>
e63089dc:	e59f1814 	ldr	r1, [pc, #2068]	; e63091f8 <ddrtbl_load+0xc64>
e63089e0:	e3a02065 	mov	r2, #101	; 0x65
e63089e4:	e59f0794 	ldr	r0, [pc, #1940]	; e6309180 <ddrtbl_load+0xbec>
e63089e8:	ebfff821 	bl	e6306a74 <_tblcopy>
e63089ec:	e59f1808 	ldr	r1, [pc, #2056]	; e63091fc <ddrtbl_load+0xc68>
e63089f0:	e59f0790 	ldr	r0, [pc, #1936]	; e6309188 <ddrtbl_load+0xbf4>
e63089f4:	e3a02025 	mov	r2, #37	; 0x25
e63089f8:	ebfff81d 	bl	e6306a74 <_tblcopy>
e63089fc:	e59f17fc 	ldr	r1, [pc, #2044]	; e6309200 <ddrtbl_load+0xc6c>
e6308a00:	e59f0788 	ldr	r0, [pc, #1928]	; e6309190 <ddrtbl_load+0xbfc>
e6308a04:	e3a02025 	mov	r2, #37	; 0x25
e6308a08:	ebfff819 	bl	e6306a74 <_tblcopy>
e6308a0c:	e59f17f0 	ldr	r1, [pc, #2032]	; e6309204 <ddrtbl_load+0xc70>
e6308a10:	e59f0780 	ldr	r0, [pc, #1920]	; e6309198 <ddrtbl_load+0xc04>
e6308a14:	e3a02057 	mov	r2, #87	; 0x57
e6308a18:	ebfff815 	bl	e6306a74 <_tblcopy>
e6308a1c:	e59f17e4 	ldr	r1, [pc, #2020]	; e6309208 <ddrtbl_load+0xc74>
e6308a20:	e59f0778 	ldr	r0, [pc, #1912]	; e63091a0 <ddrtbl_load+0xc0c>
e6308a24:	e300211e 	movw	r2, #286	; 0x11e
e6308a28:	ebfff811 	bl	e6306a74 <_tblcopy>
e6308a2c:	e3a03b02 	mov	r3, #2048	; 0x800
e6308a30:	e3a02c0a 	mov	r2, #2560	; 0xa00
e6308a34:	e5853000 	str	r3, [r5]
e6308a38:	e59f3764 	ldr	r3, [pc, #1892]	; e63091a4 <ddrtbl_load+0xc10>
e6308a3c:	e5832000 	str	r2, [r3]
e6308a40:	e3a02d2a 	mov	r2, #2688	; 0xa80
e6308a44:	e59f375c 	ldr	r3, [pc, #1884]	; e63091a8 <ddrtbl_load+0xc14>
e6308a48:	e5832000 	str	r2, [r3]
e6308a4c:	e3a02d2e 	mov	r2, #2944	; 0xb80
e6308a50:	e59f3754 	ldr	r3, [pc, #1876]	; e63091ac <ddrtbl_load+0xc18>
e6308a54:	e5832000 	str	r2, [r3]
e6308a58:	e3a02c02 	mov	r2, #512	; 0x200
e6308a5c:	e59f374c 	ldr	r3, [pc, #1868]	; e63091b0 <ddrtbl_load+0xc1c>
e6308a60:	e5832000 	str	r2, [r3]
e6308a64:	e3a03080 	mov	r3, #128	; 0x80
e6308a68:	e59f2744 	ldr	r2, [pc, #1860]	; e63091b4 <ddrtbl_load+0xc20>
e6308a6c:	e5823000 	str	r3, [r2]
e6308a70:	e59f2740 	ldr	r2, [pc, #1856]	; e63091b8 <ddrtbl_load+0xc24>
e6308a74:	e5823000 	str	r3, [r2]
e6308a78:	e3a02065 	mov	r2, #101	; 0x65
e6308a7c:	e59f3738 	ldr	r3, [pc, #1848]	; e63091bc <ddrtbl_load+0xc28>
e6308a80:	e5832000 	str	r2, [r3]
e6308a84:	e3a03025 	mov	r3, #37	; 0x25
e6308a88:	e59f2730 	ldr	r2, [pc, #1840]	; e63091c0 <ddrtbl_load+0xc2c>
e6308a8c:	e5823000 	str	r3, [r2]
e6308a90:	e59f272c 	ldr	r2, [pc, #1836]	; e63091c4 <ddrtbl_load+0xc30>
e6308a94:	e5823000 	str	r3, [r2]
e6308a98:	e3a02057 	mov	r2, #87	; 0x57
e6308a9c:	e59f3724 	ldr	r3, [pc, #1828]	; e63091c8 <ddrtbl_load+0xc34>
e6308aa0:	e5832000 	str	r2, [r3]
e6308aa4:	e300211e 	movw	r2, #286	; 0x11e
e6308aa8:	e59f371c 	ldr	r3, [pc, #1820]	; e63091cc <ddrtbl_load+0xc38>
e6308aac:	e5832000 	str	r2, [r3]
e6308ab0:	e3a02002 	mov	r2, #2
e6308ab4:	e59f3714 	ldr	r3, [pc, #1812]	; e63091d0 <ddrtbl_load+0xc3c>
e6308ab8:	eaffff6e 	b	e6308878 <ddrtbl_load+0x2e4>
e6308abc:	e35a0c4f 	cmp	sl, #20224	; 0x4f00
e6308ac0:	1a00015c 	bne	e6309038 <ddrtbl_load+0xaa4>
e6308ac4:	e59f36ac 	ldr	r3, [pc, #1708]	; e6309178 <ddrtbl_load+0xbe4>
e6308ac8:	e5933000 	ldr	r3, [r3]
e6308acc:	e3530001 	cmp	r3, #1
e6308ad0:	e3a03000 	mov	r3, #0
e6308ad4:	9a00014f 	bls	e6309018 <ddrtbl_load+0xa84>
e6308ad8:	e59d1004 	ldr	r1, [sp, #4]
e6308adc:	e3022328 	movw	r2, #9000	; 0x2328
e6308ae0:	e59d0008 	ldr	r0, [sp, #8]
e6308ae4:	e5911000 	ldr	r1, [r1]
e6308ae8:	e5900000 	ldr	r0, [r0]
e6308aec:	ebfff7e7 	bl	e6306a90 <_f_scale>
e6308af0:	e59f3664 	ldr	r3, [pc, #1636]	; e630915c <ddrtbl_load+0xbc8>
e6308af4:	e2800004 	add	r0, r0, #4
e6308af8:	e1c302ba 	strh	r0, [r3, #42]	; 0x2a
e6308afc:	e59f3658 	ldr	r3, [pc, #1624]	; e630915c <ddrtbl_load+0xbc8>
e6308b00:	e1d362ba 	ldrh	r6, [r3, #42]	; 0x2a
e6308b04:	e356001e 	cmp	r6, #30
e6308b08:	23a0601e 	movcs	r6, #30
e6308b0c:	e1a02006 	mov	r2, r6
e6308b10:	e3a010d1 	mov	r1, #209	; 0xd1
e6308b14:	e59f0664 	ldr	r0, [pc, #1636]	; e6309180 <ddrtbl_load+0xbec>
e6308b18:	e2467002 	sub	r7, r6, #2
e6308b1c:	ebfff9f3 	bl	e63072f0 <ddrtbl_setval>
e6308b20:	e1a02007 	mov	r2, r7
e6308b24:	e59f0654 	ldr	r0, [pc, #1620]	; e6309180 <ddrtbl_load+0xbec>
e6308b28:	e3a010d2 	mov	r1, #210	; 0xd2
e6308b2c:	ebfff9ef 	bl	e63072f0 <ddrtbl_setval>
e6308b30:	e3550000 	cmp	r5, #0
e6308b34:	1a000003 	bne	e6308b48 <ddrtbl_load+0x5b4>
e6308b38:	e1a02007 	mov	r2, r7
e6308b3c:	e3a010d3 	mov	r1, #211	; 0xd3
e6308b40:	e59f0638 	ldr	r0, [pc, #1592]	; e6309180 <ddrtbl_load+0xbec>
e6308b44:	ebfff9e9 	bl	e63072f0 <ddrtbl_setval>
e6308b48:	e59d3014 	ldr	r3, [sp, #20]
e6308b4c:	e30012ce 	movw	r1, #718	; 0x2ce
e6308b50:	e5d32000 	ldrb	r2, [r3]
e6308b54:	e59f0644 	ldr	r0, [pc, #1604]	; e63091a0 <ddrtbl_load+0xc0c>
e6308b58:	e0422006 	sub	r2, r2, r6
e6308b5c:	ebfff9e3 	bl	e63072f0 <ddrtbl_setval>
e6308b60:	e59f0618 	ldr	r0, [pc, #1560]	; e6309180 <ddrtbl_load+0xbec>
e6308b64:	e3a010bc 	mov	r1, #188	; 0xbc
e6308b68:	ebfff9d0 	bl	e63072b0 <ddrtbl_getval>
e6308b6c:	e30012d2 	movw	r1, #722	; 0x2d2
e6308b70:	e3500000 	cmp	r0, #0
e6308b74:	e59f0624 	ldr	r0, [pc, #1572]	; e63091a0 <ddrtbl_load+0xc0c>
e6308b78:	124bb001 	subne	fp, fp, #1
e6308b7c:	e24b2002 	sub	r2, fp, #2
e6308b80:	ebfff9da 	bl	e63072f0 <ddrtbl_setval>
e6308b84:	e1a0200b 	mov	r2, fp
e6308b88:	e59f0610 	ldr	r0, [pc, #1552]	; e63091a0 <ddrtbl_load+0xc0c>
e6308b8c:	e3001226 	movw	r1, #550	; 0x226
e6308b90:	ebfff9d6 	bl	e63072f0 <ddrtbl_setval>
e6308b94:	e59f35b8 	ldr	r3, [pc, #1464]	; e6309154 <ddrtbl_load+0xbc0>
e6308b98:	e5936000 	ldr	r6, [r3]
e6308b9c:	e5d62001 	ldrb	r2, [r6, #1]
e6308ba0:	e3520000 	cmp	r2, #0
e6308ba4:	0a000128 	beq	e630904c <ddrtbl_load+0xab8>
e6308ba8:	e3a02001 	mov	r2, #1
e6308bac:	e3a01015 	mov	r1, #21
e6308bb0:	e59f05c8 	ldr	r0, [pc, #1480]	; e6309180 <ddrtbl_load+0xbec>
e6308bb4:	ebfff9cd 	bl	e63072f0 <ddrtbl_setval>
e6308bb8:	e3a02000 	mov	r2, #0
e6308bbc:	e59f05bc 	ldr	r0, [pc, #1468]	; e6309180 <ddrtbl_load+0xbec>
e6308bc0:	e3a01058 	mov	r1, #88	; 0x58
e6308bc4:	ebfff9c9 	bl	e63072f0 <ddrtbl_setval>
e6308bc8:	e3a0300a 	mov	r3, #10
e6308bcc:	e59f05cc 	ldr	r0, [pc, #1484]	; e63091a0 <ddrtbl_load+0xc0c>
e6308bd0:	e3a01fdb 	mov	r1, #876	; 0x36c
e6308bd4:	e0248493 	mla	r4, r3, r4, r8
e6308bd8:	e5d43008 	ldrb	r3, [r4, #8]
e6308bdc:	e58d3004 	str	r3, [sp, #4]
e6308be0:	e5d43009 	ldrb	r3, [r4, #9]
e6308be4:	e58d3008 	str	r3, [sp, #8]
e6308be8:	ebfff9b0 	bl	e63072b0 <ddrtbl_getval>
e6308bec:	e5d63001 	ldrb	r3, [r6, #1]
e6308bf0:	e3a04000 	mov	r4, #0
e6308bf4:	e3530000 	cmp	r3, #0
e6308bf8:	e59f360c 	ldr	r3, [pc, #1548]	; e630920c <ddrtbl_load+0xc78>
e6308bfc:	138050c0 	orrne	r5, r0, #192	; 0xc0
e6308c00:	03c050c0 	biceq	r5, r0, #192	; 0xc0
e6308c04:	e59f2604 	ldr	r2, [pc, #1540]	; e6309210 <ddrtbl_load+0xc7c>
e6308c08:	e0839004 	add	r9, r3, r4
e6308c0c:	e59fb58c 	ldr	fp, [pc, #1420]	; e63091a0 <ddrtbl_load+0xc0c>
e6308c10:	e3a06000 	mov	r6, #0
e6308c14:	e0828004 	add	r8, r2, r4
e6308c18:	e59f25f4 	ldr	r2, [pc, #1524]	; e6309214 <ddrtbl_load+0xc80>
e6308c1c:	e0827004 	add	r7, r2, r4
e6308c20:	e1a0000b 	mov	r0, fp
e6308c24:	e2866001 	add	r6, r6, #1
e6308c28:	e59d2004 	ldr	r2, [sp, #4]
e6308c2c:	e4991004 	ldr	r1, [r9], #4
e6308c30:	ebfff9ae 	bl	e63072f0 <ddrtbl_setval>
e6308c34:	e59d2008 	ldr	r2, [sp, #8]
e6308c38:	e4981004 	ldr	r1, [r8], #4
e6308c3c:	ebfff9ab 	bl	e63072f0 <ddrtbl_setval>
e6308c40:	e4971004 	ldr	r1, [r7], #4
e6308c44:	e1a02005 	mov	r2, r5
e6308c48:	ebfff9a8 	bl	e63072f0 <ddrtbl_setval>
e6308c4c:	e59f35b8 	ldr	r3, [pc, #1464]	; e630920c <ddrtbl_load+0xc78>
e6308c50:	e3560004 	cmp	r6, #4
e6308c54:	1afffff1 	bne	e6308c20 <ddrtbl_load+0x68c>
e6308c58:	e2844010 	add	r4, r4, #16
e6308c5c:	e3540020 	cmp	r4, #32
e6308c60:	1affffe7 	bne	e6308c04 <ddrtbl_load+0x670>
e6308c64:	e59f55ac 	ldr	r5, [pc, #1452]	; e6309218 <ddrtbl_load+0xc84>
e6308c68:	e35a0c4f 	cmp	sl, #20224	; 0x4f00
e6308c6c:	1a000003 	bne	e6308c80 <ddrtbl_load+0x6ec>
e6308c70:	e59f3500 	ldr	r3, [pc, #1280]	; e6309178 <ddrtbl_load+0xbe4>
e6308c74:	e5933000 	ldr	r3, [r3]
e6308c78:	e3530001 	cmp	r3, #1
e6308c7c:	9a000070 	bls	e6308e44 <ddrtbl_load+0x8b0>
e6308c80:	e59f4510 	ldr	r4, [pc, #1296]	; e6309198 <ddrtbl_load+0xc04>
e6308c84:	e3000183 	movw	r0, #387	; 0x183
e6308c88:	ebfff773 	bl	e6306a5c <ddr_regdef_adr>
e6308c8c:	e5956000 	ldr	r6, [r5]
e6308c90:	e3051064 	movw	r1, #20580	; 0x5064
e6308c94:	e5d6360f 	ldrb	r3, [r6, #1551]	; 0x60f
e6308c98:	e1a01311 	lsl	r1, r1, r3
e6308c9c:	ebfff8f7 	bl	e6307080 <reg_ddrphy_write_a>
e6308ca0:	e3a00f5a 	mov	r0, #360	; 0x168
e6308ca4:	ebfff76c 	bl	e6306a5c <ddr_regdef_adr>
e6308ca8:	e3001169 	movw	r1, #361	; 0x169
e6308cac:	e1a07000 	mov	r7, r0
e6308cb0:	e1a00004 	mov	r0, r4
e6308cb4:	ebfff97d 	bl	e63072b0 <ddrtbl_getval>
e6308cb8:	e3a01f5a 	mov	r1, #360	; 0x168
e6308cbc:	e1a08000 	mov	r8, r0
e6308cc0:	e1a00004 	mov	r0, r4
e6308cc4:	ebfff979 	bl	e63072b0 <ddrtbl_getval>
e6308cc8:	e1801808 	orr	r1, r0, r8, lsl #16
e6308ccc:	e1a00007 	mov	r0, r7
e6308cd0:	ebfff8ea 	bl	e6307080 <reg_ddrphy_write_a>
e6308cd4:	e300016a 	movw	r0, #362	; 0x16a
e6308cd8:	ebfff75f 	bl	e6306a5c <ddr_regdef_adr>
e6308cdc:	e300116a 	movw	r1, #362	; 0x16a
e6308ce0:	e1a07000 	mov	r7, r0
e6308ce4:	e1a00004 	mov	r0, r4
e6308ce8:	ebfff970 	bl	e63072b0 <ddrtbl_getval>
e6308cec:	e1a01000 	mov	r1, r0
e6308cf0:	e1a00007 	mov	r0, r7
e6308cf4:	ebfff8e1 	bl	e6307080 <reg_ddrphy_write_a>
e6308cf8:	e300017f 	movw	r0, #383	; 0x17f
e6308cfc:	ebfff756 	bl	e6306a5c <ddr_regdef_adr>
e6308d00:	e3a01d06 	mov	r1, #384	; 0x180
e6308d04:	e1a07000 	mov	r7, r0
e6308d08:	e1a00004 	mov	r0, r4
e6308d0c:	ebfff967 	bl	e63072b0 <ddrtbl_getval>
e6308d10:	e300117f 	movw	r1, #383	; 0x17f
e6308d14:	e1a08000 	mov	r8, r0
e6308d18:	e1a00004 	mov	r0, r4
e6308d1c:	ebfff963 	bl	e63072b0 <ddrtbl_getval>
e6308d20:	e1801808 	orr	r1, r0, r8, lsl #16
e6308d24:	e1a00007 	mov	r0, r7
e6308d28:	ebfff8d4 	bl	e6307080 <reg_ddrphy_write_a>
e6308d2c:	e3000181 	movw	r0, #385	; 0x181
e6308d30:	ebfff749 	bl	e6306a5c <ddr_regdef_adr>
e6308d34:	e3001181 	movw	r1, #385	; 0x181
e6308d38:	e1a07000 	mov	r7, r0
e6308d3c:	e1a00004 	mov	r0, r4
e6308d40:	ebfff95a 	bl	e63072b0 <ddrtbl_getval>
e6308d44:	e1a01000 	mov	r1, r0
e6308d48:	e1a00007 	mov	r0, r7
e6308d4c:	ebfff8cb 	bl	e6307080 <reg_ddrphy_write_a>
e6308d50:	e3a00f56 	mov	r0, #344	; 0x158
e6308d54:	ebfff740 	bl	e6306a5c <ddr_regdef_adr>
e6308d58:	e59f344c 	ldr	r3, [pc, #1100]	; e63091ac <ddrtbl_load+0xc18>
e6308d5c:	e5933000 	ldr	r3, [r3]
e6308d60:	e0403003 	sub	r3, r0, r3
e6308d64:	e7941103 	ldr	r1, [r4, r3, lsl #2]
e6308d68:	ebfff8c4 	bl	e6307080 <reg_ddrphy_write_a>
e6308d6c:	ebfff7f0 	bl	e6306d34 <ddrphy_regif_idle>
e6308d70:	e3a00000 	mov	r0, #0
e6308d74:	ebfff672 	bl	e6306744 <pll3_control>
e6308d78:	e59f33f0 	ldr	r3, [pc, #1008]	; e6309170 <ddrtbl_load+0xbdc>
e6308d7c:	e5933000 	ldr	r3, [r3]
e6308d80:	e3530c4f 	cmp	r3, #20224	; 0x4f00
e6308d84:	1a000003 	bne	e6308d98 <ddrtbl_load+0x804>
e6308d88:	e59f33e8 	ldr	r3, [pc, #1000]	; e6309178 <ddrtbl_load+0xbe4>
e6308d8c:	e5933000 	ldr	r3, [r3]
e6308d90:	e3530001 	cmp	r3, #1
e6308d94:	9a000006 	bls	e6308db4 <ddrtbl_load+0x820>
e6308d98:	e30001d9 	movw	r0, #473	; 0x1d9
e6308d9c:	ebfff72e 	bl	e6306a5c <ddr_regdef_adr>
e6308da0:	e3a01001 	mov	r1, #1
e6308da4:	e5d63767 	ldrb	r3, [r6, #1895]	; 0x767
e6308da8:	e1a01311 	lsl	r1, r1, r3
e6308dac:	ebfff8b3 	bl	e6307080 <reg_ddrphy_write_a>
e6308db0:	ebfff7df 	bl	e6306d34 <ddrphy_regif_idle>
e6308db4:	e3a00000 	mov	r0, #0
e6308db8:	e3a06ef1 	mov	r6, #3856	; 0xf10
e6308dbc:	ebfff656 	bl	e630671c <vch_nxt>
e6308dc0:	e59f4454 	ldr	r4, [pc, #1108]	; e630921c <ddrtbl_load+0xc88>
e6308dc4:	e3500003 	cmp	r0, #3
e6308dc8:	9a0000a4 	bls	e6309060 <ddrtbl_load+0xacc>
e6308dcc:	f57ff04f 	dsb	sy
e6308dd0:	e3a00000 	mov	r0, #0
e6308dd4:	e3006f11 	movw	r6, #3857	; 0xf11
e6308dd8:	ebfff64f 	bl	e630671c <vch_nxt>
e6308ddc:	e59f4438 	ldr	r4, [pc, #1080]	; e630921c <ddrtbl_load+0xc88>
e6308de0:	e3500003 	cmp	r0, #3
e6308de4:	9a0000a1 	bls	e6309070 <ddrtbl_load+0xadc>
e6308de8:	f57ff04f 	dsb	sy
e6308dec:	e59f3360 	ldr	r3, [pc, #864]	; e6309154 <ddrtbl_load+0xbc0>
e6308df0:	e59f0428 	ldr	r0, [pc, #1064]	; e6309220 <ddrtbl_load+0xc8c>
e6308df4:	e5933000 	ldr	r3, [r3]
e6308df8:	e5d31000 	ldrb	r1, [r3]
e6308dfc:	e3a03000 	mov	r3, #0
e6308e00:	e1a02331 	lsr	r2, r1, r3
e6308e04:	e3120001 	tst	r2, #1
e6308e08:	0a000004 	beq	e6308e20 <ddrtbl_load+0x88c>
e6308e0c:	e080c403 	add	ip, r0, r3, lsl #8
e6308e10:	e59c2000 	ldr	r2, [ip]
e6308e14:	e202201f 	and	r2, r2, #31
e6308e18:	e352001f 	cmp	r2, #31
e6308e1c:	1afffffb 	bne	e6308e10 <ddrtbl_load+0x87c>
e6308e20:	e2833001 	add	r3, r3, #1
e6308e24:	e3530004 	cmp	r3, #4
e6308e28:	1afffff4 	bne	e6308e00 <ddrtbl_load+0x86c>
e6308e2c:	f57ff04f 	dsb	sy
e6308e30:	ebfff6f9 	bl	e6306a1c <wait_dbcmd>
e6308e34:	ebfff6f8 	bl	e6306a1c <wait_dbcmd>
e6308e38:	ebfff6f7 	bl	e6306a1c <wait_dbcmd>
e6308e3c:	ebfff6f6 	bl	e6306a1c <wait_dbcmd>
e6308e40:	ebfff6f5 	bl	e6306a1c <wait_dbcmd>
e6308e44:	e3a04001 	mov	r4, #1
e6308e48:	e3000135 	movw	r0, #309	; 0x135
e6308e4c:	ebfff702 	bl	e6306a5c <ddr_regdef_adr>
e6308e50:	e5953000 	ldr	r3, [r5]
e6308e54:	e5d314d7 	ldrb	r1, [r3, #1239]	; 0x4d7
e6308e58:	e1a01114 	lsl	r1, r4, r1
e6308e5c:	ebfff887 	bl	e6307080 <reg_ddrphy_write_a>
e6308e60:	e1a01004 	mov	r1, r4
e6308e64:	e3a00017 	mov	r0, #23
e6308e68:	e3a04000 	mov	r4, #0
e6308e6c:	ebfff82c 	bl	e6306f24 <ddr_setval_ach_as>
e6308e70:	e59f833c 	ldr	r8, [pc, #828]	; e63091b4 <ddrtbl_load+0xc20>
e6308e74:	e59f92f8 	ldr	r9, [pc, #760]	; e6309174 <ddrtbl_load+0xbe0>
e6308e78:	e59fa33c 	ldr	sl, [pc, #828]	; e63091bc <ddrtbl_load+0xc28>
e6308e7c:	e5986000 	ldr	r6, [r8]
e6308e80:	e3a05000 	mov	r5, #0
e6308e84:	e5993000 	ldr	r3, [r9]
e6308e88:	e59f72f0 	ldr	r7, [pc, #752]	; e6309180 <ddrtbl_load+0xbec>
e6308e8c:	e0263496 	mla	r6, r6, r4, r3
e6308e90:	e59a3000 	ldr	r3, [sl]
e6308e94:	e1530005 	cmp	r3, r5
e6308e98:	8a000078 	bhi	e6309080 <ddrtbl_load+0xaec>
e6308e9c:	e2844001 	add	r4, r4, #1
e6308ea0:	e3540004 	cmp	r4, #4
e6308ea4:	1afffff4 	bne	e6308e7c <ddrtbl_load+0x8e8>
e6308ea8:	e59f32f4 	ldr	r3, [pc, #756]	; e63091a4 <ddrtbl_load+0xc10>
e6308eac:	e3a04000 	mov	r4, #0
e6308eb0:	e59f62d0 	ldr	r6, [pc, #720]	; e6309188 <ddrtbl_load+0xbf4>
e6308eb4:	e59f8304 	ldr	r8, [pc, #772]	; e63091c0 <ddrtbl_load+0xc2c>
e6308eb8:	e1a05006 	mov	r5, r6
e6308ebc:	e5939000 	ldr	r9, [r3]
e6308ec0:	e5987000 	ldr	r7, [r8]
e6308ec4:	e1570004 	cmp	r7, r4
e6308ec8:	8a000071 	bhi	e6309094 <ddrtbl_load+0xb00>
e6308ecc:	e59d300c 	ldr	r3, [sp, #12]
e6308ed0:	e5933000 	ldr	r3, [r3]
e6308ed4:	e3530c55 	cmp	r3, #21760	; 0x5500
e6308ed8:	13530c52 	cmpne	r3, #20992	; 0x5200
e6308edc:	1a000076 	bne	e63090bc <ddrtbl_load+0xb28>
e6308ee0:	e59d3010 	ldr	r3, [sp, #16]
e6308ee4:	e5933000 	ldr	r3, [r3]
e6308ee8:	e593301c 	ldr	r3, [r3, #28]
e6308eec:	e1b03423 	lsrs	r3, r3, #8
e6308ef0:	0a000071 	beq	e63090bc <ddrtbl_load+0xb28>
e6308ef4:	e59f32ac 	ldr	r3, [pc, #684]	; e63091a8 <ddrtbl_load+0xc14>
e6308ef8:	e3a04000 	mov	r4, #0
e6308efc:	e5935000 	ldr	r5, [r3]
e6308f00:	e59f32b0 	ldr	r3, [pc, #688]	; e63091b8 <ddrtbl_load+0xc24>
e6308f04:	e5933000 	ldr	r3, [r3]
e6308f08:	e0855003 	add	r5, r5, r3
e6308f0c:	e1570004 	cmp	r7, r4
e6308f10:	1a000064 	bne	e63090a8 <ddrtbl_load+0xb14>
e6308f14:	e3a02002 	mov	r2, #2
e6308f18:	e30011d1 	movw	r1, #465	; 0x1d1
e6308f1c:	e59f0274 	ldr	r0, [pc, #628]	; e6309198 <ddrtbl_load+0xc04>
e6308f20:	ebfff8f2 	bl	e63072f0 <ddrtbl_setval>
e6308f24:	e59f22a4 	ldr	r2, [pc, #676]	; e63091d0 <ddrtbl_load+0xc3c>
e6308f28:	e59f0270 	ldr	r0, [pc, #624]	; e63091a0 <ddrtbl_load+0xc0c>
e6308f2c:	e3001366 	movw	r1, #870	; 0x366
e6308f30:	e5923000 	ldr	r3, [r2]
e6308f34:	e2433001 	sub	r3, r3, #1
e6308f38:	e5823000 	str	r3, [r2]
e6308f3c:	e3a02001 	mov	r2, #1
e6308f40:	e59f32dc 	ldr	r3, [pc, #732]	; e6309224 <ddrtbl_load+0xc90>
e6308f44:	e5832000 	str	r2, [r3]
e6308f48:	e3a02066 	mov	r2, #102	; 0x66
e6308f4c:	ebfff8e7 	bl	e63072f0 <ddrtbl_setval>
e6308f50:	e3a02066 	mov	r2, #102	; 0x66
e6308f54:	e59f0244 	ldr	r0, [pc, #580]	; e63091a0 <ddrtbl_load+0xc0c>
e6308f58:	e3a01fdf 	mov	r1, #892	; 0x37c
e6308f5c:	ebfff8e3 	bl	e63072f0 <ddrtbl_setval>
e6308f60:	e3a02066 	mov	r2, #102	; 0x66
e6308f64:	e59f0234 	ldr	r0, [pc, #564]	; e63091a0 <ddrtbl_load+0xc0c>
e6308f68:	e3001392 	movw	r1, #914	; 0x392
e6308f6c:	ebfff8df 	bl	e63072f0 <ddrtbl_setval>
e6308f70:	e3a02066 	mov	r2, #102	; 0x66
e6308f74:	e59f0224 	ldr	r0, [pc, #548]	; e63091a0 <ddrtbl_load+0xc0c>
e6308f78:	e3a01fea 	mov	r1, #936	; 0x3a8
e6308f7c:	ebfff8db 	bl	e63072f0 <ddrtbl_setval>
e6308f80:	e3a02066 	mov	r2, #102	; 0x66
e6308f84:	e59f0214 	ldr	r0, [pc, #532]	; e63091a0 <ddrtbl_load+0xc0c>
e6308f88:	e300136d 	movw	r1, #877	; 0x36d
e6308f8c:	ebfff8d7 	bl	e63072f0 <ddrtbl_setval>
e6308f90:	e3a02066 	mov	r2, #102	; 0x66
e6308f94:	e59f0204 	ldr	r0, [pc, #516]	; e63091a0 <ddrtbl_load+0xc0c>
e6308f98:	e3001383 	movw	r1, #899	; 0x383
e6308f9c:	ebfff8d3 	bl	e63072f0 <ddrtbl_setval>
e6308fa0:	e3a02066 	mov	r2, #102	; 0x66
e6308fa4:	e59f01f4 	ldr	r0, [pc, #500]	; e63091a0 <ddrtbl_load+0xc0c>
e6308fa8:	e3001399 	movw	r1, #921	; 0x399
e6308fac:	ebfff8cf 	bl	e63072f0 <ddrtbl_setval>
e6308fb0:	e3a02066 	mov	r2, #102	; 0x66
e6308fb4:	e59f01e4 	ldr	r0, [pc, #484]	; e63091a0 <ddrtbl_load+0xc0c>
e6308fb8:	e30013af 	movw	r1, #943	; 0x3af
e6308fbc:	ebfff8cb 	bl	e63072f0 <ddrtbl_setval>
e6308fc0:	e59f3208 	ldr	r3, [pc, #520]	; e63091d0 <ddrtbl_load+0xc3c>
e6308fc4:	e5937000 	ldr	r7, [r3]
e6308fc8:	e3570000 	cmp	r7, #0
e6308fcc:	1a00003e 	bne	e63090cc <ddrtbl_load+0xb38>
e6308fd0:	e59f31d4 	ldr	r3, [pc, #468]	; e63091ac <ddrtbl_load+0xc18>
e6308fd4:	e3a04000 	mov	r4, #0
e6308fd8:	e59f51b8 	ldr	r5, [pc, #440]	; e6309198 <ddrtbl_load+0xc04>
e6308fdc:	e59f61e4 	ldr	r6, [pc, #484]	; e63091c8 <ddrtbl_load+0xc34>
e6308fe0:	e5937000 	ldr	r7, [r3]
e6308fe4:	e5963000 	ldr	r3, [r6]
e6308fe8:	e1530004 	cmp	r3, r4
e6308fec:	8a00004b 	bhi	e6309120 <ddrtbl_load+0xb8c>
e6308ff0:	e59f31b8 	ldr	r3, [pc, #440]	; e63091b0 <ddrtbl_load+0xc1c>
e6308ff4:	e3a04000 	mov	r4, #0
e6308ff8:	e59f51a0 	ldr	r5, [pc, #416]	; e63091a0 <ddrtbl_load+0xc0c>
e6308ffc:	e59f61c8 	ldr	r6, [pc, #456]	; e63091cc <ddrtbl_load+0xc38>
e6309000:	e5937000 	ldr	r7, [r3]
e6309004:	e5963000 	ldr	r3, [r6]
e6309008:	e1530004 	cmp	r3, r4
e630900c:	8a000048 	bhi	e6309134 <ddrtbl_load+0xba0>
e6309010:	e28dd01c 	add	sp, sp, #28
e6309014:	e8bd8ff0 	pop	{r4, r5, r6, r7, r8, r9, sl, fp, pc}
e6309018:	e59d1004 	ldr	r1, [sp, #4]
e630901c:	e3022710 	movw	r2, #10000	; 0x2710
e6309020:	e59d0008 	ldr	r0, [sp, #8]
e6309024:	e5911000 	ldr	r1, [r1]
e6309028:	e5900000 	ldr	r0, [r0]
e630902c:	ebfff697 	bl	e6306a90 <_f_scale>
e6309030:	e59f3124 	ldr	r3, [pc, #292]	; e630915c <ddrtbl_load+0xbc8>
e6309034:	e1c302ba 	strh	r0, [r3, #42]	; 0x2a
e6309038:	e59f311c 	ldr	r3, [pc, #284]	; e630915c <ddrtbl_load+0xbc8>
e630903c:	e1d362ba 	ldrh	r6, [r3, #42]	; 0x2a
e6309040:	e356000e 	cmp	r6, #14
e6309044:	23a0600e 	movcs	r6, #14
e6309048:	eafffeaf 	b	e6308b0c <ddrtbl_load+0x578>
e630904c:	e59f012c 	ldr	r0, [pc, #300]	; e6309180 <ddrtbl_load+0xbec>
e6309050:	e3a01015 	mov	r1, #21
e6309054:	ebfff8a5 	bl	e63072f0 <ddrtbl_setval>
e6309058:	e3a02c01 	mov	r2, #256	; 0x100
e630905c:	eafffed6 	b	e6308bbc <ddrtbl_load+0x628>
e6309060:	e7846300 	str	r6, [r4, r0, lsl #6]
e6309064:	e2800001 	add	r0, r0, #1
e6309068:	ebfff5ab 	bl	e630671c <vch_nxt>
e630906c:	eaffff54 	b	e6308dc4 <ddrtbl_load+0x830>
e6309070:	e7846300 	str	r6, [r4, r0, lsl #6]
e6309074:	e2800001 	add	r0, r0, #1
e6309078:	ebfff5a7 	bl	e630671c <vch_nxt>
e630907c:	eaffff57 	b	e6308de0 <ddrtbl_load+0x84c>
e6309080:	e4971004 	ldr	r1, [r7], #4
e6309084:	e0850006 	add	r0, r5, r6
e6309088:	ebfff7fc 	bl	e6307080 <reg_ddrphy_write_a>
e630908c:	e2855001 	add	r5, r5, #1
e6309090:	eaffff7e 	b	e6308e90 <ddrtbl_load+0x8fc>
e6309094:	e4951004 	ldr	r1, [r5], #4
e6309098:	e0840009 	add	r0, r4, r9
e630909c:	ebfff7f7 	bl	e6307080 <reg_ddrphy_write_a>
e63090a0:	e2844001 	add	r4, r4, #1
e63090a4:	eaffff85 	b	e6308ec0 <ddrtbl_load+0x92c>
e63090a8:	e4961004 	ldr	r1, [r6], #4
e63090ac:	e0840005 	add	r0, r4, r5
e63090b0:	ebfff7f2 	bl	e6307080 <reg_ddrphy_write_a>
e63090b4:	e2844001 	add	r4, r4, #1
e63090b8:	eaffff93 	b	e6308f0c <ddrtbl_load+0x978>
e63090bc:	e59f3160 	ldr	r3, [pc, #352]	; e6309224 <ddrtbl_load+0xc90>
e63090c0:	e3a02000 	mov	r2, #0
e63090c4:	e5832000 	str	r2, [r3]
e63090c8:	eaffffbc 	b	e6308fc0 <ddrtbl_load+0xa2c>
e63090cc:	e59f90e4 	ldr	r9, [pc, #228]	; e63091b8 <ddrtbl_load+0xc24>
e63090d0:	e3a04000 	mov	r4, #0
e63090d4:	e59fa0cc 	ldr	sl, [pc, #204]	; e63091a8 <ddrtbl_load+0xc14>
e63090d8:	e59fb0e4 	ldr	fp, [pc, #228]	; e63091c4 <ddrtbl_load+0xc30>
e63090dc:	e5996000 	ldr	r6, [r9]
e63090e0:	e3a05000 	mov	r5, #0
e63090e4:	e59a3000 	ldr	r3, [sl]
e63090e8:	e59f80a0 	ldr	r8, [pc, #160]	; e6309190 <ddrtbl_load+0xbfc>
e63090ec:	e0263496 	mla	r6, r6, r4, r3
e63090f0:	e59b3000 	ldr	r3, [fp]
e63090f4:	e1530005 	cmp	r3, r5
e63090f8:	8a000003 	bhi	e630910c <ddrtbl_load+0xb78>
e63090fc:	e2844001 	add	r4, r4, #1
e6309100:	e1570004 	cmp	r7, r4
e6309104:	1afffff4 	bne	e63090dc <ddrtbl_load+0xb48>
e6309108:	eaffffb0 	b	e6308fd0 <ddrtbl_load+0xa3c>
e630910c:	e4981004 	ldr	r1, [r8], #4
e6309110:	e0850006 	add	r0, r5, r6
e6309114:	ebfff7d9 	bl	e6307080 <reg_ddrphy_write_a>
e6309118:	e2855001 	add	r5, r5, #1
e630911c:	eafffff3 	b	e63090f0 <ddrtbl_load+0xb5c>
e6309120:	e4951004 	ldr	r1, [r5], #4
e6309124:	e0840007 	add	r0, r4, r7
e6309128:	ebfff7d4 	bl	e6307080 <reg_ddrphy_write_a>
e630912c:	e2844001 	add	r4, r4, #1
e6309130:	eaffffab 	b	e6308fe4 <ddrtbl_load+0xa50>
e6309134:	e4951004 	ldr	r1, [r5], #4
e6309138:	e0840007 	add	r0, r4, r7
e630913c:	ebfff7cf 	bl	e6307080 <reg_ddrphy_write_a>
e6309140:	e2844001 	add	r4, r4, #1
e6309144:	eaffffae 	b	e6309004 <ddrtbl_load+0xa70>
e6309148:	eb022d90 	.word	0xeb022d90
e630914c:	eb022d8c 	.word	0xeb022d8c
e6309150:	e63165fe 	.word	0xe63165fe
e6309154:	eb02201c 	.word	0xeb02201c
e6309158:	eb022da4 	.word	0xeb022da4
e630915c:	eb023fb4 	.word	0xeb023fb4
e6309160:	e6316538 	.word	0xe6316538
e6309164:	eb023fe8 	.word	0xeb023fe8
e6309168:	eb023fe9 	.word	0xeb023fe9
e630916c:	e6316594 	.word	0xe6316594
e6309170:	eb022058 	.word	0xeb022058
e6309174:	eb022044 	.word	0xeb022044
e6309178:	eb022054 	.word	0xeb022054
e630917c:	e630cc04 	.word	0xe630cc04
e6309180:	eb02265c 	.word	0xeb02265c
e6309184:	e630c9b4 	.word	0xe630c9b4
e6309188:	eb02245c 	.word	0xeb02245c
e630918c:	e630c7f8 	.word	0xe630c7f8
e6309190:	eb02225c 	.word	0xeb02225c
e6309194:	e630c374 	.word	0xe630c374
e6309198:	eb02205c 	.word	0xeb02205c
e630919c:	e630d1e0 	.word	0xe630d1e0
e63091a0:	eb02285c 	.word	0xeb02285c
e63091a4:	eb02203c 	.word	0xeb02203c
e63091a8:	eb022030 	.word	0xeb022030
e63091ac:	eb022024 	.word	0xeb022024
e63091b0:	eb022050 	.word	0xeb022050
e63091b4:	eb022048 	.word	0xeb022048
e63091b8:	eb022034 	.word	0xeb022034
e63091bc:	eb022040 	.word	0xeb022040
e63091c0:	eb022038 	.word	0xeb022038
e63091c4:	eb02202c 	.word	0xeb02202c
e63091c8:	eb022020 	.word	0xeb022020
e63091cc:	eb02204c 	.word	0xeb02204c
e63091d0:	eb022028 	.word	0xeb022028
e63091d4:	e630cd64 	.word	0xe630cd64
e63091d8:	e630ca48 	.word	0xe630ca48
e63091dc:	e630c460 	.word	0xe630c460
e63091e0:	e630d4b4 	.word	0xe630d4b4
e63091e4:	e630cee8 	.word	0xe630cee8
e63091e8:	e630cadc 	.word	0xe630cadc
e63091ec:	e630c88c 	.word	0xe630c88c
e63091f0:	e630c59c 	.word	0xe630c59c
e63091f4:	e630d888 	.word	0xe630d888
e63091f8:	e630d04c 	.word	0xe630d04c
e63091fc:	e630cb70 	.word	0xe630cb70
e6309200:	e630c920 	.word	0xe630c920
e6309204:	e630c69c 	.word	0xe630c69c
e6309208:	e630dbb0 	.word	0xe630dbb0
e630920c:	e6312c74 	.word	0xe6312c74
e6309210:	e6312c94 	.word	0xe6312c94
e6309214:	e6312cb4 	.word	0xe6312cb4
e6309218:	eb022db0 	.word	0xeb022db0
e630921c:	e6790604 	.word	0xe6790604
e6309220:	e6794054 	.word	0xe6794054
e6309224:	eb022d98 	.word	0xeb022d98

e6309228 <boardcnf_get_brd_clk>:
e6309228:	e59f3068 	ldr	r3, [pc, #104]	; e6309298 <boardcnf_get_brd_clk+0x70>
e630922c:	e5933000 	ldr	r3, [r3]
e6309230:	e3530c4f 	cmp	r3, #20224	; 0x4f00
e6309234:	1a000004 	bne	e630924c <boardcnf_get_brd_clk+0x24>
e6309238:	e59f305c 	ldr	r3, [pc, #92]	; e630929c <boardcnf_get_brd_clk+0x74>
e630923c:	e5933000 	ldr	r3, [r3]
e6309240:	e3530000 	cmp	r3, #0
e6309244:	03a03032 	moveq	r3, #50	; 0x32
e6309248:	0a00000e 	beq	e6309288 <boardcnf_get_brd_clk+0x60>
e630924c:	e59f304c 	ldr	r3, [pc, #76]	; e63092a0 <boardcnf_get_brd_clk+0x78>
e6309250:	e5933060 	ldr	r3, [r3, #96]	; 0x60
e6309254:	e7e136d3 	ubfx	r3, r3, #13, #2
e6309258:	e3530002 	cmp	r3, #2
e630925c:	0a000008 	beq	e6309284 <boardcnf_get_brd_clk+0x5c>
e6309260:	e3530003 	cmp	r3, #3
e6309264:	03a00064 	moveq	r0, #100	; 0x64
e6309268:	0a000003 	beq	e630927c <boardcnf_get_brd_clk+0x54>
e630926c:	e3530001 	cmp	r3, #1
e6309270:	13a00032 	movne	r0, #50	; 0x32
e6309274:	e3a03003 	mov	r3, #3
e6309278:	03a0003c 	moveq	r0, #60	; 0x3c
e630927c:	e5810000 	str	r0, [r1]
e6309280:	ea000002 	b	e6309290 <boardcnf_get_brd_clk+0x68>
e6309284:	e3a0304b 	mov	r3, #75	; 0x4b
e6309288:	e5813000 	str	r3, [r1]
e630928c:	e3a03003 	mov	r3, #3
e6309290:	e5823000 	str	r3, [r2]
e6309294:	e12fff1e 	bx	lr
e6309298:	eb022058 	.word	0xeb022058
e630929c:	eb022054 	.word	0xeb022054
e63092a0:	e6160000 	.word	0xe6160000

e63092a4 <boardcnf_get_ddr_mbps>:
e63092a4:	e59f3070 	ldr	r3, [pc, #112]	; e630931c <boardcnf_get_ddr_mbps+0x78>
e63092a8:	e5933000 	ldr	r3, [r3]
e63092ac:	e3530c56 	cmp	r3, #22016	; 0x5600
e63092b0:	e59f3068 	ldr	r3, [pc, #104]	; e6309320 <boardcnf_get_ddr_mbps+0x7c>
e63092b4:	e5933060 	ldr	r3, [r3, #96]	; 0x60
e63092b8:	1a000007 	bne	e63092dc <boardcnf_get_ddr_mbps+0x38>
e63092bc:	e3130702 	tst	r3, #524288	; 0x80000
e63092c0:	1a000003 	bne	e63092d4 <boardcnf_get_ddr_mbps+0x30>
e63092c4:	e3a03d32 	mov	r3, #3200	; 0xc80
e63092c8:	e5813000 	str	r3, [r1]
e63092cc:	e3a03001 	mov	r3, #1
e63092d0:	ea00000d 	b	e630930c <boardcnf_get_ddr_mbps+0x68>
e63092d4:	e3a03d19 	mov	r3, #1600	; 0x640
e63092d8:	eafffffa 	b	e63092c8 <boardcnf_get_ddr_mbps+0x24>
e63092dc:	e1a038a3 	lsr	r3, r3, #17
e63092e0:	e2033005 	and	r3, r3, #5
e63092e4:	e18330a3 	orr	r3, r3, r3, lsr #1
e63092e8:	e2033003 	and	r3, r3, #3
e63092ec:	e3530002 	cmp	r3, #2
e63092f0:	0a000007 	beq	e6309314 <boardcnf_get_ddr_mbps+0x70>
e63092f4:	e3530003 	cmp	r3, #3
e63092f8:	0afffff5 	beq	e63092d4 <boardcnf_get_ddr_mbps+0x30>
e63092fc:	e3530001 	cmp	r3, #1
e6309300:	03a00eaf 	moveq	r0, #2800	; 0xaf0
e6309304:	05810000 	streq	r0, [r1]
e6309308:	1affffed 	bne	e63092c4 <boardcnf_get_ddr_mbps+0x20>
e630930c:	e5823000 	str	r3, [r2]
e6309310:	e12fff1e 	bx	lr
e6309314:	e3a03e96 	mov	r3, #2400	; 0x960
e6309318:	eaffffea 	b	e63092c8 <boardcnf_get_ddr_mbps+0x24>
e630931c:	eb022058 	.word	0xeb022058
e6309320:	e6160000 	.word	0xe6160000

e6309324 <InitDram>:
e6309324:	e59f3d28 	ldr	r3, [pc, #3368]	; e630a054 <InitDram+0xd30>
e6309328:	e92d4ff0 	push	{r4, r5, r6, r7, r8, r9, sl, fp, lr}
e630932c:	e593203c 	ldr	r2, [r3, #60]	; 0x3c
e6309330:	e24dd0a4 	sub	sp, sp, #164	; 0xa4
e6309334:	e3120501 	tst	r2, #4194304	; 0x400000
e6309338:	1a000055 	bne	e6309494 <InitDram+0x170>
e630933c:	e59f2e40 	ldr	r2, [pc, #3648]	; e630a184 <InitDram+0xe60>
e6309340:	e5923020 	ldr	r3, [r2, #32]
e6309344:	e3130040 	tst	r3, #64	; 0x40
e6309348:	13c33041 	bicne	r3, r3, #65	; 0x41
e630934c:	03833001 	orreq	r3, r3, #1
e6309350:	e5823020 	str	r3, [r2, #32]
e6309354:	e3e02aff 	mvn	r2, #1044480	; 0xff000
e6309358:	e59f1e40 	ldr	r1, [pc, #3648]	; e630a1a0 <InitDram+0xe7c>
e630935c:	e59f4e54 	ldr	r4, [pc, #3668]	; e630a1b8 <InitDram+0xe94>
e6309360:	e5123fbb 	ldr	r3, [r2, #-4027]	; 0xfffff045
e6309364:	e2033c7f 	and	r3, r3, #32512	; 0x7f00
e6309368:	e3530c4f 	cmp	r3, #20224	; 0x4f00
e630936c:	e5813000 	str	r3, [r1]
e6309370:	e5122fbb 	ldr	r2, [r2, #-4027]	; 0xfffff045
e6309374:	e58d1000 	str	r1, [sp]
e6309378:	e6ef0072 	uxtb	r0, r2
e630937c:	e5840000 	str	r0, [r4]
e6309380:	1a00004b 	bne	e63094b4 <InitDram+0x190>
e6309384:	e59f3ccc 	ldr	r3, [pc, #3276]	; e630a058 <InitDram+0xd34>
e6309388:	e20220fe 	and	r2, r2, #254	; 0xfe
e630938c:	e3520000 	cmp	r2, #0
e6309390:	e59f2cc4 	ldr	r2, [pc, #3268]	; e630a05c <InitDram+0xd38>
e6309394:	11a03002 	movne	r3, r2
e6309398:	e59f2de8 	ldr	r2, [pc, #3560]	; e630a188 <InitDram+0xe64>
e630939c:	e5823000 	str	r3, [r2]
e63093a0:	1a00004a 	bne	e63094d0 <InitDram+0x1ac>
e63093a4:	e59f3cb4 	ldr	r3, [pc, #3252]	; e630a060 <InitDram+0xd3c>
e63093a8:	e5939118 	ldr	r9, [r3, #280]	; 0x118
e63093ac:	e5938414 	ldr	r8, [r3, #1044]	; 0x414
e63093b0:	e5937454 	ldr	r7, [r3, #1108]	; 0x454
e63093b4:	f57ff04f 	dsb	sy
e63093b8:	e59f0ca4 	ldr	r0, [pc, #3236]	; e630a064 <InitDram+0xd40>
e63093bc:	e3c91902 	bic	r1, r9, #32768	; 0x8000
e63093c0:	ebfff4c9 	bl	e63066ec <pfc_write_and_poll>
e63093c4:	e59f5c9c 	ldr	r5, [pc, #3228]	; e630a068 <InitDram+0xd44>
e63093c8:	e59f0c9c 	ldr	r0, [pc, #3228]	; e630a06c <InitDram+0xd48>
e63093cc:	e3881501 	orr	r1, r8, #4194304	; 0x400000
e63093d0:	ebfff4c5 	bl	e63066ec <pfc_write_and_poll>
e63093d4:	e59f0c94 	ldr	r0, [pc, #3220]	; e630a070 <InitDram+0xd4c>
e63093d8:	e3c71501 	bic	r1, r7, #4194304	; 0x400000
e63093dc:	ebfff4c2 	bl	e63066ec <pfc_write_and_poll>
e63093e0:	e3a0000a 	mov	r0, #10
e63093e4:	eb000b17 	bl	e630c048 <__micro_wait_veneer>
e63093e8:	e595640c 	ldr	r6, [r5, #1036]	; 0x40c
e63093ec:	e7e067d6 	ubfx	r6, r6, #15, #1
e63093f0:	f57ff04f 	dsb	sy
e63093f4:	e59f0c74 	ldr	r0, [pc, #3188]	; e630a070 <InitDram+0xd4c>
e63093f8:	e3871501 	orr	r1, r7, #4194304	; 0x400000
e63093fc:	ebfff4ba 	bl	e63066ec <pfc_write_and_poll>
e6309400:	e3a0000a 	mov	r0, #10
e6309404:	eb000b0f 	bl	e630c048 <__micro_wait_veneer>
e6309408:	e595540c 	ldr	r5, [r5, #1036]	; 0x40c
e630940c:	e7e057d5 	ubfx	r5, r5, #15, #1
e6309410:	f57ff04f 	dsb	sy
e6309414:	e59f0c48 	ldr	r0, [pc, #3144]	; e630a064 <InitDram+0xd40>
e6309418:	e1a01009 	mov	r1, r9
e630941c:	ebfff4b2 	bl	e63066ec <pfc_write_and_poll>
e6309420:	e59f0c44 	ldr	r0, [pc, #3140]	; e630a06c <InitDram+0xd48>
e6309424:	e1a01008 	mov	r1, r8
e6309428:	ebfff4af 	bl	e63066ec <pfc_write_and_poll>
e630942c:	e59f0c3c 	ldr	r0, [pc, #3132]	; e630a070 <InitDram+0xd4c>
e6309430:	e1a01007 	mov	r1, r7
e6309434:	ebfff4ac 	bl	e63066ec <pfc_write_and_poll>
e6309438:	e59d3000 	ldr	r3, [sp]
e630943c:	e59f7c30 	ldr	r7, [pc, #3120]	; e630a074 <InitDram+0xd50>
e6309440:	e5938000 	ldr	r8, [r3]
e6309444:	e3580c56 	cmp	r8, #22016	; 0x5600
e6309448:	03a0500c 	moveq	r5, #12
e630944c:	0a000045 	beq	e6309568 <InitDram+0x244>
e6309450:	e1560005 	cmp	r6, r5
e6309454:	0a00002e 	beq	e6309514 <InitDram+0x1f0>
e6309458:	e3580c55 	cmp	r8, #21760	; 0x5500
e630945c:	0a0000c7 	beq	e6309780 <InitDram+0x45c>
e6309460:	e3580c52 	cmp	r8, #20992	; 0x5200
e6309464:	0a0000c3 	beq	e6309778 <InitDram+0x454>
e6309468:	e3580c4f 	cmp	r8, #20224	; 0x4f00
e630946c:	1a000004 	bne	e6309484 <InitDram+0x160>
e6309470:	e5943000 	ldr	r3, [r4]
e6309474:	e3530001 	cmp	r3, #1
e6309478:	9a0000bc 	bls	e6309770 <InitDram+0x44c>
e630947c:	e3530010 	cmp	r3, #16
e6309480:	8a0000b8 	bhi	e6309768 <InitDram+0x444>
e6309484:	e59f0bec 	ldr	r0, [pc, #3052]	; e630a078 <InitDram+0xd54>
e6309488:	e3a03063 	mov	r3, #99	; 0x63
e630948c:	e5873000 	str	r3, [r7]
e6309490:	ea00001b 	b	e6309504 <InitDram+0x1e0>
e6309494:	e3c22501 	bic	r2, r2, #4194304	; 0x400000
e6309498:	e1e01002 	mvn	r1, r2
e630949c:	e5831900 	str	r1, [r3, #2304]	; 0x900
e63094a0:	e5832144 	str	r2, [r3, #324]	; 0x144
e63094a4:	e593203c 	ldr	r2, [r3, #60]	; 0x3c
e63094a8:	e3120501 	tst	r2, #4194304	; 0x400000
e63094ac:	1afffffc 	bne	e63094a4 <InitDram+0x180>
e63094b0:	eaffffa1 	b	e630933c <InitDram+0x18>
e63094b4:	e3530c52 	cmp	r3, #20992	; 0x5200
e63094b8:	1a000008 	bne	e63094e0 <InitDram+0x1bc>
e63094bc:	e59f3cc4 	ldr	r3, [pc, #3268]	; e630a188 <InitDram+0xe64>
e63094c0:	e31200e0 	tst	r2, #224	; 0xe0
e63094c4:	e59f1bb0 	ldr	r1, [pc, #2992]	; e630a07c <InitDram+0xd58>
e63094c8:	e5831000 	str	r1, [r3]
e63094cc:	0affffb4 	beq	e63093a4 <InitDram+0x80>
e63094d0:	e59f3cb4 	ldr	r3, [pc, #3252]	; e630a18c <InitDram+0xe68>
e63094d4:	e3012234 	movw	r2, #4660	; 0x1234
e63094d8:	e5832100 	str	r2, [r3, #256]	; 0x100
e63094dc:	eaffffb0 	b	e63093a4 <InitDram+0x80>
e63094e0:	e2433c55 	sub	r3, r3, #21760	; 0x5500
e63094e4:	e3c33c01 	bic	r3, r3, #256	; 0x100
e63094e8:	e3530000 	cmp	r3, #0
e63094ec:	1a000003 	bne	e6309500 <InitDram+0x1dc>
e63094f0:	e59f3c90 	ldr	r3, [pc, #3216]	; e630a188 <InitDram+0xe64>
e63094f4:	e59f2b84 	ldr	r2, [pc, #2948]	; e630a080 <InitDram+0xd5c>
e63094f8:	e5832000 	str	r2, [r3]
e63094fc:	eafffff3 	b	e63094d0 <InitDram+0x1ac>
e6309500:	e59f0b7c 	ldr	r0, [pc, #2940]	; e630a084 <InitDram+0xd60>
e6309504:	eb000ad5 	bl	e630c060 <__tf_printf_veneer>
e6309508:	e3a000ff 	mov	r0, #255	; 0xff
e630950c:	e28dd0a4 	add	sp, sp, #164	; 0xa4
e6309510:	e8bd8ff0 	pop	{r4, r5, r6, r7, r8, r9, sl, fp, pc}
e6309514:	e3580c4f 	cmp	r8, #20224	; 0x4f00
e6309518:	1a000007 	bne	e630953c <InitDram+0x218>
e630951c:	e5943000 	ldr	r3, [r4]
e6309520:	e3530001 	cmp	r3, #1
e6309524:	93a05002 	movls	r5, #2
e6309528:	9a00000e 	bls	e6309568 <InitDram+0x244>
e630952c:	e353001f 	cmp	r3, #31
e6309530:	93a05007 	movls	r5, #7
e6309534:	83a05008 	movhi	r5, #8
e6309538:	ea00000a 	b	e6309568 <InitDram+0x244>
e630953c:	e3580c55 	cmp	r8, #21760	; 0x5500
e6309540:	0a000086 	beq	e6309760 <InitDram+0x43c>
e6309544:	e3580c52 	cmp	r8, #20992	; 0x5200
e6309548:	1affffcd 	bne	e6309484 <InitDram+0x160>
e630954c:	e5943000 	ldr	r3, [r4]
e6309550:	e3530010 	cmp	r3, #16
e6309554:	93a05000 	movls	r5, #0
e6309558:	9a000002 	bls	e6309568 <InitDram+0x244>
e630955c:	e353001f 	cmp	r3, #31
e6309560:	83a05012 	movhi	r5, #18
e6309564:	93a05013 	movls	r5, #19
e6309568:	e3a0be29 	mov	fp, #656	; 0x290
e630956c:	e3a00000 	mov	r0, #0
e6309570:	e59f3b10 	ldr	r3, [pc, #2832]	; e630a088 <InitDram+0xd64>
e6309574:	e00b059b 	mul	fp, fp, r5
e6309578:	e7db1003 	ldrb	r1, [fp, r3]
e630957c:	e59f9c14 	ldr	r9, [pc, #3092]	; e630a198 <InitDram+0xe74>
e6309580:	e59f6b04 	ldr	r6, [pc, #2820]	; e630a08c <InitDram+0xd68>
e6309584:	e08b2003 	add	r2, fp, r3
e6309588:	e59fac14 	ldr	sl, [pc, #3092]	; e630a1a4 <InitDram+0xe80>
e630958c:	e5892000 	str	r2, [r9]
e6309590:	e59f2bf8 	ldr	r2, [pc, #3064]	; e630a190 <InitDram+0xe6c>
e6309594:	e5821000 	str	r1, [r2]
e6309598:	e3a010ff 	mov	r1, #255	; 0xff
e630959c:	e59f2aec 	ldr	r2, [pc, #2796]	; e630a090 <InitDram+0xd6c>
e63095a0:	e5820000 	str	r0, [r2]
e63095a4:	e5875000 	str	r5, [r7]
e63095a8:	e58a0000 	str	r0, [sl]
e63095ac:	e58a0004 	str	r0, [sl, #4]
e63095b0:	e5861000 	str	r1, [r6]
e63095b4:	e5861004 	str	r1, [r6, #4]
e63095b8:	e5861008 	str	r1, [r6, #8]
e63095bc:	e586100c 	str	r1, [r6, #12]
e63095c0:	e5861010 	str	r1, [r6, #16]
e63095c4:	e5861014 	str	r1, [r6, #20]
e63095c8:	e5861018 	str	r1, [r6, #24]
e63095cc:	e586101c 	str	r1, [r6, #28]
e63095d0:	ebfff451 	bl	e630671c <vch_nxt>
e63095d4:	e5943000 	ldr	r3, [r4]
e63095d8:	e58d3008 	str	r3, [sp, #8]
e63095dc:	e59f2aac 	ldr	r2, [pc, #2732]	; e630a090 <InitDram+0xd6c>
e63095e0:	e59f3aa0 	ldr	r3, [pc, #2720]	; e630a088 <InitDram+0xd64>
e63095e4:	e58d300c 	str	r3, [sp, #12]
e63095e8:	e58d2004 	str	r2, [sp, #4]
e63095ec:	e3500003 	cmp	r0, #3
e63095f0:	9a000064 	bls	e6309788 <InitDram+0x464>
e63095f4:	e59faa98 	ldr	sl, [pc, #2712]	; e630a094 <InitDram+0xd70>
e63095f8:	e1a00005 	mov	r0, r5
e63095fc:	e59f8a94 	ldr	r8, [pc, #2708]	; e630a098 <InitDram+0xd74>
e6309600:	e1a0100a 	mov	r1, sl
e6309604:	e59f5a90 	ldr	r5, [pc, #2704]	; e630a09c <InitDram+0xd78>
e6309608:	e1a02008 	mov	r2, r8
e630960c:	ebffff05 	bl	e6309228 <boardcnf_get_brd_clk>
e6309610:	e59a0000 	ldr	r0, [sl]
e6309614:	e5981000 	ldr	r1, [r8]
e6309618:	eb000a9a 	bl	e630c088 <____aeabi_uidiv_veneer>
e630961c:	e59f6a7c 	ldr	r6, [pc, #2684]	; e630a0a0 <InitDram+0xd7c>
e6309620:	e59f3a7c 	ldr	r3, [pc, #2684]	; e630a0a4 <InitDram+0xd80>
e6309624:	e1a02005 	mov	r2, r5
e6309628:	e1a01006 	mov	r1, r6
e630962c:	e3500019 	cmp	r0, #25
e6309630:	93a0b000 	movls	fp, #0
e6309634:	83a0b001 	movhi	fp, #1
e6309638:	e5970000 	ldr	r0, [r7]
e630963c:	e583b000 	str	fp, [r3]
e6309640:	ebffff17 	bl	e63092a4 <boardcnf_get_ddr_mbps>
e6309644:	e5988000 	ldr	r8, [r8]
e6309648:	e3a00e32 	mov	r0, #800	; 0x320
e630964c:	e59a7000 	ldr	r7, [sl]
e6309650:	e023889b 	mla	r3, fp, r8, r8
e6309654:	e1a01087 	lsl	r1, r7, #1
e6309658:	e0000390 	mul	r0, r0, r3
e630965c:	e58d3004 	str	r3, [sp, #4]
e6309660:	eb000a88 	bl	e630c088 <____aeabi_uidiv_veneer>
e6309664:	e595b000 	ldr	fp, [r5]
e6309668:	e59d3004 	ldr	r3, [sp, #4]
e630966c:	e596a000 	ldr	sl, [r6]
e6309670:	e001079b 	mul	r1, fp, r7
e6309674:	e59f2a2c 	ldr	r2, [pc, #2604]	; e630a0a8 <InitDram+0xd84>
e6309678:	e1a01081 	lsl	r1, r1, #1
e630967c:	e5820000 	str	r0, [r2]
e6309680:	e000039a 	mul	r0, sl, r3
e6309684:	eb000a7f 	bl	e630c088 <____aeabi_uidiv_veneer>
e6309688:	e59f3a1c 	ldr	r3, [pc, #2588]	; e630a0ac <InitDram+0xd88>
e630968c:	e5830000 	str	r0, [r3]
e6309690:	e59f3a18 	ldr	r3, [pc, #2584]	; e630a0b0 <InitDram+0xd8c>
e6309694:	e5933060 	ldr	r3, [r3, #96]	; 0x60
e6309698:	e7e136d3 	ubfx	r3, r3, #13, #2
e630969c:	e3530002 	cmp	r3, #2
e63096a0:	01a07387 	lsleq	r7, r7, #7
e63096a4:	0a000005 	beq	e63096c0 <InitDram+0x39c>
e63096a8:	e3530003 	cmp	r3, #3
e63096ac:	0a000065 	beq	e6309848 <InitDram+0x524>
e63096b0:	e3530001 	cmp	r3, #1
e63096b4:	13a030c0 	movne	r3, #192	; 0xc0
e63096b8:	03a030a0 	moveq	r3, #160	; 0xa0
e63096bc:	e0070793 	mul	r7, r3, r7
e63096c0:	e0080a98 	mul	r8, r8, sl
e63096c4:	e0070b97 	mul	r7, r7, fp
e63096c8:	e1a01007 	mov	r1, r7
e63096cc:	e1a08188 	lsl	r8, r8, #3
e63096d0:	e1a00008 	mov	r0, r8
e63096d4:	eb000a6b 	bl	e630c088 <____aeabi_uidiv_veneer>
e63096d8:	e59f39d4 	ldr	r3, [pc, #2516]	; e630a0b4 <InitDram+0xd90>
e63096dc:	e1a0100b 	mov	r1, fp
e63096e0:	e0070790 	mul	r7, r0, r7
e63096e4:	e1580007 	cmp	r8, r7
e63096e8:	e59f79c8 	ldr	r7, [pc, #2504]	; e630a0b8 <InitDram+0xd94>
e63096ec:	12800001 	addne	r0, r0, #1
e63096f0:	e30a855a 	movw	r8, #42330	; 0xa55a
e63096f4:	e3500008 	cmp	r0, #8
e63096f8:	33a00008 	movcc	r0, #8
e63096fc:	e5830000 	str	r0, [r3]
e6309700:	e1a0000a 	mov	r0, sl
e6309704:	eb000a5f 	bl	e630c088 <____aeabi_uidiv_veneer>
e6309708:	e59f29ac 	ldr	r2, [pc, #2476]	; e630a0bc <InitDram+0xd98>
e630970c:	e1a01000 	mov	r1, r0
e6309710:	e59f09a8 	ldr	r0, [pc, #2472]	; e630a0c0 <InitDram+0xd9c>
e6309714:	eb000a51 	bl	e630c060 <__tf_printf_veneer>
e6309718:	e3a00001 	mov	r0, #1
e630971c:	ebfff408 	bl	e6306744 <pll3_control>
e6309720:	e59f09f0 	ldr	r0, [pc, #2544]	; e630a118 <InitDram+0xdf4>
e6309724:	eb000956 	bl	e630bc84 <dram_get_boot_status>
e6309728:	e3a00000 	mov	r0, #0
e630972c:	ebfff3fa 	bl	e630671c <vch_nxt>
e6309730:	e3500003 	cmp	r0, #3
e6309734:	9a000047 	bls	e6309858 <InitDram+0x534>
e6309738:	f57ff04f 	dsb	sy
e630973c:	e59d3000 	ldr	r3, [sp]
e6309740:	e5933000 	ldr	r3, [r3]
e6309744:	e3530c4f 	cmp	r3, #20224	; 0x4f00
e6309748:	1a000046 	bne	e6309868 <InitDram+0x544>
e630974c:	e5943000 	ldr	r3, [r4]
e6309750:	e3530001 	cmp	r3, #1
e6309754:	8a000046 	bhi	e6309874 <InitDram+0x550>
e6309758:	e3a01001 	mov	r1, #1
e630975c:	ea000049 	b	e6309888 <InitDram+0x564>
e6309760:	e3a0500b 	mov	r5, #11
e6309764:	eaffff7f 	b	e6309568 <InitDram+0x244>
e6309768:	e3a0500f 	mov	r5, #15
e630976c:	eaffff7d 	b	e6309568 <InitDram+0x244>
e6309770:	e3a0500d 	mov	r5, #13
e6309774:	eaffff7b 	b	e6309568 <InitDram+0x244>
e6309778:	e3a05001 	mov	r5, #1
e630977c:	eaffff79 	b	e6309568 <InitDram+0x244>
e6309780:	e3a0500a 	mov	r5, #10
e6309784:	eaffff77 	b	e6309568 <InitDram+0x244>
e6309788:	e59d3004 	ldr	r3, [sp, #4]
e630978c:	e59d100c 	ldr	r1, [sp, #12]
e6309790:	e5932000 	ldr	r2, [r3]
e6309794:	e3a03001 	mov	r3, #1
e6309798:	e1a0c013 	lsl	ip, r3, r0
e630979c:	e3a030a0 	mov	r3, #160	; 0xa0
e63097a0:	e023b093 	mla	r3, r3, r0, fp
e63097a4:	e0813003 	add	r3, r1, r3
e63097a8:	e5d33010 	ldrb	r3, [r3, #16]
e63097ac:	e7863180 	str	r3, [r6, r0, lsl #3]
e63097b0:	e35300ff 	cmp	r3, #255	; 0xff
e63097b4:	03a01000 	moveq	r1, #0
e63097b8:	0a000007 	beq	e63097dc <InitDram+0x4b8>
e63097bc:	e1520003 	cmp	r2, r3
e63097c0:	21a03002 	movcs	r3, r2
e63097c4:	23a01000 	movcs	r1, #0
e63097c8:	e59a2000 	ldr	r2, [sl]
e63097cc:	33a01001 	movcc	r1, #1
e63097d0:	e182200c 	orr	r2, r2, ip
e63097d4:	e58a2000 	str	r2, [sl]
e63097d8:	e1a02003 	mov	r2, r3
e63097dc:	e59fe8a4 	ldr	lr, [pc, #2212]	; e630a088 <InitDram+0xd64>
e63097e0:	e3a030a0 	mov	r3, #160	; 0xa0
e63097e4:	e023b093 	mla	r3, r3, r0, fp
e63097e8:	e08e3003 	add	r3, lr, r3
e63097ec:	e5d33011 	ldrb	r3, [r3, #17]
e63097f0:	e086e180 	add	lr, r6, r0, lsl #3
e63097f4:	e35300ff 	cmp	r3, #255	; 0xff
e63097f8:	e58e3004 	str	r3, [lr, #4]
e63097fc:	01a03002 	moveq	r3, r2
e6309800:	0a00000a 	beq	e6309830 <InitDram+0x50c>
e6309804:	e1530002 	cmp	r3, r2
e6309808:	91a03002 	movls	r3, r2
e630980c:	83a01001 	movhi	r1, #1
e6309810:	e3580c4f 	cmp	r8, #20224	; 0x4f00
e6309814:	1a000002 	bne	e6309824 <InitDram+0x500>
e6309818:	e59d2008 	ldr	r2, [sp, #8]
e630981c:	e3520001 	cmp	r2, #1
e6309820:	9a000002 	bls	e6309830 <InitDram+0x50c>
e6309824:	e59a2004 	ldr	r2, [sl, #4]
e6309828:	e182c00c 	orr	ip, r2, ip
e630982c:	e58ac004 	str	ip, [sl, #4]
e6309830:	e3510000 	cmp	r1, #0
e6309834:	e2800001 	add	r0, r0, #1
e6309838:	159d2004 	ldrne	r2, [sp, #4]
e630983c:	15823000 	strne	r3, [r2]
e6309840:	ebfff3b5 	bl	e630671c <vch_nxt>
e6309844:	eaffff68 	b	e63095ec <InitDram+0x2c8>
e6309848:	e3a030c0 	mov	r3, #192	; 0xc0
e630984c:	e1a08088 	lsl	r8, r8, #1
e6309850:	e0070793 	mul	r7, r3, r7
e6309854:	eaffff99 	b	e63096c0 <InitDram+0x39c>
e6309858:	e7878300 	str	r8, [r7, r0, lsl #6]
e630985c:	e2800001 	add	r0, r0, #1
e6309860:	ebfff3ad 	bl	e630671c <vch_nxt>
e6309864:	eaffffb1 	b	e6309730 <InitDram+0x40c>
e6309868:	e2433c55 	sub	r3, r3, #21760	; 0x5500
e630986c:	e3d33c01 	bics	r3, r3, #256	; 0x100
e6309870:	1affffb8 	bne	e6309758 <InitDram+0x434>
e6309874:	e5993000 	ldr	r3, [r9]
e6309878:	e5d33001 	ldrb	r3, [r3, #1]
e630987c:	e3530000 	cmp	r3, #0
e6309880:	159f183c 	ldrne	r1, [pc, #2108]	; e630a0c4 <InitDram+0xda0>
e6309884:	0affffb3 	beq	e6309758 <InitDram+0x434>
e6309888:	e3010010 	movw	r0, #4112	; 0x1010
e630988c:	ebfff5fb 	bl	e6307080 <reg_ddrphy_write_a>
e6309890:	e3a0200a 	mov	r2, #10
e6309894:	e59f38f0 	ldr	r3, [pc, #2288]	; e630a18c <InitDram+0xe68>
e6309898:	e3a01001 	mov	r1, #1
e630989c:	e5832020 	str	r2, [r3, #32]
e63098a0:	e3a02002 	mov	r2, #2
e63098a4:	e5832400 	str	r2, [r3, #1024]	; 0x400
e63098a8:	e5831010 	str	r1, [r3, #16]
e63098ac:	e5832004 	str	r2, [r3, #4]
e63098b0:	e59d3000 	ldr	r3, [sp]
e63098b4:	e5933000 	ldr	r3, [r3]
e63098b8:	e3530c4f 	cmp	r3, #20224	; 0x4f00
e63098bc:	1a000004 	bne	e63098d4 <InitDram+0x5b0>
e63098c0:	e5943000 	ldr	r3, [r4]
e63098c4:	e1530001 	cmp	r3, r1
e63098c8:	93012010 	movwls	r2, #4112	; 0x1010
e63098cc:	959f37f4 	ldrls	r3, [pc, #2036]	; e630a0c8 <InitDram+0xda4>
e63098d0:	95032ffb 	strls	r2, [r3, #-4091]	; 0xfffff005
e63098d4:	e59f77f0 	ldr	r7, [pc, #2032]	; e630a0cc <InitDram+0xda8>
e63098d8:	e3a00000 	mov	r0, #0
e63098dc:	ebfff38e 	bl	e630671c <vch_nxt>
e63098e0:	e59f87e8 	ldr	r8, [pc, #2024]	; e630a0d0 <InitDram+0xdac>
e63098e4:	e3500003 	cmp	r0, #3
e63098e8:	9a000194 	bls	e6309f40 <InitDram+0xc1c>
e63098ec:	e59d3000 	ldr	r3, [sp]
e63098f0:	e5933000 	ldr	r3, [r3]
e63098f4:	e3530c52 	cmp	r3, #20992	; 0x5200
e63098f8:	1a00001e 	bne	e6309978 <InitDram+0x654>
e63098fc:	e59f388c 	ldr	r3, [pc, #2188]	; e630a190 <InitDram+0xe6c>
e6309900:	e3a02000 	mov	r2, #0
e6309904:	e599e000 	ldr	lr, [r9]
e6309908:	e3a0a0ff 	mov	sl, #255	; 0xff
e630990c:	e59f17c0 	ldr	r1, [pc, #1984]	; e630a0d4 <InitDram+0xdb0>
e6309910:	e3a09001 	mov	r9, #1
e6309914:	e5938000 	ldr	r8, [r3]
e6309918:	e28ee020 	add	lr, lr, #32
e630991c:	e3a0b0a0 	mov	fp, #160	; 0xa0
e6309920:	e0183219 	ands	r3, r8, r9, lsl r2
e6309924:	0a00000e 	beq	e6309964 <InitDram+0x640>
e6309928:	e003029b 	mul	r3, fp, r2
e630992c:	e19e30b3 	ldrh	r3, [lr, r3]
e6309930:	e1a0c143 	asr	ip, r3, #2
e6309934:	e20c000c 	and	r0, ip, #12
e6309938:	e1a0c243 	asr	ip, r3, #4
e630993c:	e20cc030 	and	ip, ip, #48	; 0x30
e6309940:	e180c00c 	orr	ip, r0, ip
e6309944:	e2030003 	and	r0, r3, #3
e6309948:	e1a03343 	asr	r3, r3, #6
e630994c:	e18c0000 	orr	r0, ip, r0
e6309950:	e203c0c0 	and	ip, r3, #192	; 0xc0
e6309954:	e1a07182 	lsl	r7, r2, #3
e6309958:	e180000c 	orr	r0, r0, ip
e630995c:	e1c1171a 	bic	r1, r1, sl, lsl r7
e6309960:	e1811710 	orr	r1, r1, r0, lsl r7
e6309964:	e2822001 	add	r2, r2, #1
e6309968:	e3520004 	cmp	r2, #4
e630996c:	1affffeb 	bne	e6309920 <InitDram+0x5fc>
e6309970:	e59f3814 	ldr	r3, [pc, #2068]	; e630a18c <InitDram+0xe68>
e6309974:	e58319f0 	str	r1, [r3, #2544]	; 0x9f0
e6309978:	ebfffb05 	bl	e6308594 <ddrtbl_load>
e630997c:	ebfff670 	bl	e6307344 <ddr_config>
e6309980:	e3a00000 	mov	r0, #0
e6309984:	e3a08001 	mov	r8, #1
e6309988:	ebfff363 	bl	e630671c <vch_nxt>
e630998c:	e59f7744 	ldr	r7, [pc, #1860]	; e630a0d8 <InitDram+0xdb4>
e6309990:	e3500003 	cmp	r0, #3
e6309994:	9a000172 	bls	e6309f64 <InitDram+0xc40>
e6309998:	f57ff04f 	dsb	sy
e630999c:	e59d3000 	ldr	r3, [sp]
e63099a0:	e59f26e8 	ldr	r2, [pc, #1768]	; e630a090 <InitDram+0xd6c>
e63099a4:	e5933000 	ldr	r3, [r3]
e63099a8:	e3530c4f 	cmp	r3, #20224	; 0x4f00
e63099ac:	1a000008 	bne	e63099d4 <InitDram+0x6b0>
e63099b0:	e594c000 	ldr	ip, [r4]
e63099b4:	e5923000 	ldr	r3, [r2]
e63099b8:	e5960000 	ldr	r0, [r6]
e63099bc:	e35c0010 	cmp	ip, #16
e63099c0:	e5951000 	ldr	r1, [r5]
e63099c4:	1a000002 	bne	e63099d4 <InitDram+0x6b0>
e63099c8:	e3530000 	cmp	r3, #0
e63099cc:	059f2708 	ldreq	r2, [pc, #1800]	; e630a0dc <InitDram+0xdb8>
e63099d0:	0a000008 	beq	e63099f8 <InitDram+0x6d4>
e63099d4:	e5923000 	ldr	r3, [r2]
e63099d8:	e3a01ffa 	mov	r1, #1000	; 0x3e8
e63099dc:	e59f26fc 	ldr	r2, [pc, #1788]	; e630a0e0 <InitDram+0xdbc>
e63099e0:	e5960000 	ldr	r0, [r6]
e63099e4:	e1a03083 	lsl	r3, r3, #1
e63099e8:	e19220b3 	ldrh	r2, [r2, r3]
e63099ec:	e0020291 	mul	r2, r1, r2
e63099f0:	e5951000 	ldr	r1, [r5]
e63099f4:	e3a03000 	mov	r3, #0
e63099f8:	ebfff424 	bl	e6306a90 <_f_scale>
e63099fc:	e59f7788 	ldr	r7, [pc, #1928]	; e630a18c <InitDram+0xe68>
e6309a00:	e59f86dc 	ldr	r8, [pc, #1756]	; e630a0e4 <InitDram+0xdc0>
e6309a04:	e1d820b6 	ldrh	r2, [r8, #6]
e6309a08:	e59f36d8 	ldr	r3, [pc, #1752]	; e630a0e8 <InitDram+0xdc4>
e6309a0c:	e5d39000 	ldrb	r9, [r3]
e6309a10:	e59f36d4 	ldr	r3, [pc, #1748]	; e630a0ec <InitDram+0xdc8>
e6309a14:	e1d810b8 	ldrh	r1, [r8, #8]
e6309a18:	e3a0c00a 	mov	ip, #10
e6309a1c:	e289a00b 	add	sl, r9, #11
e6309a20:	e1c803b2 	strh	r0, [r8, #50]	; 0x32
e6309a24:	e1a04000 	mov	r4, r0
e6309a28:	e5879300 	str	r9, [r7, #768]	; 0x300
e6309a2c:	e5d36000 	ldrb	r6, [r3]
e6309a30:	e3a03000 	mov	r3, #0
e6309a34:	e2899010 	add	r9, r9, #16
e6309a38:	e5876304 	str	r6, [r7, #772]	; 0x304
e6309a3c:	e2866009 	add	r6, r6, #9
e6309a40:	e5873308 	str	r3, [r7, #776]	; 0x308
e6309a44:	e58d2000 	str	r2, [sp]
e6309a48:	e587230c 	str	r2, [r7, #780]	; 0x30c
e6309a4c:	e5982008 	ldr	r2, [r8, #8]
e6309a50:	e58d1004 	str	r1, [sp, #4]
e6309a54:	e5872310 	str	r2, [r7, #784]	; 0x310
e6309a58:	e1d822be 	ldrh	r2, [r8, #46]	; 0x2e
e6309a5c:	e58d2008 	str	r2, [sp, #8]
e6309a60:	e5872314 	str	r2, [r7, #788]	; 0x314
e6309a64:	e1d820bc 	ldrh	r2, [r8, #12]
e6309a68:	e5872318 	str	r2, [r7, #792]	; 0x318
e6309a6c:	e1d821b2 	ldrh	r2, [r8, #18]
e6309a70:	e59f0678 	ldr	r0, [pc, #1656]	; e630a0f0 <InitDram+0xdcc>
e6309a74:	e1822802 	orr	r2, r2, r2, lsl #16
e6309a78:	e587231c 	str	r2, [r7, #796]	; 0x31c
e6309a7c:	e1d821b6 	ldrh	r2, [r8, #22]
e6309a80:	e5872320 	str	r2, [r7, #800]	; 0x320
e6309a84:	e1d820b4 	ldrh	r2, [r8, #4]
e6309a88:	e58d200c 	str	r2, [sp, #12]
e6309a8c:	e5872324 	str	r2, [r7, #804]	; 0x324
e6309a90:	e59f265c 	ldr	r2, [pc, #1628]	; e630a0f4 <InitDram+0xdd0>
e6309a94:	e5921000 	ldr	r1, [r2]
e6309a98:	e021019c 	mla	r1, ip, r1, r0
e6309a9c:	e5d11005 	ldrb	r1, [r1, #5]
e6309aa0:	e5871328 	str	r1, [r7, #808]	; 0x328
e6309aa4:	e5922000 	ldr	r2, [r2]
e6309aa8:	e59f15ec 	ldr	r1, [pc, #1516]	; e630a09c <InitDram+0xd78>
e6309aac:	e022029c 	mla	r2, ip, r2, r0
e6309ab0:	e5d20007 	ldrb	r0, [r2, #7]
e6309ab4:	e3002514 	movw	r2, #1300	; 0x514
e6309ab8:	e04aa000 	sub	sl, sl, r0
e6309abc:	e1d801b8 	ldrh	r0, [r8, #24]
e6309ac0:	e08aa000 	add	sl, sl, r0
e6309ac4:	e1d802bc 	ldrh	r0, [r8, #44]	; 0x2c
e6309ac8:	e5911000 	ldr	r1, [r1]
e6309acc:	e04aa000 	sub	sl, sl, r0
e6309ad0:	e59f05c8 	ldr	r0, [pc, #1480]	; e630a0a0 <InitDram+0xd7c>
e6309ad4:	e5900000 	ldr	r0, [r0]
e6309ad8:	ebfff3ec 	bl	e6306a90 <_f_scale>
e6309adc:	e1d831b0 	ldrh	r3, [r8, #16]
e6309ae0:	e1d820b0 	ldrh	r2, [r8]
e6309ae4:	e3001226 	movw	r1, #550	; 0x226
e6309ae8:	e0833006 	add	r3, r3, r6
e6309aec:	e1833803 	orr	r3, r3, r3, lsl #16
e6309af0:	e080000a 	add	r0, r0, sl
e6309af4:	e1d8a1ba 	ldrh	sl, [r8, #26]
e6309af8:	e587032c 	str	r0, [r7, #812]	; 0x32c
e6309afc:	e5873330 	str	r3, [r7, #816]	; 0x330
e6309b00:	e18a380a 	orr	r3, sl, sl, lsl #16
e6309b04:	e5874334 	str	r4, [r7, #820]	; 0x334
e6309b08:	e084a00a 	add	sl, r4, sl
e6309b0c:	e5873338 	str	r3, [r7, #824]	; 0x338
e6309b10:	e1d831be 	ldrh	r3, [r8, #30]
e6309b14:	e59f063c 	ldr	r0, [pc, #1596]	; e630a158 <InitDram+0xe34>
e6309b18:	e1833802 	orr	r3, r3, r2, lsl #16
e6309b1c:	e18aa80a 	orr	sl, sl, sl, lsl #16
e6309b20:	e587333c 	str	r3, [r7, #828]	; 0x33c
e6309b24:	ebfff5e1 	bl	e63072b0 <ddrtbl_getval>
e6309b28:	e30012d2 	movw	r1, #722	; 0x2d2
e6309b2c:	e1a0b000 	mov	fp, r0
e6309b30:	e59f0620 	ldr	r0, [pc, #1568]	; e630a158 <InitDram+0xe34>
e6309b34:	e18b9809 	orr	r9, fp, r9, lsl #16
e6309b38:	ebfff5dc 	bl	e63072b0 <ddrtbl_getval>
e6309b3c:	e30012ce 	movw	r1, #718	; 0x2ce
e6309b40:	e24bb005 	sub	fp, fp, #5
e6309b44:	e58d0010 	str	r0, [sp, #16]
e6309b48:	e59f0608 	ldr	r0, [pc, #1544]	; e630a158 <InitDram+0xe34>
e6309b4c:	ebfff5d7 	bl	e63072b0 <ddrtbl_getval>
e6309b50:	e59d3010 	ldr	r3, [sp, #16]
e6309b54:	e1893403 	orr	r3, r9, r3, lsl #8
e6309b58:	e2402001 	sub	r2, r0, #1
e6309b5c:	e1833c02 	orr	r3, r3, r2, lsl #24
e6309b60:	e5873340 	str	r3, [r7, #832]	; 0x340
e6309b64:	e59f3634 	ldr	r3, [pc, #1588]	; e630a1a0 <InitDram+0xe7c>
e6309b68:	e5931000 	ldr	r1, [r3]
e6309b6c:	e3510c52 	cmp	r1, #20992	; 0x5200
e6309b70:	13a01006 	movne	r1, #6
e6309b74:	12802001 	addne	r2, r0, #1
e6309b78:	e59f0638 	ldr	r0, [pc, #1592]	; e630a1b8 <InitDram+0xe94>
e6309b7c:	03a01004 	moveq	r1, #4
e6309b80:	e1a02802 	lsl	r2, r2, #16
e6309b84:	e1822c01 	orr	r2, r2, r1, lsl #24
e6309b88:	e1d812b0 	ldrh	r1, [r8, #32]
e6309b8c:	e182b00b 	orr	fp, r2, fp
e6309b90:	e1d822b4 	ldrh	r2, [r8, #36]	; 0x24
e6309b94:	e1a02802 	lsl	r2, r2, #16
e6309b98:	e1822c01 	orr	r2, r2, r1, lsl #24
e6309b9c:	e59f1510 	ldr	r1, [pc, #1296]	; e630a0b4 <InitDram+0xd90>
e6309ba0:	e38bbc05 	orr	fp, fp, #1280	; 0x500
e6309ba4:	e587b360 	str	fp, [r7, #864]	; 0x360
e6309ba8:	e5872344 	str	r2, [r7, #836]	; 0x344
e6309bac:	e3a02000 	mov	r2, #0
e6309bb0:	e5872348 	str	r2, [r7, #840]	; 0x348
e6309bb4:	e587234c 	str	r2, [r7, #844]	; 0x34c
e6309bb8:	e587a350 	str	sl, [r7, #848]	; 0x350
e6309bbc:	e5911000 	ldr	r1, [r1]
e6309bc0:	e3510008 	cmp	r1, #8
e6309bc4:	1a0000ea 	bne	e6309f74 <InitDram+0xc50>
e6309bc8:	e5932000 	ldr	r2, [r3]
e6309bcc:	e3520c4f 	cmp	r2, #20224	; 0x4f00
e6309bd0:	1a000002 	bne	e6309be0 <InitDram+0x8bc>
e6309bd4:	e5902000 	ldr	r2, [r0]
e6309bd8:	e3520000 	cmp	r2, #0
e6309bdc:	0a0000e9 	beq	e6309f88 <InitDram+0xc64>
e6309be0:	e59f1510 	ldr	r1, [pc, #1296]	; e630a0f8 <InitDram+0xdd4>
e6309be4:	e59f25a0 	ldr	r2, [pc, #1440]	; e630a18c <InitDram+0xe68>
e6309be8:	e5821354 	str	r1, [r2, #852]	; 0x354
e6309bec:	e3a01002 	mov	r1, #2
e6309bf0:	e582135c 	str	r1, [r2, #860]	; 0x35c
e6309bf4:	e3a02064 	mov	r2, #100	; 0x64
e6309bf8:	e1d812b6 	ldrh	r1, [r8, #38]	; 0x26
e6309bfc:	e307b007 	movw	fp, #28679	; 0x7007
e6309c00:	e0010192 	mul	r1, r2, r1
e6309c04:	e1d822b8 	ldrh	r2, [r8, #40]	; 0x28
e6309c08:	e282202c 	add	r2, r2, #44	; 0x2c
e6309c0c:	e1822801 	orr	r2, r2, r1, lsl #16
e6309c10:	e59f1574 	ldr	r1, [pc, #1396]	; e630a18c <InitDram+0xe68>
e6309c14:	e5812358 	str	r2, [r1, #856]	; 0x358
e6309c18:	e3a02000 	mov	r2, #0
e6309c1c:	e1a09002 	mov	r9, r2
e6309c20:	e5812364 	str	r2, [r1, #868]	; 0x364
e6309c24:	e5907000 	ldr	r7, [r0]
e6309c28:	e5933000 	ldr	r3, [r3]
e6309c2c:	e58d3010 	str	r3, [sp, #16]
e6309c30:	e3570001 	cmp	r7, #1
e6309c34:	93a07000 	movls	r7, #0
e6309c38:	83a07001 	movhi	r7, #1
e6309c3c:	e59d3010 	ldr	r3, [sp, #16]
e6309c40:	e1a08109 	lsl	r8, r9, #2
e6309c44:	e1a0285b 	asr	r2, fp, r8
e6309c48:	e3530c4f 	cmp	r3, #20224	; 0x4f00
e6309c4c:	e202a00f 	and	sl, r2, #15
e6309c50:	1a000004 	bne	e6309c68 <InitDram+0x944>
e6309c54:	e3590000 	cmp	r9, #0
e6309c58:	01a01007 	moveq	r1, r7
e6309c5c:	13a01000 	movne	r1, #0
e6309c60:	e3510000 	cmp	r1, #0
e6309c64:	128aa001 	addne	sl, sl, #1
e6309c68:	e3a00000 	mov	r0, #0
e6309c6c:	ebfff2aa 	bl	e630671c <vch_nxt>
e6309c70:	e3a01000 	mov	r1, #0
e6309c74:	e3500003 	cmp	r0, #3
e6309c78:	9a0000c7 	bls	e6309f9c <InitDram+0xc78>
e6309c7c:	e59f3478 	ldr	r3, [pc, #1144]	; e630a0fc <InitDram+0xdd8>
e6309c80:	e2899001 	add	r9, r9, #1
e6309c84:	e7881003 	str	r1, [r8, r3]
e6309c88:	e3590004 	cmp	r9, #4
e6309c8c:	1affffea 	bne	e6309c3c <InitDram+0x918>
e6309c90:	e3a03000 	mov	r3, #0
e6309c94:	e3a07e32 	mov	r7, #800	; 0x320
e6309c98:	e59f84ec 	ldr	r8, [pc, #1260]	; e630a18c <InitDram+0xe68>
e6309c9c:	e5883500 	str	r3, [r8, #1280]	; 0x500
e6309ca0:	e5959000 	ldr	r9, [r5]
e6309ca4:	e59d2004 	ldr	r2, [sp, #4]
e6309ca8:	e59d300c 	ldr	r3, [sp, #12]
e6309cac:	e0090997 	mul	r9, r7, r9
e6309cb0:	e59fa3e8 	ldr	sl, [pc, #1000]	; e630a0a0 <InitDram+0xd7c>
e6309cb4:	e0830002 	add	r0, r3, r2
e6309cb8:	e0000099 	mul	r0, r9, r0
e6309cbc:	e59ab000 	ldr	fp, [sl]
e6309cc0:	e1a0100b 	mov	r1, fp
e6309cc4:	eb0008ef 	bl	e630c088 <____aeabi_uidiv_veneer>
e6309cc8:	e1a0100b 	mov	r1, fp
e6309ccc:	e1a03800 	lsl	r3, r0, #16
e6309cd0:	e58d300c 	str	r3, [sp, #12]
e6309cd4:	e59d3008 	ldr	r3, [sp, #8]
e6309cd8:	e0000399 	mul	r0, r9, r3
e6309cdc:	eb0008e9 	bl	e630c088 <____aeabi_uidiv_veneer>
e6309ce0:	e59d3004 	ldr	r3, [sp, #4]
e6309ce4:	e59f2408 	ldr	r2, [pc, #1032]	; e630a0f4 <InitDram+0xdd0>
e6309ce8:	e59f1400 	ldr	r1, [pc, #1024]	; e630a0f0 <InitDram+0xdcc>
e6309cec:	e5922000 	ldr	r2, [r2]
e6309cf0:	e1830c00 	orr	r0, r3, r0, lsl #24
e6309cf4:	e59d300c 	ldr	r3, [sp, #12]
e6309cf8:	e1833000 	orr	r3, r3, r0
e6309cfc:	e3a0000a 	mov	r0, #10
e6309d00:	e58d3004 	str	r3, [sp, #4]
e6309d04:	e0221290 	mla	r2, r0, r2, r1
e6309d08:	e5d20005 	ldrb	r0, [r2, #5]
e6309d0c:	e1a0100b 	mov	r1, fp
e6309d10:	e0800006 	add	r0, r0, r6
e6309d14:	e59fb3ac 	ldr	fp, [pc, #940]	; e630a0c8 <InitDram+0xda4>
e6309d18:	e0000099 	mul	r0, r9, r0
e6309d1c:	eb0008d9 	bl	e630c088 <____aeabi_uidiv_veneer>
e6309d20:	e59d3004 	ldr	r3, [sp, #4]
e6309d24:	e1833400 	orr	r3, r3, r0, lsl #8
e6309d28:	e50b38ff 	str	r3, [fp, #-2303]	; 0xfffff701
e6309d2c:	e5959000 	ldr	r9, [r5]
e6309d30:	e598032c 	ldr	r0, [r8, #812]	; 0x32c
e6309d34:	e59a2000 	ldr	r2, [sl]
e6309d38:	e0090997 	mul	r9, r7, r9
e6309d3c:	e5983330 	ldr	r3, [r8, #816]	; 0x330
e6309d40:	e6ef0070 	uxtb	r0, r0
e6309d44:	e58d3008 	str	r3, [sp, #8]
e6309d48:	e1a01002 	mov	r1, r2
e6309d4c:	e0000099 	mul	r0, r9, r0
e6309d50:	e58d2004 	str	r2, [sp, #4]
e6309d54:	eb0008cb 	bl	e630c088 <____aeabi_uidiv_veneer>
e6309d58:	e59d3000 	ldr	r3, [sp]
e6309d5c:	e59d2004 	ldr	r2, [sp, #4]
e6309d60:	e1a01002 	mov	r1, r2
e6309d64:	e1a06c00 	lsl	r6, r0, #24
e6309d68:	e0000399 	mul	r0, r9, r3
e6309d6c:	eb0008c5 	bl	e630c088 <____aeabi_uidiv_veneer>
e6309d70:	e59d3008 	ldr	r3, [sp, #8]
e6309d74:	e59d2004 	ldr	r2, [sp, #4]
e6309d78:	e1a01002 	mov	r1, r2
e6309d7c:	e1866400 	orr	r6, r6, r0, lsl #8
e6309d80:	e6ef0073 	uxtb	r0, r3
e6309d84:	e0000099 	mul	r0, r9, r0
e6309d88:	eb0008be 	bl	e630c088 <____aeabi_uidiv_veneer>
e6309d8c:	e1860800 	orr	r0, r6, r0, lsl #16
e6309d90:	e380000c 	orr	r0, r0, #12
e6309d94:	e50b08f7 	str	r0, [fp, #-2295]	; 0xfffff709
e6309d98:	e5982340 	ldr	r2, [r8, #832]	; 0x340
e6309d9c:	e5983358 	ldr	r3, [r8, #856]	; 0x358
e6309da0:	e5950000 	ldr	r0, [r5]
e6309da4:	e7e72852 	ubfx	r2, r2, #16, #8
e6309da8:	e59a9000 	ldr	r9, [sl]
e6309dac:	e1a01009 	mov	r1, r9
e6309db0:	e6f23073 	uxtah	r3, r2, r3
e6309db4:	e0050097 	mul	r5, r7, r0
e6309db8:	e0070397 	mul	r7, r7, r3
e6309dbc:	e2877cfa 	add	r7, r7, #64000	; 0xfa00
e6309dc0:	e0000790 	mul	r0, r0, r7
e6309dc4:	eb0008af 	bl	e630c088 <____aeabi_uidiv_veneer>
e6309dc8:	e1a01009 	mov	r1, r9
e6309dcc:	e2806007 	add	r6, r0, #7
e6309dd0:	e0000495 	mul	r0, r5, r4
e6309dd4:	eb0008ab 	bl	e630c088 <____aeabi_uidiv_veneer>
e6309dd8:	e1560000 	cmp	r6, r0
e6309ddc:	21a04006 	movcs	r4, r6
e6309de0:	31a04000 	movcc	r4, r0
e6309de4:	e59f63b4 	ldr	r6, [pc, #948]	; e630a1a0 <InitDram+0xe7c>
e6309de8:	e2490001 	sub	r0, r9, #1
e6309dec:	e5963000 	ldr	r3, [r6]
e6309df0:	e3530c52 	cmp	r3, #20992	; 0x5200
e6309df4:	e1a03008 	mov	r3, r8
e6309df8:	1a00006e 	bne	e6309fb8 <InitDram+0xc94>
e6309dfc:	e59f23b4 	ldr	r2, [pc, #948]	; e630a1b8 <InitDram+0xe94>
e6309e00:	e5922000 	ldr	r2, [r2]
e6309e04:	e352001f 	cmp	r2, #31
e6309e08:	8a00006a 	bhi	e6309fb8 <InitDram+0xc94>
e6309e0c:	e5983358 	ldr	r3, [r8, #856]	; 0x358
e6309e10:	e1a01009 	mov	r1, r9
e6309e14:	e6ff3073 	uxth	r3, r3
e6309e18:	e0200395 	mla	r0, r5, r3, r0
e6309e1c:	eb000899 	bl	e630c088 <____aeabi_uidiv_veneer>
e6309e20:	e2400003 	sub	r0, r0, #3
e6309e24:	e0800004 	add	r0, r0, r4
e6309e28:	e50b0fdb 	str	r0, [fp, #-4059]	; 0xfffff025
e6309e2c:	e5963000 	ldr	r3, [r6]
e6309e30:	e3530c4f 	cmp	r3, #20224	; 0x4f00
e6309e34:	1a00006e 	bne	e6309ff4 <InitDram+0xcd0>
e6309e38:	e59f3378 	ldr	r3, [pc, #888]	; e630a1b8 <InitDram+0xe94>
e6309e3c:	e5932000 	ldr	r2, [r3]
e6309e40:	e3520001 	cmp	r2, #1
e6309e44:	0a000064 	beq	e6309fdc <InitDram+0xcb8>
e6309e48:	e5932000 	ldr	r2, [r3]
e6309e4c:	e59f3338 	ldr	r3, [pc, #824]	; e630a18c <InitDram+0xe68>
e6309e50:	e3520000 	cmp	r2, #0
e6309e54:	03a02007 	moveq	r2, #7
e6309e58:	0a000006 	beq	e6309e78 <InitDram+0xb54>
e6309e5c:	e3520001 	cmp	r2, #1
e6309e60:	03a02005 	moveq	r2, #5
e6309e64:	0a000003 	beq	e6309e78 <InitDram+0xb54>
e6309e68:	e352001f 	cmp	r2, #31
e6309e6c:	83a02010 	movhi	r2, #16
e6309e70:	8a000000 	bhi	e6309e78 <InitDram+0xb54>
e6309e74:	e3a02001 	mov	r2, #1
e6309e78:	e58329fc 	str	r2, [r3, #2556]	; 0x9fc
e6309e7c:	e3a00000 	mov	r0, #0
e6309e80:	ebfff225 	bl	e630671c <vch_nxt>
e6309e84:	e59f424c 	ldr	r4, [pc, #588]	; e630a0d8 <InitDram+0xdb4>
e6309e88:	e3a05000 	mov	r5, #0
e6309e8c:	e3500003 	cmp	r0, #3
e6309e90:	9a000059 	bls	e6309ffc <InitDram+0xcd8>
e6309e94:	f57ff04f 	dsb	sy
e6309e98:	e5963000 	ldr	r3, [r6]
e6309e9c:	e3530c4f 	cmp	r3, #20224	; 0x4f00
e6309ea0:	1a000061 	bne	e630a02c <InitDram+0xd08>
e6309ea4:	e59f330c 	ldr	r3, [pc, #780]	; e630a1b8 <InitDram+0xe94>
e6309ea8:	e5933000 	ldr	r3, [r3]
e6309eac:	e3530001 	cmp	r3, #1
e6309eb0:	8a00005d 	bhi	e630a02c <InitDram+0xd08>
e6309eb4:	ebfff39e 	bl	e6306d34 <ddrphy_regif_idle>
e6309eb8:	e3a00000 	mov	r0, #0
e6309ebc:	ebfff220 	bl	e6306744 <pll3_control>
e6309ec0:	e3a00000 	mov	r0, #0
e6309ec4:	ebfff214 	bl	e630671c <vch_nxt>
e6309ec8:	e59f4244 	ldr	r4, [pc, #580]	; e630a114 <InitDram+0xdf0>
e6309ecc:	e3a05ef1 	mov	r5, #3856	; 0xf10
e6309ed0:	e3500003 	cmp	r0, #3
e6309ed4:	9a00004c 	bls	e630a00c <InitDram+0xce8>
e6309ed8:	f57ff04f 	dsb	sy
e6309edc:	e3a00000 	mov	r0, #0
e6309ee0:	e3005f11 	movw	r5, #3857	; 0xf11
e6309ee4:	ebfff20c 	bl	e630671c <vch_nxt>
e6309ee8:	e59f4224 	ldr	r4, [pc, #548]	; e630a114 <InitDram+0xdf0>
e6309eec:	e3500003 	cmp	r0, #3
e6309ef0:	9a000049 	bls	e630a01c <InitDram+0xcf8>
e6309ef4:	f57ff04f 	dsb	sy
e6309ef8:	e3a00000 	mov	r0, #0
e6309efc:	e30c5f01 	movw	r5, #52993	; 0xcf01
e6309f00:	ebfff205 	bl	e630671c <vch_nxt>
e6309f04:	e59f41f4 	ldr	r4, [pc, #500]	; e630a100 <InitDram+0xddc>
e6309f08:	e3500003 	cmp	r0, #3
e6309f0c:	9a00004c 	bls	e630a044 <InitDram+0xd20>
e6309f10:	f57ff04f 	dsb	sy
e6309f14:	e59f71e8 	ldr	r7, [pc, #488]	; e630a104 <InitDram+0xde0>
e6309f18:	e3a04000 	mov	r4, #0
e6309f1c:	e59f81e4 	ldr	r8, [pc, #484]	; e630a108 <InitDram+0xde4>
e6309f20:	e1a05004 	mov	r5, r4
e6309f24:	e3a00000 	mov	r0, #0
e6309f28:	e2844001 	add	r4, r4, #1
e6309f2c:	ebfff1fa 	bl	e630671c <vch_nxt>
e6309f30:	e1540007 	cmp	r4, r7
e6309f34:	0a00015c 	beq	e630a4ac <InitDram+0x1188>
e6309f38:	e3a09001 	mov	r9, #1
e6309f3c:	ea0000a8 	b	e630a1e4 <InitDram+0xec0>
e6309f40:	e0803007 	add	r3, r0, r7
e6309f44:	e1a03203 	lsl	r3, r3, #4
e6309f48:	e2832010 	add	r2, r3, #16
e6309f4c:	e4838004 	str	r8, [r3], #4
e6309f50:	e1530002 	cmp	r3, r2
e6309f54:	1afffffc 	bne	e6309f4c <InitDram+0xc28>
e6309f58:	e2800001 	add	r0, r0, #1
e6309f5c:	ebfff1ee 	bl	e630671c <vch_nxt>
e6309f60:	eafffe5f 	b	e63098e4 <InitDram+0x5c0>
e6309f64:	e7878300 	str	r8, [r7, r0, lsl #6]
e6309f68:	e2800001 	add	r0, r0, #1
e6309f6c:	ebfff1ea 	bl	e630671c <vch_nxt>
e6309f70:	eafffe86 	b	e6309990 <InitDram+0x66c>
e6309f74:	e351000b 	cmp	r1, #11
e6309f78:	81811801 	orrhi	r1, r1, r1, lsl #16
e6309f7c:	85871354 	strhi	r1, [r7, #852]	; 0x354
e6309f80:	8587235c 	strhi	r2, [r7, #860]	; 0x35c
e6309f84:	8affff1a 	bhi	e6309bf4 <InitDram+0x8d0>
e6309f88:	e59f117c 	ldr	r1, [pc, #380]	; e630a10c <InitDram+0xde8>
e6309f8c:	e59f21f8 	ldr	r2, [pc, #504]	; e630a18c <InitDram+0xe68>
e6309f90:	e5821354 	str	r1, [r2, #852]	; 0x354
e6309f94:	e3a01000 	mov	r1, #0
e6309f98:	eaffff14 	b	e6309bf0 <InitDram+0x8cc>
e6309f9c:	e1a0c100 	lsl	ip, r0, #2
e6309fa0:	e1811c1a 	orr	r1, r1, sl, lsl ip
e6309fa4:	e2800001 	add	r0, r0, #1
e6309fa8:	e58d1014 	str	r1, [sp, #20]
e6309fac:	ebfff1da 	bl	e630671c <vch_nxt>
e6309fb0:	e59d1014 	ldr	r1, [sp, #20]
e6309fb4:	eaffff2e 	b	e6309c74 <InitDram+0x950>
e6309fb8:	e5933358 	ldr	r3, [r3, #856]	; 0x358
e6309fbc:	e1a01009 	mov	r1, r9
e6309fc0:	e6ff3073 	uxth	r3, r3
e6309fc4:	e0200395 	mla	r0, r5, r3, r0
e6309fc8:	eb00082e 	bl	e630c088 <____aeabi_uidiv_veneer>
e6309fcc:	e59f30f4 	ldr	r3, [pc, #244]	; e630a0c8 <InitDram+0xda4>
e6309fd0:	e0800004 	add	r0, r0, r4
e6309fd4:	e5030fdb 	str	r0, [r3, #-4059]	; 0xfffff025
e6309fd8:	eaffff93 	b	e6309e2c <InitDram+0xb08>
e6309fdc:	e59f212c 	ldr	r2, [pc, #300]	; e630a110 <InitDram+0xdec>
e6309fe0:	e3a01607 	mov	r1, #7340032	; 0x700000
e6309fe4:	e5021fef 	str	r1, [r2, #-4079]	; 0xfffff011
e6309fe8:	e5962000 	ldr	r2, [r6]
e6309fec:	e3520c4f 	cmp	r2, #20224	; 0x4f00
e6309ff0:	0affff94 	beq	e6309e48 <InitDram+0xb24>
e6309ff4:	e59f3190 	ldr	r3, [pc, #400]	; e630a18c <InitDram+0xe68>
e6309ff8:	eaffff9d 	b	e6309e74 <InitDram+0xb50>
e6309ffc:	e7845300 	str	r5, [r4, r0, lsl #6]
e630a000:	e2800001 	add	r0, r0, #1
e630a004:	ebfff1c4 	bl	e630671c <vch_nxt>
e630a008:	eaffff9f 	b	e6309e8c <InitDram+0xb68>
e630a00c:	e7845300 	str	r5, [r4, r0, lsl #6]
e630a010:	e2800001 	add	r0, r0, #1
e630a014:	ebfff1c0 	bl	e630671c <vch_nxt>
e630a018:	eaffffac 	b	e6309ed0 <InitDram+0xbac>
e630a01c:	e7845300 	str	r5, [r4, r0, lsl #6]
e630a020:	e2800001 	add	r0, r0, #1
e630a024:	ebfff1bc 	bl	e630671c <vch_nxt>
e630a028:	eaffffaf 	b	e6309eec <InitDram+0xbc8>
e630a02c:	e3a01002 	mov	r1, #2
e630a030:	e30001d9 	movw	r0, #473	; 0x1d9
e630a034:	ebfff3ba 	bl	e6306f24 <ddr_setval_ach_as>
e630a038:	f57ff04f 	dsb	sy
e630a03c:	ebfff33c 	bl	e6306d34 <ddrphy_regif_idle>
e630a040:	eaffffac 	b	e6309ef8 <InitDram+0xbd4>
e630a044:	e7845300 	str	r5, [r4, r0, lsl #6]
e630a048:	e2800001 	add	r0, r0, #1
e630a04c:	ebfff1b2 	bl	e630671c <vch_nxt>
e630a050:	eaffffac 	b	e6309f08 <InitDram+0xbe4>
e630a054:	e6150000 	.word	0xe6150000
e630a058:	e630e028 	.word	0xe630e028
e630a05c:	e63104d0 	.word	0xe63104d0
e630a060:	e6060000 	.word	0xe6060000
e630a064:	e6060118 	.word	0xe6060118
e630a068:	e6055000 	.word	0xe6055000
e630a06c:	e6060414 	.word	0xe6060414
e630a070:	e6060454 	.word	0xe6060454
e630a074:	eb023fec 	.word	0xeb023fec
e630a078:	e631299b 	.word	0xe631299b
e630a07c:	e630f27c 	.word	0xe630f27c
e630a080:	e6311724 	.word	0xe6311724
e630a084:	e6312978 	.word	0xe6312978
e630a088:	e6312cd8 	.word	0xe6312cd8
e630a08c:	eb022d6c 	.word	0xeb022d6c
e630a090:	eb022dac 	.word	0xeb022dac
e630a094:	eb022d5c 	.word	0xeb022d5c
e630a098:	eb022d60 	.word	0xeb022d60
e630a09c:	eb022d90 	.word	0xeb022d90
e630a0a0:	eb022d8c 	.word	0xeb022d8c
e630a0a4:	eb022d64 	.word	0xeb022d64
e630a0a8:	eb022d68 	.word	0xeb022d68
e630a0ac:	eb022d94 	.word	0xeb022d94
e630a0b0:	e6160000 	.word	0xe6160000
e630a0b4:	eb022da0 	.word	0xeb022da0
e630a0b8:	e6790620 	.word	0xe6790620
e630a0bc:	e63129bc 	.word	0xe63129bc
e630a0c0:	e63129c5 	.word	0xe63129c5
e630a0c4:	01000001 	.word	0x01000001
e630a0c8:	e6791fff 	.word	0xe6791fff
e630a0cc:	0e679003 	.word	0x0e679003
e630a0d0:	0e030a02 	.word	0x0e030a02
e630a0d4:	e4e4e4e4 	.word	0xe4e4e4e4
e630a0d8:	e6790610 	.word	0xe6790610
e630a0dc:	0002bf20 	.word	0x0002bf20
e630a0e0:	e63165f0 	.word	0xe63165f0
e630a0e4:	eb023fb4 	.word	0xeb023fb4
e630a0e8:	eb023fe8 	.word	0xeb023fe8
e630a0ec:	eb023fe9 	.word	0xeb023fe9
e630a0f0:	e63165fe 	.word	0xe63165fe
e630a0f4:	eb022da4 	.word	0xeb022da4
e630a0f8:	00080008 	.word	0x00080008
e630a0fc:	e6790438 	.word	0xe6790438
e630a100:	e679061c 	.word	0xe679061c
e630a104:	00010001 	.word	0x00010001
e630a108:	0399e418 	.word	0x0399e418
e630a10c:	000b000b 	.word	0x000b000b
e630a110:	e6793fff 	.word	0xe6793fff
e630a114:	e6790604 	.word	0xe6790604
e630a118:	eb023ff0 	.word	0xeb023ff0
e630a11c:	e63129de 	.word	0xe63129de
e630a120:	e63129f9 	.word	0xe63129f9
e630a124:	e6110000 	.word	0xe6110000
e630a128:	e6312a40 	.word	0xe6312a40
e630a12c:	eb023ff8 	.word	0xeb023ff8
e630a130:	10624dd3 	.word	0x10624dd3
e630a134:	fffa85a8 	.word	0xfffa85a8
e630a138:	fffb7a94 	.word	0xfffb7a94
e630a13c:	fffff000 	.word	0xfffff000
e630a140:	e6312a14 	.word	0xe6312a14
e630a144:	eb02205c 	.word	0xeb02205c
e630a148:	fffe0000 	.word	0xfffe0000
e630a14c:	e6312b80 	.word	0xe6312b80
e630a150:	08840000 	.word	0x08840000
e630a154:	08840001 	.word	0x08840001
e630a158:	eb02285c 	.word	0xeb02285c
e630a15c:	0e841616 	.word	0x0e841616
e630a160:	e6312c74 	.word	0xe6312c74
e630a164:	e6312c94 	.word	0xe6312c94
e630a168:	e6312cb4 	.word	0xe6312cb4
e630a16c:	e6312c14 	.word	0xe6312c14
e630a170:	e6312c34 	.word	0xe6312c34
e630a174:	e6312c54 	.word	0xe6312c54
e630a178:	0d84004f 	.word	0x0d84004f
e630a17c:	0d840051 	.word	0x0d840051
e630a180:	0e840d08 	.word	0x0e840d08
e630a184:	e6198000 	.word	0xe6198000
e630a188:	eb022db0 	.word	0xeb022db0
e630a18c:	e6790000 	.word	0xe6790000
e630a190:	eb022d9c 	.word	0xeb022d9c
e630a194:	eb022d98 	.word	0xeb022d98
e630a198:	eb02201c 	.word	0xeb02201c
e630a19c:	e6312b48 	.word	0xe6312b48
e630a1a0:	eb022058 	.word	0xeb022058
e630a1a4:	eb022000 	.word	0xeb022000
e630a1a8:	e6312b30 	.word	0xe6312b30
e630a1ac:	e6312b58 	.word	0xe6312b58
e630a1b0:	0d00ffff 	.word	0x0d00ffff
e630a1b4:	eb02265c 	.word	0xeb02265c
e630a1b8:	eb022054 	.word	0xeb022054
e630a1bc:	eb022db4 	.word	0xeb022db4
e630a1c0:	e6312bc4 	.word	0xe6312bc4
e630a1c4:	e6312ba0 	.word	0xe6312ba0
e630a1c8:	e0803008 	add	r3, r0, r8
e630a1cc:	e1a03303 	lsl	r3, r3, #6
e630a1d0:	e5933000 	ldr	r3, [r3]
e630a1d4:	e3130001 	tst	r3, #1
e630a1d8:	11855019 	orrne	r5, r5, r9, lsl r0
e630a1dc:	e2800001 	add	r0, r0, #1
e630a1e0:	ebfff14d 	bl	e630671c <vch_nxt>
e630a1e4:	e3500003 	cmp	r0, #3
e630a1e8:	9afffff6 	bls	e630a1c8 <InitDram+0xea4>
e630a1ec:	f57ff04f 	dsb	sy
e630a1f0:	e51f3068 	ldr	r3, [pc, #-104]	; e630a190 <InitDram+0xe6c>
e630a1f4:	e5933000 	ldr	r3, [r3]
e630a1f8:	e1550003 	cmp	r5, r3
e630a1fc:	1a0000a4 	bne	e630a494 <InitDram+0x1170>
e630a200:	e3a00000 	mov	r0, #0
e630a204:	e3a05010 	mov	r5, #16
e630a208:	ebfff143 	bl	e630671c <vch_nxt>
e630a20c:	e51f4100 	ldr	r4, [pc, #-256]	; e630a114 <InitDram+0xdf0>
e630a210:	e3500003 	cmp	r0, #3
e630a214:	9a0000aa 	bls	e630a4c4 <InitDram+0x11a0>
e630a218:	f57ff04f 	dsb	sy
e630a21c:	e51f310c 	ldr	r3, [pc, #-268]	; e630a118 <InitDram+0xdf4>
e630a220:	e1a04003 	mov	r4, r3
e630a224:	e5932000 	ldr	r2, [r3]
e630a228:	e3520000 	cmp	r2, #0
e630a22c:	151f0118 	ldrne	r0, [pc, #-280]	; e630a11c <InitDram+0xdf8>
e630a230:	051f0118 	ldreq	r0, [pc, #-280]	; e630a120 <InitDram+0xdfc>
e630a234:	eb000789 	bl	e630c060 <__tf_printf_veneer>
e630a238:	e5940000 	ldr	r0, [r4]
e630a23c:	eb000693 	bl	e630bc90 <dram_update_boot_status>
e630a240:	e3500000 	cmp	r0, #0
e630a244:	1a0000a2 	bne	e630a4d4 <InitDram+0x11b0>
e630a248:	e51f312c 	ldr	r3, [pc, #-300]	; e630a124 <InitDram+0xe00>
e630a24c:	e5931040 	ldr	r1, [r3, #64]	; 0x40
e630a250:	e593c044 	ldr	ip, [r3, #68]	; 0x44
e630a254:	e51f3134 	ldr	r3, [pc, #-308]	; e630a128 <InitDram+0xe04>
e630a258:	e1a0e003 	mov	lr, r3
e630a25c:	e5932000 	ldr	r2, [r3]
e630a260:	e3720001 	cmn	r2, #1
e630a264:	0a0000a0 	beq	e630a4ec <InitDram+0x11c8>
e630a268:	e1520001 	cmp	r2, r1
e630a26c:	1a00009b 	bne	e630a4e0 <InitDram+0x11bc>
e630a270:	e5932004 	ldr	r2, [r3, #4]
e630a274:	e152000c 	cmp	r2, ip
e630a278:	1a000098 	bne	e630a4e0 <InitDram+0x11bc>
e630a27c:	e3a0300c 	mov	r3, #12
e630a280:	e3a04000 	mov	r4, #0
e630a284:	e51f7140 	ldr	r7, [pc, #-320]	; e630a14c <InitDram+0xe28>
e630a288:	e020e093 	mla	r0, r3, r0, lr
e630a28c:	e51fa150 	ldr	sl, [pc, #-336]	; e630a144 <InitDram+0xe20>
e630a290:	e51f9150 	ldr	r9, [pc, #-336]	; e630a148 <InitDram+0xe24>
e630a294:	e5908008 	ldr	r8, [r0, #8]
e630a298:	e4975004 	ldr	r5, [r7], #4
e630a29c:	e1a0000a 	mov	r0, sl
e630a2a0:	e1a01005 	mov	r1, r5
e630a2a4:	e2844001 	add	r4, r4, #1
e630a2a8:	ebfff400 	bl	e63072b0 <ddrtbl_getval>
e630a2ac:	e0001009 	and	r1, r0, r9
e630a2b0:	e1a00005 	mov	r0, r5
e630a2b4:	e1881001 	orr	r1, r8, r1
e630a2b8:	ebfff30d 	bl	e6306ef4 <ddr_setval_ach>
e630a2bc:	e3540008 	cmp	r4, #8
e630a2c0:	1afffff4 	bne	e630a298 <InitDram+0xf74>
e630a2c4:	e3a04001 	mov	r4, #1
e630a2c8:	e5968000 	ldr	r8, [r6]
e630a2cc:	e51f311c 	ldr	r3, [pc, #-284]	; e630a1b8 <InitDram+0xe94>
e630a2d0:	e58d300c 	str	r3, [sp, #12]
e630a2d4:	e3580c4f 	cmp	r8, #20224	; 0x4f00
e630a2d8:	e5939000 	ldr	r9, [r3]
e630a2dc:	1a000001 	bne	e630a2e8 <InitDram+0xfc4>
e630a2e0:	e3590001 	cmp	r9, #1
e630a2e4:	9a000041 	bls	e630a3f0 <InitDram+0x10cc>
e630a2e8:	e51f51c4 	ldr	r5, [pc, #-452]	; e630a12c <InitDram+0xe08>
e630a2ec:	e3a00000 	mov	r0, #0
e630a2f0:	e5850000 	str	r0, [r5]
e630a2f4:	e5850004 	str	r0, [r5, #4]
e630a2f8:	e5850014 	str	r0, [r5, #20]
e630a2fc:	e5850008 	str	r0, [r5, #8]
e630a300:	e5850018 	str	r0, [r5, #24]
e630a304:	e585000c 	str	r0, [r5, #12]
e630a308:	e585001c 	str	r0, [r5, #28]
e630a30c:	e5850010 	str	r0, [r5, #16]
e630a310:	e5850020 	str	r0, [r5, #32]
e630a314:	ebfff100 	bl	e630671c <vch_nxt>
e630a318:	e1a07000 	mov	r7, r0
e630a31c:	e3500003 	cmp	r0, #3
e630a320:	9a0000d0 	bls	e630a668 <InitDram+0x1344>
e630a324:	e3540000 	cmp	r4, #0
e630a328:	1a00002e 	bne	e630a3e8 <InitDram+0x10c4>
e630a32c:	e51f31b0 	ldr	r3, [pc, #-432]	; e630a184 <InitDram+0xe60>
e630a330:	e3a00000 	mov	r0, #0
e630a334:	e51f720c 	ldr	r7, [pc, #-524]	; e630a130 <InitDram+0xe0c>
e630a338:	e3e0b01c 	mvn	fp, #28
e630a33c:	e3a0a036 	mov	sl, #54	; 0x36
e630a340:	e5934028 	ldr	r4, [r3, #40]	; 0x28
e630a344:	e3540eaf 	cmp	r4, #2800	; 0xaf0
e630a348:	33a0208f 	movcc	r2, #143	; 0x8f
e630a34c:	23a02079 	movcs	r2, #121	; 0x79
e630a350:	351f3224 	ldrcc	r3, [pc, #-548]	; e630a134 <InitDram+0xe10>
e630a354:	251f3224 	ldrcs	r3, [pc, #-548]	; e630a138 <InitDram+0xe14>
e630a358:	e0243492 	mla	r4, r2, r4, r3
e630a35c:	e0c32794 	smull	r2, r3, r4, r7
e630a360:	e1a04fc4 	asr	r4, r4, #31
e630a364:	e0644343 	rsb	r4, r4, r3, asr #6
e630a368:	e5854000 	str	r4, [r5]
e630a36c:	ebfff0ea 	bl	e630671c <vch_nxt>
e630a370:	e3a0101d 	mov	r1, #29
e630a374:	e00a049a 	mul	sl, sl, r4
e630a378:	e0010491 	mul	r1, r1, r4
e630a37c:	e24aad69 	sub	sl, sl, #6720	; 0x1a40
e630a380:	e2411ee2 	sub	r1, r1, #3616	; 0xe20
e630a384:	e2411009 	sub	r1, r1, #9
e630a388:	e24aa01e 	sub	sl, sl, #30
e630a38c:	e0c32791 	smull	r2, r3, r1, r7
e630a390:	e1a01fc1 	asr	r1, r1, #31
e630a394:	e0613343 	rsb	r3, r1, r3, asr #6
e630a398:	e58d3000 	str	r3, [sp]
e630a39c:	e3003e29 	movw	r3, #3625	; 0xe29
e630a3a0:	e02b349b 	mla	fp, fp, r4, r3
e630a3a4:	e0c3279b 	smull	r2, r3, fp, r7
e630a3a8:	e1a0bfcb 	asr	fp, fp, #31
e630a3ac:	e06bb343 	rsb	fp, fp, r3, asr #6
e630a3b0:	e0c3279a 	smull	r2, r3, sl, r7
e630a3b4:	e1a0afca 	asr	sl, sl, #31
e630a3b8:	e3e02035 	mvn	r2, #53	; 0x35
e630a3bc:	e06aa343 	rsb	sl, sl, r3, asr #6
e630a3c0:	e3013a5e 	movw	r3, #6750	; 0x1a5e
e630a3c4:	e0243492 	mla	r4, r2, r4, r3
e630a3c8:	e0c32794 	smull	r2, r3, r4, r7
e630a3cc:	e51f7298 	ldr	r7, [pc, #-664]	; e630a13c <InitDram+0xe18>
e630a3d0:	e1a04fc4 	asr	r4, r4, #31
e630a3d4:	e0644343 	rsb	r4, r4, r3, asr #6
e630a3d8:	e3500003 	cmp	r0, #3
e630a3dc:	9a0000ad 	bls	e630a698 <InitDram+0x1374>
e630a3e0:	e3a0307d 	mov	r3, #125	; 0x7d
e630a3e4:	e5853000 	str	r3, [r5]
e630a3e8:	e3590001 	cmp	r9, #1
e630a3ec:	8a000002 	bhi	e630a3fc <InitDram+0x10d8>
e630a3f0:	e2483c55 	sub	r3, r8, #21760	; 0x5500
e630a3f4:	e3d33c01 	bics	r3, r3, #256	; 0x100
e630a3f8:	1a0000e5 	bne	e630a794 <InitDram+0x1470>
e630a3fc:	e3a01000 	mov	r1, #0
e630a400:	e3a0008f 	mov	r0, #143	; 0x8f
e630a404:	ebfff2c6 	bl	e6306f24 <ddr_setval_ach_as>
e630a408:	e3a01000 	mov	r1, #0
e630a40c:	e3a00084 	mov	r0, #132	; 0x84
e630a410:	e2487c55 	sub	r7, r8, #21760	; 0x5500
e630a414:	ebfff2c2 	bl	e6306f24 <ddr_setval_ach_as>
e630a418:	e3a0100f 	mov	r1, #15
e630a41c:	e3a00085 	mov	r0, #133	; 0x85
e630a420:	e3a05000 	mov	r5, #0
e630a424:	ebfff2be 	bl	e6306f24 <ddr_setval_ach_as>
e630a428:	e3c77c01 	bic	r7, r7, #256	; 0x100
e630a42c:	e31500ff 	tst	r5, #255	; 0xff
e630a430:	1a000002 	bne	e630a440 <InitDram+0x111c>
e630a434:	e3a01001 	mov	r1, #1
e630a438:	e3a00083 	mov	r0, #131	; 0x83
e630a43c:	ebfff2b8 	bl	e6306f24 <ddr_setval_ach_as>
e630a440:	e3a00000 	mov	r0, #0
e630a444:	ebfff0b4 	bl	e630671c <vch_nxt>
e630a448:	e1a04000 	mov	r4, r0
e630a44c:	e3500003 	cmp	r0, #3
e630a450:	9a0000ab 	bls	e630a704 <InitDram+0x13e0>
e630a454:	e3a00000 	mov	r0, #0
e630a458:	e3a04001 	mov	r4, #1
e630a45c:	ebfff0ae 	bl	e630671c <vch_nxt>
e630a460:	e3500003 	cmp	r0, #3
e630a464:	9a0000b3 	bls	e630a738 <InitDram+0x1414>
e630a468:	e3540000 	cmp	r4, #0
e630a46c:	1a000002 	bne	e630a47c <InitDram+0x1158>
e630a470:	e2855001 	add	r5, r5, #1
e630a474:	e3550a01 	cmp	r5, #4096	; 0x1000
e630a478:	1affffeb 	bne	e630a42c <InitDram+0x1108>
e630a47c:	e2240001 	eor	r0, r4, #1
e630a480:	e3500000 	cmp	r0, #0
e630a484:	0a0000c4 	beq	e630a79c <InitDram+0x1478>
e630a488:	e3e03001 	mvn	r3, #1
e630a48c:	e58d3000 	str	r3, [sp]
e630a490:	ea000538 	b	e630b978 <InitDram+0x2654>
e630a494:	e31400ff 	tst	r4, #255	; 0xff
e630a498:	1afffea1 	bne	e6309f24 <InitDram+0xc00>
e630a49c:	e3a01001 	mov	r1, #1
e630a4a0:	e3a00083 	mov	r0, #131	; 0x83
e630a4a4:	ebfff29e 	bl	e6306f24 <ddr_setval_ach_as>
e630a4a8:	eafffe9d 	b	e6309f24 <InitDram+0xc00>
e630a4ac:	e51f3324 	ldr	r3, [pc, #-804]	; e630a190 <InitDram+0xe6c>
e630a4b0:	e5933000 	ldr	r3, [r3]
e630a4b4:	e1d33005 	bics	r3, r3, r5
e630a4b8:	0affff50 	beq	e630a200 <InitDram+0xedc>
e630a4bc:	e3e03000 	mvn	r3, #0
e630a4c0:	eafffff1 	b	e630a48c <InitDram+0x1168>
e630a4c4:	e7845300 	str	r5, [r4, r0, lsl #6]
e630a4c8:	e2800001 	add	r0, r0, #1
e630a4cc:	ebfff092 	bl	e630671c <vch_nxt>
e630a4d0:	eaffff4e 	b	e630a210 <InitDram+0xeec>
e630a4d4:	e51f039c 	ldr	r0, [pc, #-924]	; e630a140 <InitDram+0xe1c>
e630a4d8:	eb0006e0 	bl	e630c060 <__tf_printf_veneer>
e630a4dc:	eafffff6 	b	e630a4bc <InitDram+0x1198>
e630a4e0:	e2800001 	add	r0, r0, #1
e630a4e4:	e283300c 	add	r3, r3, #12
e630a4e8:	eaffff5b 	b	e630a25c <InitDram+0xf38>
e630a4ec:	e5967000 	ldr	r7, [r6]
e630a4f0:	e51f3340 	ldr	r3, [pc, #-832]	; e630a1b8 <InitDram+0xe94>
e630a4f4:	e3570c52 	cmp	r7, #20992	; 0x5200
e630a4f8:	e5935000 	ldr	r5, [r3]
e630a4fc:	1a000003 	bne	e630a510 <InitDram+0x11ec>
e630a500:	e3550000 	cmp	r5, #0
e630a504:	1a000001 	bne	e630a510 <InitDram+0x11ec>
e630a508:	e3a04000 	mov	r4, #0
e630a50c:	eaffff6d 	b	e630a2c8 <InitDram+0xfa4>
e630a510:	e51f03d4 	ldr	r0, [pc, #-980]	; e630a144 <InitDram+0xe20>
e630a514:	e3001196 	movw	r1, #406	; 0x196
e630a518:	ebfff364 	bl	e63072b0 <ddrtbl_getval>
e630a51c:	e1a018a0 	lsr	r1, r0, #17
e630a520:	e3000196 	movw	r0, #406	; 0x196
e630a524:	e1a01881 	lsl	r1, r1, #17
e630a528:	ebfff271 	bl	e6306ef4 <ddr_setval_ach>
e630a52c:	e3a01001 	mov	r1, #1
e630a530:	e3a00f6a 	mov	r0, #424	; 0x1a8
e630a534:	ebfff26e 	bl	e6306ef4 <ddr_setval_ach>
e630a538:	e30001a9 	movw	r0, #425	; 0x1a9
e630a53c:	e3a01001 	mov	r1, #1
e630a540:	ebfff26b 	bl	e6306ef4 <ddr_setval_ach>
e630a544:	e3a00000 	mov	r0, #0
e630a548:	ebfff073 	bl	e630671c <vch_nxt>
e630a54c:	e1a04000 	mov	r4, r0
e630a550:	e3500003 	cmp	r0, #3
e630a554:	9a000028 	bls	e630a5fc <InitDram+0x12d8>
e630a558:	e3a00000 	mov	r0, #0
e630a55c:	ebfff06e 	bl	e630671c <vch_nxt>
e630a560:	e3570c4f 	cmp	r7, #20224	; 0x4f00
e630a564:	e1a04000 	mov	r4, r0
e630a568:	1a00003b 	bne	e630a65c <InitDram+0x1338>
e630a56c:	e3550001 	cmp	r5, #1
e630a570:	8a000039 	bhi	e630a65c <InitDram+0x1338>
e630a574:	e51f8438 	ldr	r8, [pc, #-1080]	; e630a144 <InitDram+0xe20>
e630a578:	e51f9438 	ldr	r9, [pc, #-1080]	; e630a148 <InitDram+0xe24>
e630a57c:	e3540003 	cmp	r4, #3
e630a580:	8affffe0 	bhi	e630a508 <InitDram+0x11e4>
e630a584:	e3001196 	movw	r1, #406	; 0x196
e630a588:	e1a00004 	mov	r0, r4
e630a58c:	ebfff5ef 	bl	e6307d50 <ddr_getval>
e630a590:	e30011af 	movw	r1, #431	; 0x1af
e630a594:	e51fb450 	ldr	fp, [pc, #-1104]	; e630a14c <InitDram+0xe28>
e630a598:	e3a07000 	mov	r7, #0
e630a59c:	e7e40650 	ubfx	r0, r0, #12, #5
e630a5a0:	e2805008 	add	r5, r0, #8
e630a5a4:	e1a00004 	mov	r0, r4
e630a5a8:	ebfff5e8 	bl	e6307d50 <ddr_getval>
e630a5ac:	e355001f 	cmp	r5, #31
e630a5b0:	23a0501f 	movcs	r5, #31
e630a5b4:	e7eb0050 	ubfx	r0, r0, #0, #12
e630a5b8:	e1805605 	orr	r5, r0, r5, lsl #12
e630a5bc:	e49ba004 	ldr	sl, [fp], #4
e630a5c0:	e1a00008 	mov	r0, r8
e630a5c4:	e1a0100a 	mov	r1, sl
e630a5c8:	e2877001 	add	r7, r7, #1
e630a5cc:	ebfff337 	bl	e63072b0 <ddrtbl_getval>
e630a5d0:	e1a0100a 	mov	r1, sl
e630a5d4:	e0002009 	and	r2, r0, r9
e630a5d8:	e1a00004 	mov	r0, r4
e630a5dc:	e1852002 	orr	r2, r5, r2
e630a5e0:	ebfff22f 	bl	e6306ea4 <ddr_setval>
e630a5e4:	e3570008 	cmp	r7, #8
e630a5e8:	1afffff3 	bne	e630a5bc <InitDram+0x1298>
e630a5ec:	e2840001 	add	r0, r4, #1
e630a5f0:	ebfff049 	bl	e630671c <vch_nxt>
e630a5f4:	e1a04000 	mov	r4, r0
e630a5f8:	eaffffdf 	b	e630a57c <InitDram+0x1258>
e630a5fc:	e30011af 	movw	r1, #431	; 0x1af
e630a600:	e1a00004 	mov	r0, r4
e630a604:	ebfff5d1 	bl	e6307d50 <ddr_getval>
e630a608:	e3100502 	tst	r0, #8388608	; 0x800000
e630a60c:	0afffffa 	beq	e630a5fc <InitDram+0x12d8>
e630a610:	e2840001 	add	r0, r4, #1
e630a614:	eaffffcb 	b	e630a548 <InitDram+0x1224>
e630a618:	e51f84d4 	ldr	r8, [pc, #-1236]	; e630a14c <InitDram+0xe28>
e630a61c:	e3a05000 	mov	r5, #0
e630a620:	e4987004 	ldr	r7, [r8], #4
e630a624:	e1a00004 	mov	r0, r4
e630a628:	e1a01007 	mov	r1, r7
e630a62c:	e2855001 	add	r5, r5, #1
e630a630:	ebfff5c6 	bl	e6307d50 <ddr_getval>
e630a634:	e1a01007 	mov	r1, r7
e630a638:	e3c02a1f 	bic	r2, r0, #126976	; 0x1f000
e630a63c:	e1a00004 	mov	r0, r4
e630a640:	e3822a15 	orr	r2, r2, #86016	; 0x15000
e630a644:	ebfff216 	bl	e6306ea4 <ddr_setval>
e630a648:	e3550008 	cmp	r5, #8
e630a64c:	1afffff3 	bne	e630a620 <InitDram+0x12fc>
e630a650:	e2840001 	add	r0, r4, #1
e630a654:	ebfff030 	bl	e630671c <vch_nxt>
e630a658:	e1a04000 	mov	r4, r0
e630a65c:	e3540003 	cmp	r4, #3
e630a660:	9affffec 	bls	e630a618 <InitDram+0x12f4>
e630a664:	eaffffa7 	b	e630a508 <InitDram+0x11e4>
e630a668:	e3001197 	movw	r1, #407	; 0x197
e630a66c:	e1a00007 	mov	r0, r7
e630a670:	ebfff5b6 	bl	e6307d50 <ddr_getval>
e630a674:	e3001197 	movw	r1, #407	; 0x197
e630a678:	e0853107 	add	r3, r5, r7, lsl #2
e630a67c:	e5830004 	str	r0, [r3, #4]
e630a680:	e1a00007 	mov	r0, r7
e630a684:	ebfff5b1 	bl	e6307d50 <ddr_getval>
e630a688:	e0853107 	add	r3, r5, r7, lsl #2
e630a68c:	e5830014 	str	r0, [r3, #20]
e630a690:	e2870001 	add	r0, r7, #1
e630a694:	eaffff1e 	b	e630a314 <InitDram+0xff0>
e630a698:	e59de000 	ldr	lr, [sp]
e630a69c:	e1a0c100 	lsl	ip, r0, #2
e630a6a0:	e085300c 	add	r3, r5, ip
e630a6a4:	e5931004 	ldr	r1, [r3, #4]
e630a6a8:	e201303f 	and	r3, r1, #63	; 0x3f
e630a6ac:	e7e52351 	ubfx	r2, r1, #6, #6
e630a6b0:	e15e0003 	cmp	lr, r3
e630a6b4:	a3a03000 	movge	r3, #0
e630a6b8:	b083300b 	addlt	r3, r3, fp
e630a6bc:	e15a0002 	cmp	sl, r2
e630a6c0:	a3a02000 	movge	r2, #0
e630a6c4:	b0822004 	addlt	r2, r2, r4
e630a6c8:	e3580c4f 	cmp	r8, #20224	; 0x4f00
e630a6cc:	e1a02302 	lsl	r2, r2, #6
e630a6d0:	1a000004 	bne	e630a6e8 <InitDram+0x13c4>
e630a6d4:	e3590001 	cmp	r9, #1
e630a6d8:	90011007 	andls	r1, r1, r7
e630a6dc:	91811003 	orrls	r1, r1, r3
e630a6e0:	91812002 	orrls	r2, r1, r2
e630a6e4:	9a000001 	bls	e630a6f0 <InitDram+0x13cc>
e630a6e8:	e1832002 	orr	r2, r3, r2
e630a6ec:	e3822a15 	orr	r2, r2, #86016	; 0x15000
e630a6f0:	e085c00c 	add	ip, r5, ip
e630a6f4:	e2800001 	add	r0, r0, #1
e630a6f8:	e58c2004 	str	r2, [ip, #4]
e630a6fc:	ebfff006 	bl	e630671c <vch_nxt>
e630a700:	eaffff34 	b	e630a3d8 <InitDram+0x10b4>
e630a704:	e3a0a000 	mov	sl, #0
e630a708:	e28d3060 	add	r3, sp, #96	; 0x60
e630a70c:	e083b204 	add	fp, r3, r4, lsl #4
e630a710:	e1a0100a 	mov	r1, sl
e630a714:	e3a0208f 	mov	r2, #143	; 0x8f
e630a718:	e1a00004 	mov	r0, r4
e630a71c:	e28aa001 	add	sl, sl, #1
e630a720:	ebfff57b 	bl	e6307d14 <ddr_getval_s>
e630a724:	e35a0004 	cmp	sl, #4
e630a728:	e48b0004 	str	r0, [fp], #4
e630a72c:	1afffff7 	bne	e630a710 <InitDram+0x13ec>
e630a730:	e2840001 	add	r0, r4, #1
e630a734:	eaffff42 	b	e630a444 <InitDram+0x1120>
e630a738:	e3a01000 	mov	r1, #0
e630a73c:	e28d3060 	add	r3, sp, #96	; 0x60
e630a740:	e083c200 	add	ip, r3, r0, lsl #4
e630a744:	e49c2004 	ldr	r2, [ip], #4
e630a748:	e3580c4f 	cmp	r8, #20224	; 0x4f00
e630a74c:	e202303f 	and	r3, r2, #63	; 0x3f
e630a750:	e7e52352 	ubfx	r2, r2, #6, #6
e630a754:	e0833002 	add	r3, r3, r2
e630a758:	1a000003 	bne	e630a76c <InitDram+0x1448>
e630a75c:	e3590001 	cmp	r9, #1
e630a760:	8a000003 	bhi	e630a774 <InitDram+0x1450>
e630a764:	e3530040 	cmp	r3, #64	; 0x40
e630a768:	ea000002 	b	e630a778 <InitDram+0x1454>
e630a76c:	e3570000 	cmp	r7, #0
e630a770:	1afffffb 	bne	e630a764 <InitDram+0x1440>
e630a774:	e353003e 	cmp	r3, #62	; 0x3e
e630a778:	13a04000 	movne	r4, #0
e630a77c:	e2811001 	add	r1, r1, #1
e630a780:	e3510004 	cmp	r1, #4
e630a784:	1affffee 	bne	e630a744 <InitDram+0x1420>
e630a788:	e2800001 	add	r0, r0, #1
e630a78c:	ebffefe2 	bl	e630671c <vch_nxt>
e630a790:	eaffff32 	b	e630a460 <InitDram+0x113c>
e630a794:	ebfff699 	bl	e6308200 <rx_offset_cal>
e630a798:	eaffff38 	b	e630a480 <InitDram+0x115c>
e630a79c:	e51f0654 	ldr	r0, [pc, #-1620]	; e630a150 <InitDram+0xe2c>
e630a7a0:	ebfff0a6 	bl	e6306a40 <send_dbcmd>
e630a7a4:	e51f0658 	ldr	r0, [pc, #-1624]	; e630a154 <InitDram+0xe30>
e630a7a8:	ebfff0a4 	bl	e6306a40 <send_dbcmd>
e630a7ac:	ebfff749 	bl	e63084d8 <ddrphy_regif_chk>
e630a7b0:	e2503000 	subs	r3, r0, #0
e630a7b4:	e58d3004 	str	r3, [sp, #4]
e630a7b8:	1affff32 	bne	e630a488 <InitDram+0x1164>
e630a7bc:	ebfff566 	bl	e6307d5c <change_lpddr4_en>
e630a7c0:	e51f8648 	ldr	r8, [pc, #-1608]	; e630a180 <InitDram+0xe5c>
e630a7c4:	e51f5674 	ldr	r5, [pc, #-1652]	; e630a158 <InitDram+0xe34>
e630a7c8:	e3a04001 	mov	r4, #1
e630a7cc:	e51f7678 	ldr	r7, [pc, #-1656]	; e630a15c <InitDram+0xe38>
e630a7d0:	e3e0003f 	mvn	r0, #63	; 0x3f
e630a7d4:	e0000490 	mul	r0, r0, r4
e630a7d8:	e2800080 	add	r0, r0, #128	; 0x80
e630a7dc:	e1800008 	orr	r0, r0, r8
e630a7e0:	ebfff096 	bl	e6306a40 <send_dbcmd>
e630a7e4:	e51f368c 	ldr	r3, [pc, #-1676]	; e630a160 <InitDram+0xe3c>
e630a7e8:	e1a00005 	mov	r0, r5
e630a7ec:	e7931204 	ldr	r1, [r3, r4, lsl #4]
e630a7f0:	ebfff2ae 	bl	e63072b0 <ddrtbl_getval>
e630a7f4:	e380053a 	orr	r0, r0, #243269632	; 0xe800000
e630a7f8:	e3800701 	orr	r0, r0, #262144	; 0x40000
e630a7fc:	e3800c01 	orr	r0, r0, #256	; 0x100
e630a800:	ebfff08e 	bl	e6306a40 <send_dbcmd>
e630a804:	e51f36a8 	ldr	r3, [pc, #-1704]	; e630a164 <InitDram+0xe40>
e630a808:	e1a00005 	mov	r0, r5
e630a80c:	e7931204 	ldr	r1, [r3, r4, lsl #4]
e630a810:	ebfff2a6 	bl	e63072b0 <ddrtbl_getval>
e630a814:	e380053a 	orr	r0, r0, #243269632	; 0xe800000
e630a818:	e3800701 	orr	r0, r0, #262144	; 0x40000
e630a81c:	e3800c02 	orr	r0, r0, #512	; 0x200
e630a820:	ebfff086 	bl	e6306a40 <send_dbcmd>
e630a824:	e51f36c4 	ldr	r3, [pc, #-1732]	; e630a168 <InitDram+0xe44>
e630a828:	e1a00005 	mov	r0, r5
e630a82c:	e7931204 	ldr	r1, [r3, r4, lsl #4]
e630a830:	ebfff29e 	bl	e63072b0 <ddrtbl_getval>
e630a834:	e380053a 	orr	r0, r0, #243269632	; 0xe800000
e630a838:	e3800701 	orr	r0, r0, #262144	; 0x40000
e630a83c:	e3800c03 	orr	r0, r0, #768	; 0x300
e630a840:	ebfff07e 	bl	e6306a40 <send_dbcmd>
e630a844:	e51f36e0 	ldr	r3, [pc, #-1760]	; e630a16c <InitDram+0xe48>
e630a848:	e1a00005 	mov	r0, r5
e630a84c:	e7931204 	ldr	r1, [r3, r4, lsl #4]
e630a850:	ebfff296 	bl	e63072b0 <ddrtbl_getval>
e630a854:	e380053a 	orr	r0, r0, #243269632	; 0xe800000
e630a858:	e3800701 	orr	r0, r0, #262144	; 0x40000
e630a85c:	e3800c0b 	orr	r0, r0, #2816	; 0xb00
e630a860:	ebfff076 	bl	e6306a40 <send_dbcmd>
e630a864:	e51f36fc 	ldr	r3, [pc, #-1788]	; e630a170 <InitDram+0xe4c>
e630a868:	e1a00005 	mov	r0, r5
e630a86c:	e7931204 	ldr	r1, [r3, r4, lsl #4]
e630a870:	ebfff28e 	bl	e63072b0 <ddrtbl_getval>
e630a874:	e380053a 	orr	r0, r0, #243269632	; 0xe800000
e630a878:	e3800701 	orr	r0, r0, #262144	; 0x40000
e630a87c:	e3800b03 	orr	r0, r0, #3072	; 0xc00
e630a880:	ebfff06e 	bl	e6306a40 <send_dbcmd>
e630a884:	e51f3718 	ldr	r3, [pc, #-1816]	; e630a174 <InitDram+0xe50>
e630a888:	e1a00005 	mov	r0, r5
e630a88c:	e7931204 	ldr	r1, [r3, r4, lsl #4]
e630a890:	ebfff286 	bl	e63072b0 <ddrtbl_getval>
e630a894:	e380053a 	orr	r0, r0, #243269632	; 0xe800000
e630a898:	e3800701 	orr	r0, r0, #262144	; 0x40000
e630a89c:	e3800c0e 	orr	r0, r0, #3584	; 0xe00
e630a8a0:	ebfff066 	bl	e6306a40 <send_dbcmd>
e630a8a4:	e1a00007 	mov	r0, r7
e630a8a8:	ebfff064 	bl	e6306a40 <send_dbcmd>
e630a8ac:	e51f073c 	ldr	r0, [pc, #-1852]	; e630a178 <InitDram+0xe54>
e630a8b0:	ebfff062 	bl	e6306a40 <send_dbcmd>
e630a8b4:	e51f0740 	ldr	r0, [pc, #-1856]	; e630a17c <InitDram+0xe58>
e630a8b8:	ebfff060 	bl	e6306a40 <send_dbcmd>
e630a8bc:	e3540000 	cmp	r4, #0
e630a8c0:	1a0000b6 	bne	e630aba0 <InitDram+0x187c>
e630a8c4:	e51f074c 	ldr	r0, [pc, #-1868]	; e630a180 <InitDram+0xe5c>
e630a8c8:	e3a07001 	mov	r7, #1
e630a8cc:	ebfff05b 	bl	e6306a40 <send_dbcmd>
e630a8d0:	e51f2754 	ldr	r2, [pc, #-1876]	; e630a184 <InitDram+0xe60>
e630a8d4:	e51f5738 	ldr	r5, [pc, #-1848]	; e630a1a4 <InitDram+0xe80>
e630a8d8:	e3a00001 	mov	r0, #1
e630a8dc:	e5923020 	ldr	r3, [r2, #32]
e630a8e0:	e3c33041 	bic	r3, r3, #65	; 0x41
e630a8e4:	e3833001 	orr	r3, r3, #1
e630a8e8:	e5823020 	str	r3, [r2, #32]
e630a8ec:	ebfff51a 	bl	e6307d5c <change_lpddr4_en>
e630a8f0:	e1a00004 	mov	r0, r4
e630a8f4:	ebffef88 	bl	e630671c <vch_nxt>
e630a8f8:	e1a04000 	mov	r4, r0
e630a8fc:	e3540003 	cmp	r4, #3
e630a900:	9a0000a8 	bls	e630aba8 <InitDram+0x1884>
e630a904:	e3000135 	movw	r0, #309	; 0x135
e630a908:	e3a04001 	mov	r4, #1
e630a90c:	ebfff052 	bl	e6306a5c <ddr_regdef_adr>
e630a910:	e51f3790 	ldr	r3, [pc, #-1936]	; e630a188 <InitDram+0xe64>
e630a914:	e5933000 	ldr	r3, [r3]
e630a918:	e5d314d7 	ldrb	r1, [r3, #1239]	; 0x4d7
e630a91c:	e1a01114 	lsl	r1, r4, r1
e630a920:	ebfff1d6 	bl	e6307080 <reg_ddrphy_write_a>
e630a924:	e3a01000 	mov	r1, #0
e630a928:	e3a00017 	mov	r0, #23
e630a92c:	ebfff17c 	bl	e6306f24 <ddr_setval_ach_as>
e630a930:	e5963000 	ldr	r3, [r6]
e630a934:	e3530c4f 	cmp	r3, #20224	; 0x4f00
e630a938:	1a0000a8 	bne	e630abe0 <InitDram+0x18bc>
e630a93c:	e59d300c 	ldr	r3, [sp, #12]
e630a940:	e5933000 	ldr	r3, [r3]
e630a944:	e1530004 	cmp	r3, r4
e630a948:	8a0000a4 	bhi	e630abe0 <InitDram+0x18bc>
e630a94c:	e1a01004 	mov	r1, r4
e630a950:	e3a000cc 	mov	r0, #204	; 0xcc
e630a954:	ebfff172 	bl	e6306f24 <ddr_setval_ach_as>
e630a958:	e30001de 	movw	r0, #478	; 0x1de
e630a95c:	e3a01001 	mov	r1, #1
e630a960:	ebfff163 	bl	e6306ef4 <ddr_setval_ach>
e630a964:	e3a00000 	mov	r0, #0
e630a968:	ebffef6b 	bl	e630671c <vch_nxt>
e630a96c:	e1a04000 	mov	r4, r0
e630a970:	e3500003 	cmp	r0, #3
e630a974:	9a0000ae 	bls	e630ac34 <InitDram+0x1910>
e630a978:	e51f87f4 	ldr	r8, [pc, #-2036]	; e630a18c <InitDram+0xe68>
e630a97c:	e3a03001 	mov	r3, #1
e630a980:	e5883520 	str	r3, [r8, #1312]	; 0x520
e630a984:	f57ff04f 	dsb	sy
e630a988:	e3a03000 	mov	r3, #0
e630a98c:	e3a05801 	mov	r5, #65536	; 0x10000
e630a990:	e51f9808 	ldr	r9, [pc, #-2056]	; e630a190 <InitDram+0xe6c>
e630a994:	e1a07003 	mov	r7, r3
e630a998:	e58d3000 	str	r3, [sp]
e630a99c:	e5962000 	ldr	r2, [r6]
e630a9a0:	e5983630 	ldr	r3, [r8, #1584]	; 0x630
e630a9a4:	e3520c4f 	cmp	r2, #20224	; 0x4f00
e630a9a8:	e2033001 	and	r3, r3, #1
e630a9ac:	1a0000a5 	bne	e630ac48 <InitDram+0x1924>
e630a9b0:	e59d200c 	ldr	r2, [sp, #12]
e630a9b4:	e5922000 	ldr	r2, [r2]
e630a9b8:	e3520001 	cmp	r2, #1
e630a9bc:	8a0000a1 	bhi	e630ac48 <InitDram+0x1924>
e630a9c0:	e7eb3055 	ubfx	r3, r5, #0, #12
e630a9c4:	e3530001 	cmp	r3, #1
e630a9c8:	1a0000a0 	bne	e630ac50 <InitDram+0x192c>
e630a9cc:	e3a00001 	mov	r0, #1
e630a9d0:	e3570000 	cmp	r7, #0
e630a9d4:	0a0000ae 	beq	e630ac94 <InitDram+0x1970>
e630a9d8:	ebfff052 	bl	e6306b28 <wait_freqchgreq>
e630a9dc:	e2507000 	subs	r7, r0, #0
e630a9e0:	1a000002 	bne	e630a9f0 <InitDram+0x16cc>
e630a9e4:	ebfff1fa 	bl	e63071d4 <pll3_freq.part.5>
e630a9e8:	e3500000 	cmp	r0, #0
e630a9ec:	0a0000a5 	beq	e630ac88 <InitDram+0x1964>
e630a9f0:	e3a00000 	mov	r0, #0
e630a9f4:	ebffef48 	bl	e630671c <vch_nxt>
e630a9f8:	e1a04000 	mov	r4, r0
e630a9fc:	e3500003 	cmp	r0, #3
e630aa00:	9a0000b8 	bls	e630ace8 <InitDram+0x19c4>
e630aa04:	ebfff6b3 	bl	e63084d8 <ddrphy_regif_chk>
e630aa08:	e59d3000 	ldr	r3, [sp]
e630aa0c:	e3500000 	cmp	r0, #0
e630aa10:	13a030fd 	movne	r3, #253	; 0xfd
e630aa14:	e58d3000 	str	r3, [sp]
e630aa18:	e51f3890 	ldr	r3, [pc, #-2192]	; e630a190 <InitDram+0xe6c>
e630aa1c:	e59d2000 	ldr	r2, [sp]
e630aa20:	e5933000 	ldr	r3, [r3]
e630aa24:	e1d33002 	bics	r3, r3, r2
e630aa28:	11a03002 	movne	r3, r2
e630aa2c:	11e03e03 	mvnne	r3, r3, lsl #28
e630aa30:	11e03e23 	mvnne	r3, r3, lsr #28
e630aa34:	1afffe94 	bne	e630a48c <InitDram+0x1168>
e630aa38:	e51fa8ac 	ldr	sl, [pc, #-2220]	; e630a194 <InitDram+0xe70>
e630aa3c:	e3a00000 	mov	r0, #0
e630aa40:	ebffef35 	bl	e630671c <vch_nxt>
e630aa44:	e51f38b4 	ldr	r3, [pc, #-2228]	; e630a198 <InitDram+0xe74>
e630aa48:	e51fb8b4 	ldr	fp, [pc, #-2228]	; e630a19c <InitDram+0xe78>
e630aa4c:	e5933000 	ldr	r3, [r3]
e630aa50:	e58d3008 	str	r3, [sp, #8]
e630aa54:	e1a05000 	mov	r5, r0
e630aa58:	e1d300f4 	ldrsh	r0, [r3, #4]
e630aa5c:	ebfff020 	bl	e6306ae4 <_f_scale_adj>
e630aa60:	e59d3008 	ldr	r3, [sp, #8]
e630aa64:	e1d370b2 	ldrh	r7, [r3, #2]
e630aa68:	e0877000 	add	r7, r7, r0
e630aa6c:	e3550003 	cmp	r5, #3
e630aa70:	9a0000a9 	bls	e630ad1c <InitDram+0x19f8>
e630aa74:	ebfff122 	bl	e6306f04 <update_dly>
e630aa78:	e51f38e0 	ldr	r3, [pc, #-2272]	; e630a1a0 <InitDram+0xe7c>
e630aa7c:	e593b000 	ldr	fp, [r3]
e630aa80:	e35b0c4f 	cmp	fp, #20224	; 0x4f00
e630aa84:	1a000004 	bne	e630aa9c <InitDram+0x1778>
e630aa88:	e59d300c 	ldr	r3, [sp, #12]
e630aa8c:	e5933000 	ldr	r3, [r3]
e630aa90:	e3530001 	cmp	r3, #1
e630aa94:	93a00000 	movls	r0, #0
e630aa98:	9a0000f1 	bls	e630ae64 <InitDram+0x1b40>
e630aa9c:	e51f08f0 	ldr	r0, [pc, #-2288]	; e630a1b4 <InitDram+0xe90>
e630aaa0:	e3a010bc 	mov	r1, #188	; 0xbc
e630aaa4:	ebfff201 	bl	e63072b0 <ddrtbl_getval>
e630aaa8:	e3500000 	cmp	r0, #0
e630aaac:	1a0000f1 	bne	e630ae78 <InitDram+0x1b54>
e630aab0:	e51f0904 	ldr	r0, [pc, #-2308]	; e630a1b4 <InitDram+0xe90>
e630aab4:	e3a010d0 	mov	r1, #208	; 0xd0
e630aab8:	ebfff1fc 	bl	e63072b0 <ddrtbl_getval>
e630aabc:	e3500000 	cmp	r0, #0
e630aac0:	1a000002 	bne	e630aad0 <InitDram+0x17ac>
e630aac4:	e3a01001 	mov	r1, #1
e630aac8:	e3a000d0 	mov	r0, #208	; 0xd0
e630aacc:	ebfff114 	bl	e6306f24 <ddr_setval_ach_as>
e630aad0:	e51f0924 	ldr	r0, [pc, #-2340]	; e630a1b4 <InitDram+0xe90>
e630aad4:	e3a01010 	mov	r1, #16
e630aad8:	ebfff1f4 	bl	e63072b0 <ddrtbl_getval>
e630aadc:	e51fa940 	ldr	sl, [pc, #-2368]	; e630a1a4 <InitDram+0xe80>
e630aae0:	e3801004 	orr	r1, r0, #4
e630aae4:	e3a00010 	mov	r0, #16
e630aae8:	ebfff10d 	bl	e6306f24 <ddr_setval_ach_as>
e630aaec:	e51f0940 	ldr	r0, [pc, #-2368]	; e630a1b4 <InitDram+0xe90>
e630aaf0:	e3a01012 	mov	r1, #18
e630aaf4:	ebfff1ed 	bl	e63072b0 <ddrtbl_getval>
e630aaf8:	e3801004 	orr	r1, r0, #4
e630aafc:	e3a00012 	mov	r0, #18
e630ab00:	ebfff107 	bl	e6306f24 <ddr_setval_ach_as>
e630ab04:	e51f0958 	ldr	r0, [pc, #-2392]	; e630a1b4 <InitDram+0xe90>
e630ab08:	e3a01011 	mov	r1, #17
e630ab0c:	ebfff1e7 	bl	e63072b0 <ddrtbl_getval>
e630ab10:	e3c0160f 	bic	r1, r0, #15728640	; 0xf00000
e630ab14:	e3a00011 	mov	r0, #17
e630ab18:	ebfff101 	bl	e6306f24 <ddr_setval_ach_as>
e630ab1c:	e51f0970 	ldr	r0, [pc, #-2416]	; e630a1b4 <InitDram+0xe90>
e630ab20:	e3a01013 	mov	r1, #19
e630ab24:	ebfff1e1 	bl	e63072b0 <ddrtbl_getval>
e630ab28:	e3c0160f 	bic	r1, r0, #15728640	; 0xf00000
e630ab2c:	e3a00013 	mov	r0, #19
e630ab30:	ebfff0fb 	bl	e6306f24 <ddr_setval_ach_as>
e630ab34:	e300229b 	movw	r2, #667	; 0x29b
e630ab38:	e300129d 	movw	r1, #669	; 0x29d
e630ab3c:	e59d0004 	ldr	r0, [sp, #4]
e630ab40:	ebfff4a5 	bl	e6307ddc <swlvl1>
e630ab44:	e2503000 	subs	r3, r0, #0
e630ab48:	e58d301c 	str	r3, [sp, #28]
e630ab4c:	1a00011b 	bne	e630afc0 <InitDram+0x1c9c>
e630ab50:	ebffeef1 	bl	e630671c <vch_nxt>
e630ab54:	e59d2004 	ldr	r2, [sp, #4]
e630ab58:	e3a03e12 	mov	r3, #288	; 0x120
e630ab5c:	e0030293 	mul	r3, r3, r2
e630ab60:	e58d3034 	str	r3, [sp, #52]	; 0x34
e630ab64:	e3823001 	orr	r3, r2, #1
e630ab68:	e3a02048 	mov	r2, #72	; 0x48
e630ab6c:	e0030392 	mul	r3, r2, r3
e630ab70:	e58d3030 	str	r3, [sp, #48]	; 0x30
e630ab74:	e1a04000 	mov	r4, r0
e630ab78:	e3540003 	cmp	r4, #3
e630ab7c:	9a0000e5 	bls	e630af18 <InitDram+0x1bf4>
e630ab80:	ebfff06b 	bl	e6306d34 <ddrphy_regif_idle>
e630ab84:	e59d3004 	ldr	r3, [sp, #4]
e630ab88:	e28aa004 	add	sl, sl, #4
e630ab8c:	e2833001 	add	r3, r3, #1
e630ab90:	e3530004 	cmp	r3, #4
e630ab94:	e58d3004 	str	r3, [sp, #4]
e630ab98:	1affffe5 	bne	e630ab34 <InitDram+0x1810>
e630ab9c:	ea000107 	b	e630afc0 <InitDram+0x1c9c>
e630aba0:	e3a04000 	mov	r4, #0
e630aba4:	eaffff09 	b	e630a7d0 <InitDram+0x14ac>
e630aba8:	e300121e 	movw	r1, #542	; 0x21e
e630abac:	e1a00004 	mov	r0, r4
e630abb0:	ebfff466 	bl	e6307d50 <ddr_getval>
e630abb4:	e5953004 	ldr	r3, [r5, #4]
e630abb8:	e300121e 	movw	r1, #542	; 0x21e
e630abbc:	e0133417 	ands	r3, r3, r7, lsl r4
e630abc0:	e1a02000 	mov	r2, r0
e630abc4:	02002005 	andeq	r2, r0, #5
e630abc8:	e1a00004 	mov	r0, r4
e630abcc:	ebfff0b4 	bl	e6306ea4 <ddr_setval>
e630abd0:	e2840001 	add	r0, r4, #1
e630abd4:	ebffeed0 	bl	e630671c <vch_nxt>
e630abd8:	e1a04000 	mov	r4, r0
e630abdc:	eaffff46 	b	e630a8fc <InitDram+0x15d8>
e630abe0:	e51f7a44 	ldr	r7, [pc, #-2628]	; e630a1a4 <InitDram+0xe80>
e630abe4:	e3a00000 	mov	r0, #0
e630abe8:	ebffeecb 	bl	e630671c <vch_nxt>
e630abec:	e1a04000 	mov	r4, r0
e630abf0:	e3540003 	cmp	r4, #3
e630abf4:	8affff57 	bhi	e630a958 <InitDram+0x1634>
e630abf8:	e3a05000 	mov	r5, #0
e630abfc:	e5973004 	ldr	r3, [r7, #4]
e630ac00:	e1a01005 	mov	r1, r5
e630ac04:	e3a020cc 	mov	r2, #204	; 0xcc
e630ac08:	e1a00004 	mov	r0, r4
e630ac0c:	e2855001 	add	r5, r5, #1
e630ac10:	e1a03433 	lsr	r3, r3, r4
e630ac14:	e2033001 	and	r3, r3, #1
e630ac18:	ebfff089 	bl	e6306e44 <ddr_setval_s>
e630ac1c:	e3550004 	cmp	r5, #4
e630ac20:	1afffff5 	bne	e630abfc <InitDram+0x18d8>
e630ac24:	e2840001 	add	r0, r4, #1
e630ac28:	ebffeebb 	bl	e630671c <vch_nxt>
e630ac2c:	e1a04000 	mov	r4, r0
e630ac30:	eaffffee 	b	e630abf0 <InitDram+0x18cc>
e630ac34:	e3a01fff 	mov	r1, #1020	; 0x3fc
e630ac38:	e1a00004 	mov	r0, r4
e630ac3c:	ebfff443 	bl	e6307d50 <ddr_getval>
e630ac40:	e2840001 	add	r0, r4, #1
e630ac44:	eaffff47 	b	e630a968 <InitDram+0x1644>
e630ac48:	e3530000 	cmp	r3, #0
e630ac4c:	1affff5e 	bne	e630a9cc <InitDram+0x16a8>
e630ac50:	e3570000 	cmp	r7, #0
e630ac54:	0a00000b 	beq	e630ac88 <InitDram+0x1964>
e630ac58:	e3a00000 	mov	r0, #0
e630ac5c:	e3a0a001 	mov	sl, #1
e630ac60:	ebffeead 	bl	e630671c <vch_nxt>
e630ac64:	e59d4000 	ldr	r4, [sp]
e630ac68:	e1a0b000 	mov	fp, r0
e630ac6c:	e35b0003 	cmp	fp, #3
e630ac70:	9a00000e 	bls	e630acb0 <InitDram+0x198c>
e630ac74:	e5993000 	ldr	r3, [r9]
e630ac78:	e58d3000 	str	r3, [sp]
e630ac7c:	e1540003 	cmp	r4, r3
e630ac80:	0affff5a 	beq	e630a9f0 <InitDram+0x16cc>
e630ac84:	e58d4000 	str	r4, [sp]
e630ac88:	e2555001 	subs	r5, r5, #1
e630ac8c:	1affff42 	bne	e630a99c <InitDram+0x1678>
e630ac90:	eaffff56 	b	e630a9f0 <InitDram+0x16cc>
e630ac94:	ebffefa3 	bl	e6306b28 <wait_freqchgreq>
e630ac98:	e3500000 	cmp	r0, #0
e630ac9c:	1affff53 	bne	e630a9f0 <InitDram+0x16cc>
e630aca0:	e3a00001 	mov	r0, #1
e630aca4:	e3a07001 	mov	r7, #1
e630aca8:	ebfff149 	bl	e63071d4 <pll3_freq.part.5>
e630acac:	eaffff4d 	b	e630a9e8 <InitDram+0x16c4>
e630acb0:	e1a03b1a 	lsl	r3, sl, fp
e630acb4:	e1130004 	tst	r3, r4
e630acb8:	e58d3000 	str	r3, [sp]
e630acbc:	1a000005 	bne	e630acd8 <InitDram+0x19b4>
e630acc0:	e3a01fff 	mov	r1, #1020	; 0x3fc
e630acc4:	e1a0000b 	mov	r0, fp
e630acc8:	ebfff420 	bl	e6307d50 <ddr_getval>
e630accc:	e3100001 	tst	r0, #1
e630acd0:	159d3000 	ldrne	r3, [sp]
e630acd4:	11844003 	orrne	r4, r4, r3
e630acd8:	e28b0001 	add	r0, fp, #1
e630acdc:	ebffee8e 	bl	e630671c <vch_nxt>
e630ace0:	e1a0b000 	mov	fp, r0
e630ace4:	eaffffe0 	b	e630ac6c <InitDram+0x1948>
e630ace8:	e30021af 	movw	r2, #431	; 0x1af
e630acec:	e3a01000 	mov	r1, #0
e630acf0:	e1a00004 	mov	r0, r4
e630acf4:	ebfff406 	bl	e6307d14 <ddr_getval_s>
e630acf8:	e3a01fff 	mov	r1, #1020	; 0x3fc
e630acfc:	e1a00004 	mov	r0, r4
e630ad00:	ebfff412 	bl	e6307d50 <ddr_getval>
e630ad04:	e30013fd 	movw	r1, #1021	; 0x3fd
e630ad08:	e1a02000 	mov	r2, r0
e630ad0c:	e1a00004 	mov	r0, r4
e630ad10:	ebfff063 	bl	e6306ea4 <ddr_setval>
e630ad14:	e2840001 	add	r0, r4, #1
e630ad18:	eaffff35 	b	e630a9f4 <InitDram+0x16d0>
e630ad1c:	e51f6b7c 	ldr	r6, [pc, #-2940]	; e630a1a8 <InitDram+0xe84>
e630ad20:	e3a030a0 	mov	r3, #160	; 0xa0
e630ad24:	e1a09006 	mov	r9, r6
e630ad28:	e0040593 	mul	r4, r3, r5
e630ad2c:	e59d3008 	ldr	r3, [sp, #8]
e630ad30:	e2848058 	add	r8, r4, #88	; 0x58
e630ad34:	e0838008 	add	r8, r3, r8
e630ad38:	e0d800d1 	ldrsb	r0, [r8], #1
e630ad3c:	ebffef68 	bl	e6306ae4 <_f_scale_adj>
e630ad40:	e4991004 	ldr	r1, [r9], #4
e630ad44:	e0802007 	add	r2, r0, r7
e630ad48:	e1a00005 	mov	r0, r5
e630ad4c:	ebfff054 	bl	e6306ea4 <ddr_setval>
e630ad50:	e51f3bac 	ldr	r3, [pc, #-2988]	; e630a1ac <InitDram+0xe88>
e630ad54:	e1590003 	cmp	r9, r3
e630ad58:	1afffff6 	bne	e630ad38 <InitDram+0x1a14>
e630ad5c:	e59a3000 	ldr	r3, [sl]
e630ad60:	e3530001 	cmp	r3, #1
e630ad64:	0a000003 	beq	e630ad78 <InitDram+0x1a54>
e630ad68:	e2850001 	add	r0, r5, #1
e630ad6c:	ebffee6a 	bl	e630671c <vch_nxt>
e630ad70:	e1a05000 	mov	r5, r0
e630ad74:	eaffff3c 	b	e630aa6c <InitDram+0x1748>
e630ad78:	e59d3008 	ldr	r3, [sp, #8]
e630ad7c:	e2844062 	add	r4, r4, #98	; 0x62
e630ad80:	e0834004 	add	r4, r3, r4
e630ad84:	e0d400d1 	ldrsb	r0, [r4], #1
e630ad88:	ebffef55 	bl	e6306ae4 <_f_scale_adj>
e630ad8c:	e4962004 	ldr	r2, [r6], #4
e630ad90:	e3a01002 	mov	r1, #2
e630ad94:	e0803007 	add	r3, r0, r7
e630ad98:	e1a00005 	mov	r0, r5
e630ad9c:	ebfff028 	bl	e6306e44 <ddr_setval_s>
e630ada0:	e156000b 	cmp	r6, fp
e630ada4:	1afffff6 	bne	e630ad84 <InitDram+0x1a60>
e630ada8:	eaffffee 	b	e630ad68 <InitDram+0x1a44>
e630adac:	e3a04000 	mov	r4, #0
e630adb0:	e28d7060 	add	r7, sp, #96	; 0x60
e630adb4:	e1a08007 	mov	r8, r7
e630adb8:	e1a06004 	mov	r6, r4
e630adbc:	e3a03000 	mov	r3, #0
e630adc0:	e1a01006 	mov	r1, r6
e630adc4:	e3a02018 	mov	r2, #24
e630adc8:	e1a00005 	mov	r0, r5
e630adcc:	ebfff01c 	bl	e6306e44 <ddr_setval_s>
e630add0:	e1a01006 	mov	r1, r6
e630add4:	e3a020ba 	mov	r2, #186	; 0xba
e630add8:	e1a00005 	mov	r0, r5
e630addc:	ebfff3cc 	bl	e6307d14 <ddr_getval_s>
e630ade0:	e1a01006 	mov	r1, r6
e630ade4:	e3a020bb 	mov	r2, #187	; 0xbb
e630ade8:	e2866001 	add	r6, r6, #1
e630adec:	e1a09000 	mov	r9, r0
e630adf0:	e1a00005 	mov	r0, r5
e630adf4:	ebfff3c6 	bl	e6307d14 <ddr_getval_s>
e630adf8:	e1a09429 	lsr	r9, r9, #8
e630adfc:	e0890080 	add	r0, r9, r0, lsl #1
e630ae00:	e1540000 	cmp	r4, r0
e630ae04:	e4880004 	str	r0, [r8], #4
e630ae08:	31a04000 	movcc	r4, r0
e630ae0c:	e3560004 	cmp	r6, #4
e630ae10:	1affffe9 	bne	e630adbc <InitDram+0x1a98>
e630ae14:	e3a06000 	mov	r6, #0
e630ae18:	e2844001 	add	r4, r4, #1
e630ae1c:	e3c44001 	bic	r4, r4, #1
e630ae20:	e4973004 	ldr	r3, [r7], #4
e630ae24:	e0443003 	sub	r3, r4, r3
e630ae28:	e1b030a3 	lsrs	r3, r3, #1
e630ae2c:	0a000008 	beq	e630ae54 <InitDram+0x1b30>
e630ae30:	e3a020d9 	mov	r2, #217	; 0xd9
e630ae34:	e1a01006 	mov	r1, r6
e630ae38:	e1a00005 	mov	r0, r5
e630ae3c:	ebfff3b4 	bl	e6307d14 <ddr_getval_s>
e630ae40:	e3a020d9 	mov	r2, #217	; 0xd9
e630ae44:	e1a01006 	mov	r1, r6
e630ae48:	e2803001 	add	r3, r0, #1
e630ae4c:	e1a00005 	mov	r0, r5
e630ae50:	ebffeffb 	bl	e6306e44 <ddr_setval_s>
e630ae54:	e2866001 	add	r6, r6, #1
e630ae58:	e3560004 	cmp	r6, #4
e630ae5c:	1affffef 	bne	e630ae20 <InitDram+0x1afc>
e630ae60:	e2850001 	add	r0, r5, #1
e630ae64:	ebffee2c 	bl	e630671c <vch_nxt>
e630ae68:	e1a05000 	mov	r5, r0
e630ae6c:	e3500003 	cmp	r0, #3
e630ae70:	9affffcd 	bls	e630adac <InitDram+0x1a88>
e630ae74:	eaffff08 	b	e630aa9c <InitDram+0x1778>
e630ae78:	e3a00000 	mov	r0, #0
e630ae7c:	ebffee26 	bl	e630671c <vch_nxt>
e630ae80:	e1a04000 	mov	r4, r0
e630ae84:	e3500003 	cmp	r0, #3
e630ae88:	8affff08 	bhi	e630aab0 <InitDram+0x178c>
e630ae8c:	e3a05000 	mov	r5, #0
e630ae90:	e3a06000 	mov	r6, #0
e630ae94:	ea000000 	b	e630ae9c <InitDram+0x1b78>
e630ae98:	e3a06001 	mov	r6, #1
e630ae9c:	e1a03006 	mov	r3, r6
e630aea0:	e3a02018 	mov	r2, #24
e630aea4:	e1a01005 	mov	r1, r5
e630aea8:	e1a00004 	mov	r0, r4
e630aeac:	ebffefe4 	bl	e6306e44 <ddr_setval_s>
e630aeb0:	e3a02018 	mov	r2, #24
e630aeb4:	e1a01005 	mov	r1, r5
e630aeb8:	e1a00004 	mov	r0, r4
e630aebc:	ebfff394 	bl	e6307d14 <ddr_getval_s>
e630aec0:	e3a0209d 	mov	r2, #157	; 0x9d
e630aec4:	e1a01005 	mov	r1, r5
e630aec8:	e1a00004 	mov	r0, r4
e630aecc:	ebfff390 	bl	e6307d14 <ddr_getval_s>
e630aed0:	e3500d06 	cmp	r0, #384	; 0x180
e630aed4:	9a000008 	bls	e630aefc <InitDram+0x1bd8>
e630aed8:	e3a020bc 	mov	r2, #188	; 0xbc
e630aedc:	e1a01005 	mov	r1, r5
e630aee0:	e1a00004 	mov	r0, r4
e630aee4:	ebfff38a 	bl	e6307d14 <ddr_getval_s>
e630aee8:	e3a020bc 	mov	r2, #188	; 0xbc
e630aeec:	e1a01005 	mov	r1, r5
e630aef0:	e2403001 	sub	r3, r0, #1
e630aef4:	e1a00004 	mov	r0, r4
e630aef8:	ebffefd1 	bl	e6306e44 <ddr_setval_s>
e630aefc:	e3560001 	cmp	r6, #1
e630af00:	1affffe4 	bne	e630ae98 <InitDram+0x1b74>
e630af04:	e2855001 	add	r5, r5, #1
e630af08:	e3550004 	cmp	r5, #4
e630af0c:	1affffdf 	bne	e630ae90 <InitDram+0x1b6c>
e630af10:	e2840001 	add	r0, r4, #1
e630af14:	eaffffd8 	b	e630ae7c <InitDram+0x1b58>
e630af18:	e59a3000 	ldr	r3, [sl]
e630af1c:	e3a06001 	mov	r6, #1
e630af20:	e1a06416 	lsl	r6, r6, r4
e630af24:	e1160003 	tst	r6, r3
e630af28:	1a000019 	bne	e630af94 <InitDram+0x1c70>
e630af2c:	e35b0c4f 	cmp	fp, #20224	; 0x4f00
e630af30:	1a00004b 	bne	e630b064 <InitDram+0x1d40>
e630af34:	e51f3d84 	ldr	r3, [pc, #-3460]	; e630a1b8 <InitDram+0xe94>
e630af38:	e5933000 	ldr	r3, [r3]
e630af3c:	e3530001 	cmp	r3, #1
e630af40:	8a00004d 	bhi	e630b07c <InitDram+0x1d58>
e630af44:	e3a030a0 	mov	r3, #160	; 0xa0
e630af48:	e3a08004 	mov	r8, #4
e630af4c:	e59d1008 	ldr	r1, [sp, #8]
e630af50:	e0030493 	mul	r3, r3, r4
e630af54:	e283208c 	add	r2, r3, #140	; 0x8c
e630af58:	e0812002 	add	r2, r1, r2
e630af5c:	e2833090 	add	r3, r3, #144	; 0x90
e630af60:	e58d2014 	str	r2, [sp, #20]
e630af64:	e0813003 	add	r3, r1, r3
e630af68:	e59d2034 	ldr	r2, [sp, #52]	; 0x34
e630af6c:	e58d3010 	str	r3, [sp, #16]
e630af70:	e3a03d12 	mov	r3, #1152	; 0x480
e630af74:	e0232493 	mla	r3, r3, r4, r2
e630af78:	e51f2dc4 	ldr	r2, [pc, #-3524]	; e630a1bc <InitDram+0xe98>
e630af7c:	e0833002 	add	r3, r3, r2
e630af80:	e58d300c 	str	r3, [sp, #12]
e630af84:	e3a03e12 	mov	r3, #288	; 0x120
e630af88:	e0030493 	mul	r3, r3, r4
e630af8c:	e58d302c 	str	r3, [sp, #44]	; 0x2c
e630af90:	ea000083 	b	e630b1a4 <InitDram+0x1e80>
e630af94:	e3a05000 	mov	r5, #0
e630af98:	e3a0207a 	mov	r2, #122	; 0x7a
e630af9c:	e1a01005 	mov	r1, r5
e630afa0:	e1a00004 	mov	r0, r4
e630afa4:	ebfff35a 	bl	e6307d14 <ddr_getval_s>
e630afa8:	e51f3e00 	ldr	r3, [pc, #-3584]	; e630a1b0 <InitDram+0xe8c>
e630afac:	e1500003 	cmp	r0, r3
e630afb0:	0a000027 	beq	e630b054 <InitDram+0x1d30>
e630afb4:	e3a03010 	mov	r3, #16
e630afb8:	e1863513 	orr	r3, r6, r3, lsl r5
e630afbc:	e58d301c 	str	r3, [sp, #28]
e630afc0:	ebffef5b 	bl	e6306d34 <ddrphy_regif_idle>
e630afc4:	e51f0e18 	ldr	r0, [pc, #-3608]	; e630a1b4 <InitDram+0xe90>
e630afc8:	e3a01010 	mov	r1, #16
e630afcc:	ebfff0b7 	bl	e63072b0 <ddrtbl_getval>
e630afd0:	e1a01000 	mov	r1, r0
e630afd4:	e3a00010 	mov	r0, #16
e630afd8:	ebffefd1 	bl	e6306f24 <ddr_setval_ach_as>
e630afdc:	e51f0e30 	ldr	r0, [pc, #-3632]	; e630a1b4 <InitDram+0xe90>
e630afe0:	e3a01012 	mov	r1, #18
e630afe4:	ebfff0b1 	bl	e63072b0 <ddrtbl_getval>
e630afe8:	e1a01000 	mov	r1, r0
e630afec:	e3a00012 	mov	r0, #18
e630aff0:	ebffefcb 	bl	e6306f24 <ddr_setval_ach_as>
e630aff4:	e51f0e48 	ldr	r0, [pc, #-3656]	; e630a1b4 <InitDram+0xe90>
e630aff8:	e3a01011 	mov	r1, #17
e630affc:	ebfff0ab 	bl	e63072b0 <ddrtbl_getval>
e630b000:	e1a01000 	mov	r1, r0
e630b004:	e3a00011 	mov	r0, #17
e630b008:	ebffefc5 	bl	e6306f24 <ddr_setval_ach_as>
e630b00c:	e51f0e60 	ldr	r0, [pc, #-3680]	; e630a1b4 <InitDram+0xe90>
e630b010:	e3a01013 	mov	r1, #19
e630b014:	ebfff0a5 	bl	e63072b0 <ddrtbl_getval>
e630b018:	e1a01000 	mov	r1, r0
e630b01c:	e3a00013 	mov	r0, #19
e630b020:	ebffefbf 	bl	e6306f24 <ddr_setval_ach_as>
e630b024:	e51f0e78 	ldr	r0, [pc, #-3704]	; e630a1b4 <InitDram+0xe90>
e630b028:	e3a010d0 	mov	r1, #208	; 0xd0
e630b02c:	ebfff09f 	bl	e63072b0 <ddrtbl_getval>
e630b030:	e2501000 	subs	r1, r0, #0
e630b034:	1a000001 	bne	e630b040 <InitDram+0x1d1c>
e630b038:	e3a000d0 	mov	r0, #208	; 0xd0
e630b03c:	ebffefb8 	bl	e6306f24 <ddr_setval_ach_as>
e630b040:	e59d301c 	ldr	r3, [sp, #28]
e630b044:	e3530000 	cmp	r3, #0
e630b048:	0a000065 	beq	e630b1e4 <InitDram+0x1ec0>
e630b04c:	e3e0300f 	mvn	r3, #15
e630b050:	eafffd0d 	b	e630a48c <InitDram+0x1168>
e630b054:	e2855001 	add	r5, r5, #1
e630b058:	e3550004 	cmp	r5, #4
e630b05c:	1affffcd 	bne	e630af98 <InitDram+0x1c74>
e630b060:	eaffffb1 	b	e630af2c <InitDram+0x1c08>
e630b064:	e35b0c52 	cmp	fp, #20992	; 0x5200
e630b068:	1a000003 	bne	e630b07c <InitDram+0x1d58>
e630b06c:	e51f3ebc 	ldr	r3, [pc, #-3772]	; e630a1b8 <InitDram+0xe94>
e630b070:	e5933000 	ldr	r3, [r3]
e630b074:	e3530000 	cmp	r3, #0
e630b078:	0affffb1 	beq	e630af44 <InitDram+0x1c20>
e630b07c:	e2840001 	add	r0, r4, #1
e630b080:	ebffeda5 	bl	e630671c <vch_nxt>
e630b084:	e1a04000 	mov	r4, r0
e630b088:	eafffeba 	b	e630ab78 <InitDram+0x1854>
e630b08c:	e3560008 	cmp	r6, #8
e630b090:	059d3014 	ldreq	r3, [sp, #20]
e630b094:	01d300d0 	ldrsbeq	r0, [r3]
e630b098:	159d3010 	ldrne	r3, [sp, #16]
e630b09c:	119300d6 	ldrsbne	r0, [r3, r6]
e630b0a0:	ebffee8f 	bl	e6306ae4 <_f_scale_adj>
e630b0a4:	e59d3004 	ldr	r3, [sp, #4]
e630b0a8:	e3a02018 	mov	r2, #24
e630b0ac:	e1a01005 	mov	r1, r5
e630b0b0:	e1a07000 	mov	r7, r0
e630b0b4:	e1a00004 	mov	r0, r4
e630b0b8:	ebffef61 	bl	e6306e44 <ddr_setval_s>
e630b0bc:	e59d3028 	ldr	r3, [sp, #40]	; 0x28
e630b0c0:	e1a01005 	mov	r1, r5
e630b0c4:	e1a00004 	mov	r0, r4
e630b0c8:	e4932004 	ldr	r2, [r3], #4
e630b0cc:	e58d2020 	str	r2, [sp, #32]
e630b0d0:	e58d3028 	str	r3, [sp, #40]	; 0x28
e630b0d4:	ebfff30e 	bl	e6307d14 <ddr_getval_s>
e630b0d8:	e59d2020 	ldr	r2, [sp, #32]
e630b0dc:	e1a01005 	mov	r1, r5
e630b0e0:	e0809007 	add	r9, r0, r7
e630b0e4:	e1a03009 	mov	r3, r9
e630b0e8:	e1a00004 	mov	r0, r4
e630b0ec:	ebffef54 	bl	e6306e44 <ddr_setval_s>
e630b0f0:	e59d3018 	ldr	r3, [sp, #24]
e630b0f4:	e4839004 	str	r9, [r3], #4
e630b0f8:	e1a01005 	mov	r1, r5
e630b0fc:	e59d2030 	ldr	r2, [sp, #48]	; 0x30
e630b100:	e1a00004 	mov	r0, r4
e630b104:	e58d3018 	str	r3, [sp, #24]
e630b108:	e59d3038 	ldr	r3, [sp, #56]	; 0x38
e630b10c:	e0833002 	add	r3, r3, r2
e630b110:	e51f2f5c 	ldr	r2, [pc, #-3932]	; e630a1bc <InitDram+0xe98>
e630b114:	e0833006 	add	r3, r3, r6
e630b118:	e7829103 	str	r9, [r2, r3, lsl #2]
e630b11c:	e59d3024 	ldr	r3, [sp, #36]	; 0x24
e630b120:	e4939004 	ldr	r9, [r3], #4
e630b124:	e58d3024 	str	r3, [sp, #36]	; 0x24
e630b128:	e1a02009 	mov	r2, r9
e630b12c:	ebfff2f8 	bl	e6307d14 <ddr_getval_s>
e630b130:	e1a02009 	mov	r2, r9
e630b134:	e1a01005 	mov	r1, r5
e630b138:	e0877000 	add	r7, r7, r0
e630b13c:	e1a03007 	mov	r3, r7
e630b140:	e1a00004 	mov	r0, r4
e630b144:	ebffef3e 	bl	e6306e44 <ddr_setval_s>
e630b148:	e59d3018 	ldr	r3, [sp, #24]
e630b14c:	e583708c 	str	r7, [r3, #140]	; 0x8c
e630b150:	e59d1030 	ldr	r1, [sp, #48]	; 0x30
e630b154:	e59d303c 	ldr	r3, [sp, #60]	; 0x3c
e630b158:	e51f2fa4 	ldr	r2, [pc, #-4004]	; e630a1bc <InitDram+0xe98>
e630b15c:	e0833001 	add	r3, r3, r1
e630b160:	e0833006 	add	r3, r3, r6
e630b164:	e2866001 	add	r6, r6, #1
e630b168:	e7827103 	str	r7, [r2, r3, lsl #2]
e630b16c:	e3560009 	cmp	r6, #9
e630b170:	1affffc5 	bne	e630b08c <InitDram+0x1d68>
e630b174:	e59d3014 	ldr	r3, [sp, #20]
e630b178:	e2888001 	add	r8, r8, #1
e630b17c:	e3580008 	cmp	r8, #8
e630b180:	e2833001 	add	r3, r3, #1
e630b184:	e58d3014 	str	r3, [sp, #20]
e630b188:	e59d3010 	ldr	r3, [sp, #16]
e630b18c:	e2833008 	add	r3, r3, #8
e630b190:	e58d3010 	str	r3, [sp, #16]
e630b194:	e59d300c 	ldr	r3, [sp, #12]
e630b198:	e2833024 	add	r3, r3, #36	; 0x24
e630b19c:	e58d300c 	str	r3, [sp, #12]
e630b1a0:	0affffb5 	beq	e630b07c <InitDram+0x1d58>
e630b1a4:	e51f3fec 	ldr	r3, [pc, #-4076]	; e630a1c0 <InitDram+0xe9c>
e630b1a8:	e2485004 	sub	r5, r8, #4
e630b1ac:	e58d3028 	str	r3, [sp, #40]	; 0x28
e630b1b0:	e3a06000 	mov	r6, #0
e630b1b4:	e51f3ff8 	ldr	r3, [pc, #-4088]	; e630a1c4 <InitDram+0xea0>
e630b1b8:	e59d202c 	ldr	r2, [sp, #44]	; 0x2c
e630b1bc:	e58d3024 	str	r3, [sp, #36]	; 0x24
e630b1c0:	e59d300c 	ldr	r3, [sp, #12]
e630b1c4:	e58d3018 	str	r3, [sp, #24]
e630b1c8:	e0853185 	add	r3, r5, r5, lsl #3
e630b1cc:	e0833002 	add	r3, r3, r2
e630b1d0:	e58d3038 	str	r3, [sp, #56]	; 0x38
e630b1d4:	e0883188 	add	r3, r8, r8, lsl #3
e630b1d8:	e0833002 	add	r3, r3, r2
e630b1dc:	e58d303c 	str	r3, [sp, #60]	; 0x3c
e630b1e0:	eaffffa9 	b	e630b08c <InitDram+0x1d68>
e630b1e4:	ebffef46 	bl	e6306f04 <update_dly>
e630b1e8:	e59f2a20 	ldr	r2, [pc, #2592]	; e630bc10 <InitDram+0x28ec>
e630b1ec:	e59f3a20 	ldr	r3, [pc, #2592]	; e630bc14 <InitDram+0x28f0>
e630b1f0:	e5d31000 	ldrb	r1, [r3]
e630b1f4:	e59f3a1c 	ldr	r3, [pc, #2588]	; e630bc18 <InitDram+0x28f4>
e630b1f8:	e1d331b8 	ldrh	r3, [r3, #24]
e630b1fc:	e3000343 	movw	r0, #835	; 0x343
e630b200:	e0811003 	add	r1, r1, r3
e630b204:	e59f3a10 	ldr	r3, [pc, #2576]	; e630bc1c <InitDram+0x28f8>
e630b208:	e5d33000 	ldrb	r3, [r3]
e630b20c:	e59f49fc 	ldr	r4, [pc, #2556]	; e630bc10 <InitDram+0x28ec>
e630b210:	e0411003 	sub	r1, r1, r3
e630b214:	e592332c 	ldr	r3, [r2, #812]	; 0x32c
e630b218:	e2811020 	add	r1, r1, #32
e630b21c:	e6ef3073 	uxtb	r3, r3
e630b220:	e1510003 	cmp	r1, r3
e630b224:	3592132c 	ldrcc	r1, [r2, #812]	; 0x32c
e630b228:	36ef1071 	uxtbcc	r1, r1
e630b22c:	ebffef30 	bl	e6306ef4 <ddr_setval_ach>
e630b230:	e35b0c4f 	cmp	fp, #20224	; 0x4f00
e630b234:	1a000008 	bne	e630b25c <InitDram+0x1f38>
e630b238:	e59f39e0 	ldr	r3, [pc, #2528]	; e630bc20 <InitDram+0x28fc>
e630b23c:	e5933000 	ldr	r3, [r3]
e630b240:	e3530001 	cmp	r3, #1
e630b244:	8a000007 	bhi	e630b268 <InitDram+0x1f44>
e630b248:	e5941330 	ldr	r1, [r4, #816]	; 0x330
e630b24c:	e3000342 	movw	r0, #834	; 0x342
e630b250:	e6ef1071 	uxtb	r1, r1
e630b254:	e281100a 	add	r1, r1, #10
e630b258:	ea00000b 	b	e630b28c <InitDram+0x1f68>
e630b25c:	e24bbc55 	sub	fp, fp, #21760	; 0x5500
e630b260:	e3db3c01 	bics	r3, fp, #256	; 0x100
e630b264:	1afffff7 	bne	e630b248 <InitDram+0x1f24>
e630b268:	e5941330 	ldr	r1, [r4, #816]	; 0x330
e630b26c:	e300033f 	movw	r0, #831	; 0x33f
e630b270:	e6ef1071 	uxtb	r1, r1
e630b274:	e281100a 	add	r1, r1, #10
e630b278:	ebffef1d 	bl	e6306ef4 <ddr_setval_ach>
e630b27c:	e5941330 	ldr	r1, [r4, #816]	; 0x330
e630b280:	e3a00d0d 	mov	r0, #832	; 0x340
e630b284:	e6ef1071 	uxtb	r1, r1
e630b288:	e281100a 	add	r1, r1, #10
e630b28c:	e59f497c 	ldr	r4, [pc, #2428]	; e630bc10 <InitDram+0x28ec>
e630b290:	ebffef17 	bl	e6306ef4 <ddr_setval_ach>
e630b294:	e300022f 	movw	r0, #559	; 0x22f
e630b298:	e3a06000 	mov	r6, #0
e630b29c:	e59f5980 	ldr	r5, [pc, #2432]	; e630bc24 <InitDram+0x2900>
e630b2a0:	e5941334 	ldr	r1, [r4, #820]	; 0x334
e630b2a4:	e59f797c 	ldr	r7, [pc, #2428]	; e630bc28 <InitDram+0x2904>
e630b2a8:	e7e81051 	ubfx	r1, r1, #0, #9
e630b2ac:	ebffef10 	bl	e6306ef4 <ddr_setval_ach>
e630b2b0:	e5941334 	ldr	r1, [r4, #820]	; 0x334
e630b2b4:	e3000231 	movw	r0, #561	; 0x231
e630b2b8:	e7e81051 	ubfx	r1, r1, #0, #9
e630b2bc:	ebffef0c 	bl	e6306ef4 <ddr_setval_ach>
e630b2c0:	e5954000 	ldr	r4, [r5]
e630b2c4:	e3540c4f 	cmp	r4, #20224	; 0x4f00
e630b2c8:	1a000015 	bne	e630b324 <InitDram+0x2000>
e630b2cc:	e59f394c 	ldr	r3, [pc, #2380]	; e630bc20 <InitDram+0x28fc>
e630b2d0:	e5933000 	ldr	r3, [r3]
e630b2d4:	e3530001 	cmp	r3, #1
e630b2d8:	8a000011 	bhi	e630b324 <InitDram+0x2000>
e630b2dc:	ebfff308 	bl	e6307f04 <wdqdm_man1>
e630b2e0:	e1a04000 	mov	r4, r0
e630b2e4:	e3540000 	cmp	r4, #0
e630b2e8:	0a000002 	beq	e630b2f8 <InitDram+0x1fd4>
e630b2ec:	e2866001 	add	r6, r6, #1
e630b2f0:	e3560010 	cmp	r6, #16
e630b2f4:	1afffff1 	bne	e630b2c0 <InitDram+0x1f9c>
e630b2f8:	e5957000 	ldr	r7, [r5]
e630b2fc:	e3570c4f 	cmp	r7, #20224	; 0x4f00
e630b300:	1a000115 	bne	e630b75c <InitDram+0x2438>
e630b304:	e59f3914 	ldr	r3, [pc, #2324]	; e630bc20 <InitDram+0x28fc>
e630b308:	e5933000 	ldr	r3, [r3]
e630b30c:	e3530001 	cmp	r3, #1
e630b310:	8a000117 	bhi	e630b774 <InitDram+0x2450>
e630b314:	e3a01001 	mov	r1, #1
e630b318:	e3a00000 	mov	r0, #0
e630b31c:	ebffef0c 	bl	e6306f54 <wdqdm_cp>
e630b320:	ea000113 	b	e630b774 <InitDram+0x2450>
e630b324:	e3a01001 	mov	r1, #1
e630b328:	e300033d 	movw	r0, #829	; 0x33d
e630b32c:	ebffeef0 	bl	e6306ef4 <ddr_setval_ach>
e630b330:	e3a00e35 	mov	r0, #848	; 0x350
e630b334:	e3a01001 	mov	r1, #1
e630b338:	e2444c55 	sub	r4, r4, #21760	; 0x5500
e630b33c:	ebffeeec 	bl	e6306ef4 <ddr_setval_ach>
e630b340:	e3a0100c 	mov	r1, #12
e630b344:	e3d43c01 	bics	r3, r4, #256	; 0x100
e630b348:	03000352 	movweq	r0, #850	; 0x352
e630b34c:	13a00fd5 	movne	r0, #852	; 0x354
e630b350:	ebffeee7 	bl	e6306ef4 <ddr_setval_ach>
e630b354:	f57ff04f 	dsb	sy
e630b358:	ebfff2e9 	bl	e6307f04 <wdqdm_man1>
e630b35c:	e3a00000 	mov	r0, #0
e630b360:	ebffeced 	bl	e630671c <vch_nxt>
e630b364:	e1a04000 	mov	r4, r0
e630b368:	e3500003 	cmp	r0, #3
e630b36c:	9a000030 	bls	e630b434 <InitDram+0x2110>
e630b370:	e5953000 	ldr	r3, [r5]
e630b374:	e3a01004 	mov	r1, #4
e630b378:	e2433c55 	sub	r3, r3, #21760	; 0x5500
e630b37c:	e3d33c01 	bics	r3, r3, #256	; 0x100
e630b380:	03000352 	movweq	r0, #850	; 0x352
e630b384:	13a00fd5 	movne	r0, #852	; 0x354
e630b388:	ebffeed9 	bl	e6306ef4 <ddr_setval_ach>
e630b38c:	e3a00000 	mov	r0, #0
e630b390:	ebffece1 	bl	e630671c <vch_nxt>
e630b394:	e1a04000 	mov	r4, r0
e630b398:	e3500003 	cmp	r0, #3
e630b39c:	9a000032 	bls	e630b46c <InitDram+0x2148>
e630b3a0:	ebfff2d7 	bl	e6307f04 <wdqdm_man1>
e630b3a4:	e3a00000 	mov	r0, #0
e630b3a8:	ebffecdb 	bl	e630671c <vch_nxt>
e630b3ac:	e1a04000 	mov	r4, r0
e630b3b0:	e3500003 	cmp	r0, #3
e630b3b4:	9a0000a6 	bls	e630b654 <InitDram+0x2330>
e630b3b8:	e3a01000 	mov	r1, #0
e630b3bc:	e3a00e35 	mov	r0, #848	; 0x350
e630b3c0:	ebffeecb 	bl	e6306ef4 <ddr_setval_ach>
e630b3c4:	e5954000 	ldr	r4, [r5]
e630b3c8:	e2444c55 	sub	r4, r4, #21760	; 0x5500
e630b3cc:	e3d44c01 	bics	r4, r4, #256	; 0x100
e630b3d0:	1a0000b4 	bne	e630b6a8 <InitDram+0x2384>
e630b3d4:	e1a01004 	mov	r1, r4
e630b3d8:	e3000352 	movw	r0, #850	; 0x352
e630b3dc:	ebffeec4 	bl	e6306ef4 <ddr_setval_ach>
e630b3e0:	e1a01004 	mov	r1, r4
e630b3e4:	e3000349 	movw	r0, #841	; 0x349
e630b3e8:	ebffeec1 	bl	e6306ef4 <ddr_setval_ach>
e630b3ec:	e1a01004 	mov	r1, r4
e630b3f0:	e300034a 	movw	r0, #842	; 0x34a
e630b3f4:	ebffeebe 	bl	e6306ef4 <ddr_setval_ach>
e630b3f8:	e3a01000 	mov	r1, #0
e630b3fc:	e59f9828 	ldr	r9, [pc, #2088]	; e630bc2c <InitDram+0x2908>
e630b400:	e300034f 	movw	r0, #847	; 0x34f
e630b404:	ebffeeba 	bl	e6306ef4 <ddr_setval_ach>
e630b408:	e3a00000 	mov	r0, #0
e630b40c:	ebffecc2 	bl	e630671c <vch_nxt>
e630b410:	e1a04000 	mov	r4, r0
e630b414:	e3540003 	cmp	r4, #3
e630b418:	9a0000ab 	bls	e630b6cc <InitDram+0x23a8>
e630b41c:	ebfff2b8 	bl	e6307f04 <wdqdm_man1>
e630b420:	e3a01000 	mov	r1, #0
e630b424:	e1a04000 	mov	r4, r0
e630b428:	e300033d 	movw	r0, #829	; 0x33d
e630b42c:	ebffeeb0 	bl	e6306ef4 <ddr_setval_ach>
e630b430:	eaffffab 	b	e630b2e4 <InitDram+0x1fc0>
e630b434:	e59fa7f4 	ldr	sl, [pc, #2036]	; e630bc30 <InitDram+0x290c>
e630b438:	e28d3060 	add	r3, sp, #96	; 0x60
e630b43c:	e3a08000 	mov	r8, #0
e630b440:	e0839204 	add	r9, r3, r4, lsl #4
e630b444:	e49a1004 	ldr	r1, [sl], #4
e630b448:	e1a00004 	mov	r0, r4
e630b44c:	ebfff23f 	bl	e6307d50 <ddr_getval>
e630b450:	e4890004 	str	r0, [r9], #4
e630b454:	f57ff04f 	dsb	sy
e630b458:	e2888001 	add	r8, r8, #1
e630b45c:	e3580004 	cmp	r8, #4
e630b460:	1afffff7 	bne	e630b444 <InitDram+0x2120>
e630b464:	e2840001 	add	r0, r4, #1
e630b468:	eaffffbc 	b	e630b360 <InitDram+0x203c>
e630b46c:	e59f37b8 	ldr	r3, [pc, #1976]	; e630bc2c <InitDram+0x2908>
e630b470:	e30222d0 	movw	r2, #8912	; 0x22d0
e630b474:	e0833104 	add	r3, r3, r4, lsl #2
e630b478:	e5938014 	ldr	r8, [r3, #20]
e630b47c:	e30a3cc6 	movw	r3, #44230	; 0xacc6
e630b480:	e208c03f 	and	ip, r8, #63	; 0x3f
e630b484:	e7e50358 	ubfx	r0, r8, #6, #6
e630b488:	e0020c92 	mul	r2, r2, ip
e630b48c:	e1520003 	cmp	r2, r3
e630b490:	9a00004e 	bls	e630b5d0 <InitDram+0x22ac>
e630b494:	e2422c99 	sub	r2, r2, #39168	; 0x9900
e630b498:	e242203e 	sub	r2, r2, #62	; 0x3e
e630b49c:	e0832792 	umull	r2, r3, r2, r7
e630b4a0:	e1a096a3 	lsr	r9, r3, #13
e630b4a4:	e30839d0 	movw	r3, #35280	; 0x89d0
e630b4a8:	e3012690 	movw	r2, #5776	; 0x1690
e630b4ac:	e1a0a104 	lsl	sl, r4, #2
e630b4b0:	e0223092 	mla	r2, r2, r0, r3
e630b4b4:	e0832792 	umull	r2, r3, r2, r7
e630b4b8:	e1a016a3 	lsr	r1, r3, #13
e630b4bc:	e0802001 	add	r2, r0, r1
e630b4c0:	e28d30a0 	add	r3, sp, #160	; 0xa0
e630b4c4:	e083b00a 	add	fp, r3, sl
e630b4c8:	e352003f 	cmp	r2, #63	; 0x3f
e630b4cc:	e50b2050 	str	r2, [fp, #-80]	; 0xffffffb0
e630b4d0:	e08c3009 	add	r3, ip, r9
e630b4d4:	e50b3060 	str	r3, [fp, #-96]	; 0xffffffa0
e630b4d8:	e58d3004 	str	r3, [sp, #4]
e630b4dc:	9a00000b 	bls	e630b510 <InitDram+0x21ec>
e630b4e0:	e3a0203f 	mov	r2, #63	; 0x3f
e630b4e4:	e0420000 	sub	r0, r2, r0
e630b4e8:	e50b2050 	str	r2, [fp, #-80]	; 0xffffffb0
e630b4ec:	e3e02005 	mvn	r2, #5
e630b4f0:	e0200192 	mla	r0, r2, r1, r0
e630b4f4:	e0000099 	mul	r0, r9, r0
e630b4f8:	eb0002e2 	bl	e630c088 <____aeabi_uidiv_veneer>
e630b4fc:	e59d3004 	ldr	r3, [sp, #4]
e630b500:	e0899109 	add	r9, r9, r9, lsl #2
e630b504:	e089c003 	add	ip, r9, r3
e630b508:	e080c00c 	add	ip, r0, ip
e630b50c:	e50bc060 	str	ip, [fp, #-96]	; 0xffffffa0
e630b510:	e3000196 	movw	r0, #406	; 0x196
e630b514:	e28d30a0 	add	r3, sp, #160	; 0xa0
e630b518:	e5959000 	ldr	r9, [r5]
e630b51c:	e083a00a 	add	sl, r3, sl
e630b520:	e51a2050 	ldr	r2, [sl, #-80]	; 0xffffffb0
e630b524:	e51ab060 	ldr	fp, [sl, #-96]	; 0xffffffa0
e630b528:	e1a02302 	lsl	r2, r2, #6
e630b52c:	ebffed4a 	bl	e6306a5c <ddr_regdef_adr>
e630b530:	e3590c4f 	cmp	r9, #20224	; 0x4f00
e630b534:	e1a01000 	mov	r1, r0
e630b538:	1a00002a 	bne	e630b5e8 <InitDram+0x22c4>
e630b53c:	e59f36dc 	ldr	r3, [pc, #1756]	; e630bc20 <InitDram+0x28fc>
e630b540:	e5933000 	ldr	r3, [r3]
e630b544:	e3530001 	cmp	r3, #1
e630b548:	8a000026 	bhi	e630b5e8 <InitDram+0x22c4>
e630b54c:	e1a00004 	mov	r0, r4
e630b550:	e3c88eff 	bic	r8, r8, #4080	; 0xff0
e630b554:	e3c8800f 	bic	r8, r8, #15
e630b558:	e1888002 	orr	r8, r8, r2
e630b55c:	e188800b 	orr	r8, r8, fp
e630b560:	e3882802 	orr	r2, r8, #131072	; 0x20000
e630b564:	ebffedfa 	bl	e6306d54 <reg_ddrphy_write>
e630b568:	e3000197 	movw	r0, #407	; 0x197
e630b56c:	ebffed3a 	bl	e6306a5c <ddr_regdef_adr>
e630b570:	e1a02008 	mov	r2, r8
e630b574:	e1a01000 	mov	r1, r0
e630b578:	e1a00004 	mov	r0, r4
e630b57c:	ebffedf4 	bl	e6306d54 <reg_ddrphy_write>
e630b580:	e3a00f66 	mov	r0, #408	; 0x198
e630b584:	ebffed34 	bl	e6306a5c <ddr_regdef_adr>
e630b588:	e1a02008 	mov	r2, r8
e630b58c:	e1a01000 	mov	r1, r0
e630b590:	e1a00004 	mov	r0, r4
e630b594:	ebffedee 	bl	e6306d54 <reg_ddrphy_write>
e630b598:	e3000199 	movw	r0, #409	; 0x199
e630b59c:	ebffed2e 	bl	e6306a5c <ddr_regdef_adr>
e630b5a0:	e1a02008 	mov	r2, r8
e630b5a4:	e1a01000 	mov	r1, r0
e630b5a8:	e1a00004 	mov	r0, r4
e630b5ac:	ebffede8 	bl	e6306d54 <reg_ddrphy_write>
e630b5b0:	e3a00e1a 	mov	r0, #416	; 0x1a0
e630b5b4:	ebffed28 	bl	e6306a5c <ddr_regdef_adr>
e630b5b8:	e1a02008 	mov	r2, r8
e630b5bc:	e1a01000 	mov	r1, r0
e630b5c0:	e1a00004 	mov	r0, r4
e630b5c4:	ebffede2 	bl	e6306d54 <reg_ddrphy_write>
e630b5c8:	e2840001 	add	r0, r4, #1
e630b5cc:	eaffff6f 	b	e630b390 <InitDram+0x206c>
e630b5d0:	e2622c99 	rsb	r2, r2, #39168	; 0x9900
e630b5d4:	e282203e 	add	r2, r2, #62	; 0x3e
e630b5d8:	e0832792 	umull	r2, r3, r2, r7
e630b5dc:	e1a096a3 	lsr	r9, r3, #13
e630b5e0:	e2699000 	rsb	r9, r9, #0
e630b5e4:	eaffffae 	b	e630b4a4 <InitDram+0x2180>
e630b5e8:	e1a00004 	mov	r0, r4
e630b5ec:	e182200b 	orr	r2, r2, fp
e630b5f0:	e3829a15 	orr	r9, r2, #86016	; 0x15000
e630b5f4:	e3822a35 	orr	r2, r2, #217088	; 0x35000
e630b5f8:	ebffedd5 	bl	e6306d54 <reg_ddrphy_write>
e630b5fc:	e3000197 	movw	r0, #407	; 0x197
e630b600:	ebffed15 	bl	e6306a5c <ddr_regdef_adr>
e630b604:	e1a02009 	mov	r2, r9
e630b608:	e1a01000 	mov	r1, r0
e630b60c:	e1a00004 	mov	r0, r4
e630b610:	ebffedcf 	bl	e6306d54 <reg_ddrphy_write>
e630b614:	e3a00f66 	mov	r0, #408	; 0x198
e630b618:	ebffed0f 	bl	e6306a5c <ddr_regdef_adr>
e630b61c:	e1a02009 	mov	r2, r9
e630b620:	e1a01000 	mov	r1, r0
e630b624:	e1a00004 	mov	r0, r4
e630b628:	ebffedc9 	bl	e6306d54 <reg_ddrphy_write>
e630b62c:	e3000199 	movw	r0, #409	; 0x199
e630b630:	ebffed09 	bl	e6306a5c <ddr_regdef_adr>
e630b634:	e1a02009 	mov	r2, r9
e630b638:	e1a01000 	mov	r1, r0
e630b63c:	e1a00004 	mov	r0, r4
e630b640:	ebffedc3 	bl	e6306d54 <reg_ddrphy_write>
e630b644:	e3a00e1a 	mov	r0, #416	; 0x1a0
e630b648:	ebffed03 	bl	e6306a5c <ddr_regdef_adr>
e630b64c:	e1a02009 	mov	r2, r9
e630b650:	eaffffd9 	b	e630b5bc <InitDram+0x2298>
e630b654:	e59fb5d4 	ldr	fp, [pc, #1492]	; e630bc30 <InitDram+0x290c>
e630b658:	e28d3060 	add	r3, sp, #96	; 0x60
e630b65c:	e3a08004 	mov	r8, #4
e630b660:	e0839204 	add	r9, r3, r4, lsl #4
e630b664:	e49ba004 	ldr	sl, [fp], #4
e630b668:	e1a00004 	mov	r0, r4
e630b66c:	e5992000 	ldr	r2, [r9]
e630b670:	e1a0100a 	mov	r1, sl
e630b674:	e58d2004 	str	r2, [sp, #4]
e630b678:	ebfff1b4 	bl	e6307d50 <ddr_getval>
e630b67c:	e59d2004 	ldr	r2, [sp, #4]
e630b680:	e1a0100a 	mov	r1, sl
e630b684:	e0822000 	add	r2, r2, r0
e630b688:	e1a00004 	mov	r0, r4
e630b68c:	e1a020a2 	lsr	r2, r2, #1
e630b690:	e4892004 	str	r2, [r9], #4
e630b694:	ebffee02 	bl	e6306ea4 <ddr_setval>
e630b698:	e2588001 	subs	r8, r8, #1
e630b69c:	1afffff0 	bne	e630b664 <InitDram+0x2340>
e630b6a0:	e2840001 	add	r0, r4, #1
e630b6a4:	eaffff3f 	b	e630b3a8 <InitDram+0x2084>
e630b6a8:	e3a01000 	mov	r1, #0
e630b6ac:	e3a00fd5 	mov	r0, #852	; 0x354
e630b6b0:	ebffee0f 	bl	e6306ef4 <ddr_setval_ach>
e630b6b4:	e3a01000 	mov	r1, #0
e630b6b8:	e300034d 	movw	r0, #845	; 0x34d
e630b6bc:	ebffee0c 	bl	e6306ef4 <ddr_setval_ach>
e630b6c0:	e3a01000 	mov	r1, #0
e630b6c4:	e300034e 	movw	r0, #846	; 0x34e
e630b6c8:	eaffff49 	b	e630b3f4 <InitDram+0x20d0>
e630b6cc:	e3000196 	movw	r0, #406	; 0x196
e630b6d0:	e0898104 	add	r8, r9, r4, lsl #2
e630b6d4:	ebffece0 	bl	e6306a5c <ddr_regdef_adr>
e630b6d8:	e5982004 	ldr	r2, [r8, #4]
e630b6dc:	e3822802 	orr	r2, r2, #131072	; 0x20000
e630b6e0:	e1a01000 	mov	r1, r0
e630b6e4:	e1a00004 	mov	r0, r4
e630b6e8:	ebffed99 	bl	e6306d54 <reg_ddrphy_write>
e630b6ec:	e3000197 	movw	r0, #407	; 0x197
e630b6f0:	ebffecd9 	bl	e6306a5c <ddr_regdef_adr>
e630b6f4:	e5982004 	ldr	r2, [r8, #4]
e630b6f8:	e1a01000 	mov	r1, r0
e630b6fc:	e1a00004 	mov	r0, r4
e630b700:	ebffed93 	bl	e6306d54 <reg_ddrphy_write>
e630b704:	e3a00f66 	mov	r0, #408	; 0x198
e630b708:	ebffecd3 	bl	e6306a5c <ddr_regdef_adr>
e630b70c:	e5982004 	ldr	r2, [r8, #4]
e630b710:	e1a01000 	mov	r1, r0
e630b714:	e1a00004 	mov	r0, r4
e630b718:	ebffed8d 	bl	e6306d54 <reg_ddrphy_write>
e630b71c:	e3000199 	movw	r0, #409	; 0x199
e630b720:	ebffeccd 	bl	e6306a5c <ddr_regdef_adr>
e630b724:	e5982004 	ldr	r2, [r8, #4]
e630b728:	e1a01000 	mov	r1, r0
e630b72c:	e1a00004 	mov	r0, r4
e630b730:	ebffed87 	bl	e6306d54 <reg_ddrphy_write>
e630b734:	e3a00e1a 	mov	r0, #416	; 0x1a0
e630b738:	ebffecc7 	bl	e6306a5c <ddr_regdef_adr>
e630b73c:	e5982004 	ldr	r2, [r8, #4]
e630b740:	e1a01000 	mov	r1, r0
e630b744:	e1a00004 	mov	r0, r4
e630b748:	ebffed81 	bl	e6306d54 <reg_ddrphy_write>
e630b74c:	e2840001 	add	r0, r4, #1
e630b750:	ebffebf1 	bl	e630671c <vch_nxt>
e630b754:	e1a04000 	mov	r4, r0
e630b758:	eaffff2d 	b	e630b414 <InitDram+0x20f0>
e630b75c:	e3570c52 	cmp	r7, #20992	; 0x5200
e630b760:	1a000003 	bne	e630b774 <InitDram+0x2450>
e630b764:	e59f34b4 	ldr	r3, [pc, #1204]	; e630bc20 <InitDram+0x28fc>
e630b768:	e5933000 	ldr	r3, [r3]
e630b76c:	e3530000 	cmp	r3, #0
e630b770:	0afffee7 	beq	e630b314 <InitDram+0x1ff0>
e630b774:	e3560010 	cmp	r6, #16
e630b778:	0afffe33 	beq	e630b04c <InitDram+0x1d28>
e630b77c:	ebffede0 	bl	e6306f04 <update_dly>
e630b780:	e3570c4f 	cmp	r7, #20224	; 0x4f00
e630b784:	1a000093 	bne	e630b9d8 <InitDram+0x26b4>
e630b788:	e59f3490 	ldr	r3, [pc, #1168]	; e630bc20 <InitDram+0x28fc>
e630b78c:	e5933000 	ldr	r3, [r3]
e630b790:	e3530001 	cmp	r3, #1
e630b794:	8a000092 	bhi	e630b9e4 <InitDram+0x26c0>
e630b798:	e3a00000 	mov	r0, #0
e630b79c:	e3a04000 	mov	r4, #0
e630b7a0:	ebffebdd 	bl	e630671c <vch_nxt>
e630b7a4:	e30f5fff 	movw	r5, #65535	; 0xffff
e630b7a8:	e1a06000 	mov	r6, r0
e630b7ac:	e3560003 	cmp	r6, #3
e630b7b0:	9a000092 	bls	e630ba00 <InitDram+0x26dc>
e630b7b4:	e59f2454 	ldr	r2, [pc, #1108]	; e630bc10 <InitDram+0x28ec>
e630b7b8:	e3570c4f 	cmp	r7, #20224	; 0x4f00
e630b7bc:	1a0000af 	bne	e630ba80 <InitDram+0x275c>
e630b7c0:	e59f3458 	ldr	r3, [pc, #1112]	; e630bc20 <InitDram+0x28fc>
e630b7c4:	e5933000 	ldr	r3, [r3]
e630b7c8:	e3530001 	cmp	r3, #1
e630b7cc:	9a0000ab 	bls	e630ba80 <InitDram+0x275c>
e630b7d0:	e5923360 	ldr	r3, [r2, #864]	; 0x360
e630b7d4:	e0654084 	rsb	r4, r5, r4, lsl #1
e630b7d8:	e2855002 	add	r5, r5, #2
e630b7dc:	e2844004 	add	r4, r4, #4
e630b7e0:	e0835805 	add	r5, r3, r5, lsl #16
e630b7e4:	e0855c04 	add	r5, r5, r4, lsl #24
e630b7e8:	e5825360 	str	r5, [r2, #864]	; 0x360
e630b7ec:	e59fc440 	ldr	ip, [pc, #1088]	; e630bc34 <InitDram+0x2910>
e630b7f0:	e3a0e000 	mov	lr, #0
e630b7f4:	e59f243c 	ldr	r2, [pc, #1084]	; e630bc38 <InitDram+0x2914>
e630b7f8:	e59f643c 	ldr	r6, [pc, #1084]	; e630bc3c <InitDram+0x2918>
e630b7fc:	e59f543c 	ldr	r5, [pc, #1084]	; e630bc40 <InitDram+0x291c>
e630b800:	e1a0400c 	mov	r4, ip
e630b804:	e3a01000 	mov	r1, #0
e630b808:	e4943004 	ldr	r3, [r4], #4
e630b80c:	e35300ff 	cmp	r3, #255	; 0xff
e630b810:	0782e001 	streq	lr, [r2, r1]
e630b814:	0a000007 	beq	e630b838 <InitDram+0x2514>
e630b818:	e2830001 	add	r0, r3, #1
e630b81c:	e1a03f03 	lsl	r3, r3, #30
e630b820:	e1a000a0 	lsr	r0, r0, #1
e630b824:	e280000e 	add	r0, r0, #14
e630b828:	e2033101 	and	r3, r3, #1073741824	; 0x40000000
e630b82c:	e1833c00 	orr	r3, r3, r0, lsl #24
e630b830:	e1833006 	orr	r3, r3, r6
e630b834:	e7823001 	str	r3, [r2, r1]
e630b838:	e2811004 	add	r1, r1, #4
e630b83c:	e3510008 	cmp	r1, #8
e630b840:	1afffff0 	bne	e630b808 <InitDram+0x24e4>
e630b844:	e582e008 	str	lr, [r2, #8]
e630b848:	e2822010 	add	r2, r2, #16
e630b84c:	e502e004 	str	lr, [r2, #-4]
e630b850:	e1520005 	cmp	r2, r5
e630b854:	e28cc008 	add	ip, ip, #8
e630b858:	1affffe8 	bne	e630b800 <InitDram+0x24dc>
e630b85c:	e59f33ac 	ldr	r3, [pc, #940]	; e630bc10 <InitDram+0x28ec>
e630b860:	e3a02010 	mov	r2, #16
e630b864:	e59f43b8 	ldr	r4, [pc, #952]	; e630bc24 <InitDram+0x2900>
e630b868:	e5832804 	str	r2, [r3, #2052]	; 0x804
e630b86c:	e59f23d0 	ldr	r2, [pc, #976]	; e630bc44 <InitDram+0x2920>
e630b870:	e5922000 	ldr	r2, [r2]
e630b874:	e5d21001 	ldrb	r1, [r2, #1]
e630b878:	e3510000 	cmp	r1, #0
e630b87c:	13a01003 	movne	r1, #3
e630b880:	15831518 	strne	r1, [r3, #1304]	; 0x518
e630b884:	e5943000 	ldr	r3, [r4]
e630b888:	e3530c4f 	cmp	r3, #20224	; 0x4f00
e630b88c:	1a000082 	bne	e630ba9c <InitDram+0x2778>
e630b890:	e59f3388 	ldr	r3, [pc, #904]	; e630bc20 <InitDram+0x28fc>
e630b894:	e5933000 	ldr	r3, [r3]
e630b898:	e3530001 	cmp	r3, #1
e630b89c:	8a000081 	bhi	e630baa8 <InitDram+0x2784>
e630b8a0:	eb0001dd 	bl	e630c01c <get_refperiod>
e630b8a4:	e59f339c 	ldr	r3, [pc, #924]	; e630bc48 <InitDram+0x2924>
e630b8a8:	e5932000 	ldr	r2, [r3]
e630b8ac:	e0020092 	mul	r2, r2, r0
e630b8b0:	e59f0394 	ldr	r0, [pc, #916]	; e630bc4c <InitDram+0x2928>
e630b8b4:	e0876092 	umull	r6, r7, r2, r0
e630b8b8:	e59f2390 	ldr	r2, [pc, #912]	; e630bc50 <InitDram+0x292c>
e630b8bc:	e1a003a7 	lsr	r0, r7, #7
e630b8c0:	e5921000 	ldr	r1, [r2]
e630b8c4:	eb0001ef 	bl	e630c088 <____aeabi_uidiv_veneer>
e630b8c8:	e59f3340 	ldr	r3, [pc, #832]	; e630bc10 <InitDram+0x28ec>
e630b8cc:	e3a02801 	mov	r2, #65536	; 0x10000
e630b8d0:	e6ff0070 	uxth	r0, r0
e630b8d4:	e3800702 	orr	r0, r0, #524288	; 0x80000
e630b8d8:	e5830414 	str	r0, [r3, #1044]	; 0x414
e630b8dc:	e5832418 	str	r2, [r3, #1048]	; 0x418
e630b8e0:	e5942000 	ldr	r2, [r4]
e630b8e4:	e3520c4f 	cmp	r2, #20224	; 0x4f00
e630b8e8:	1a000075 	bne	e630bac4 <InitDram+0x27a0>
e630b8ec:	e59f232c 	ldr	r2, [pc, #812]	; e630bc20 <InitDram+0x28fc>
e630b8f0:	e5922000 	ldr	r2, [r2]
e630b8f4:	e3520001 	cmp	r2, #1
e630b8f8:	8a000077 	bhi	e630badc <InitDram+0x27b8>
e630b8fc:	e59f2350 	ldr	r2, [pc, #848]	; e630bc54 <InitDram+0x2930>
e630b900:	e59f3308 	ldr	r3, [pc, #776]	; e630bc10 <InitDram+0x28ec>
e630b904:	e5832424 	str	r2, [r3, #1060]	; 0x424
e630b908:	e5942000 	ldr	r2, [r4]
e630b90c:	e3520c4f 	cmp	r2, #20224	; 0x4f00
e630b910:	1a0000a4 	bne	e630bba8 <InitDram+0x2884>
e630b914:	e59f2304 	ldr	r2, [pc, #772]	; e630bc20 <InitDram+0x28fc>
e630b918:	e5922000 	ldr	r2, [r2]
e630b91c:	e3520001 	cmp	r2, #1
e630b920:	9a000001 	bls	e630b92c <InitDram+0x2608>
e630b924:	e59f232c 	ldr	r2, [pc, #812]	; e630bc58 <InitDram+0x2934>
e630b928:	e583252c 	str	r2, [r3, #1324]	; 0x52c
e630b92c:	e59f3328 	ldr	r3, [pc, #808]	; e630bc5c <InitDram+0x2938>
e630b930:	e5933000 	ldr	r3, [r3]
e630b934:	e3530001 	cmp	r3, #1
e630b938:	1a000001 	bne	e630b944 <InitDram+0x2620>
e630b93c:	e59f031c 	ldr	r0, [pc, #796]	; e630bc60 <InitDram+0x293c>
e630b940:	ebffec3e 	bl	e6306a40 <send_dbcmd>
e630b944:	e59f32c4 	ldr	r3, [pc, #708]	; e630bc10 <InitDram+0x28ec>
e630b948:	e3a02001 	mov	r2, #1
e630b94c:	e5832204 	str	r2, [r3, #516]	; 0x204
e630b950:	e5942000 	ldr	r2, [r4]
e630b954:	e1a04003 	mov	r4, r3
e630b958:	e3520c4f 	cmp	r2, #20224	; 0x4f00
e630b95c:	1a000097 	bne	e630bbc0 <InitDram+0x289c>
e630b960:	e59f32b8 	ldr	r3, [pc, #696]	; e630bc20 <InitDram+0x28fc>
e630b964:	e5933000 	ldr	r3, [r3]
e630b968:	e3530001 	cmp	r3, #1
e630b96c:	8a000099 	bhi	e630bbd8 <InitDram+0x28b4>
e630b970:	e3a03001 	mov	r3, #1
e630b974:	e5843200 	str	r3, [r4, #512]	; 0x200
e630b978:	e59f32e4 	ldr	r3, [pc, #740]	; e630bc64 <InitDram+0x2940>
e630b97c:	e3a06000 	mov	r6, #0
e630b980:	e59f52e0 	ldr	r5, [pc, #736]	; e630bc68 <InitDram+0x2944>
e630b984:	e5930000 	ldr	r0, [r3]
e630b988:	e59d3000 	ldr	r3, [sp]
e630b98c:	e0504003 	subs	r4, r0, r3
e630b990:	e3a00000 	mov	r0, #0
e630b994:	13a04001 	movne	r4, #1
e630b998:	ebffeb5f 	bl	e630671c <vch_nxt>
e630b99c:	e3500003 	cmp	r0, #3
e630b9a0:	9a000090 	bls	e630bbe8 <InitDram+0x28c4>
e630b9a4:	e59f3278 	ldr	r3, [pc, #632]	; e630bc24 <InitDram+0x2900>
e630b9a8:	e5933000 	ldr	r3, [r3]
e630b9ac:	e3530c4f 	cmp	r3, #20224	; 0x4f00
e630b9b0:	1a000090 	bne	e630bbf8 <InitDram+0x28d4>
e630b9b4:	e59f3264 	ldr	r3, [pc, #612]	; e630bc20 <InitDram+0x28fc>
e630b9b8:	e5933000 	ldr	r3, [r3]
e630b9bc:	e3530001 	cmp	r3, #1
e630b9c0:	9a000002 	bls	e630b9d0 <InitDram+0x26ac>
e630b9c4:	e59f3244 	ldr	r3, [pc, #580]	; e630bc10 <InitDram+0x28ec>
e630b9c8:	e3a02000 	mov	r2, #0
e630b9cc:	e5832100 	str	r2, [r3, #256]	; 0x100
e630b9d0:	e2640000 	rsb	r0, r4, #0
e630b9d4:	eafff6cc 	b	e630950c <InitDram+0x1e8>
e630b9d8:	e2473c55 	sub	r3, r7, #21760	; 0x5500
e630b9dc:	e3d33c01 	bics	r3, r3, #256	; 0x100
e630b9e0:	1affff6c 	bne	e630b798 <InitDram+0x2474>
e630b9e4:	e3a01000 	mov	r1, #0
e630b9e8:	e3a00031 	mov	r0, #49	; 0x31
e630b9ec:	ebffed4c 	bl	e6306f24 <ddr_setval_ach_as>
e630b9f0:	e3a01000 	mov	r1, #0
e630b9f4:	e300025e 	movw	r0, #606	; 0x25e
e630b9f8:	ebffed3d 	bl	e6306ef4 <ddr_setval_ach>
e630b9fc:	eaffff65 	b	e630b798 <InitDram+0x2474>
e630ba00:	e3a03001 	mov	r3, #1
e630ba04:	e3a09000 	mov	r9, #0
e630ba08:	e59fa25c 	ldr	sl, [pc, #604]	; e630bc6c <InitDram+0x2948>
e630ba0c:	e1a0b613 	lsl	fp, r3, r6
e630ba10:	e49a3004 	ldr	r3, [sl], #4
e630ba14:	e113000b 	tst	r3, fp
e630ba18:	0a000010 	beq	e630ba60 <InitDram+0x273c>
e630ba1c:	e3a08000 	mov	r8, #0
e630ba20:	e1a01008 	mov	r1, r8
e630ba24:	e1a03009 	mov	r3, r9
e630ba28:	e3a02018 	mov	r2, #24
e630ba2c:	e1a00006 	mov	r0, r6
e630ba30:	ebffed03 	bl	e6306e44 <ddr_setval_s>
e630ba34:	e1a01008 	mov	r1, r8
e630ba38:	e3a020bb 	mov	r2, #187	; 0xbb
e630ba3c:	e1a00006 	mov	r0, r6
e630ba40:	ebfff0b3 	bl	e6307d14 <ddr_getval_s>
e630ba44:	e2888001 	add	r8, r8, #1
e630ba48:	e1540000 	cmp	r4, r0
e630ba4c:	31a04000 	movcc	r4, r0
e630ba50:	e1550000 	cmp	r5, r0
e630ba54:	21a05000 	movcs	r5, r0
e630ba58:	e3580004 	cmp	r8, #4
e630ba5c:	1affffef 	bne	e630ba20 <InitDram+0x26fc>
e630ba60:	e3590001 	cmp	r9, #1
e630ba64:	1a000003 	bne	e630ba78 <InitDram+0x2754>
e630ba68:	e2860001 	add	r0, r6, #1
e630ba6c:	ebffeb2a 	bl	e630671c <vch_nxt>
e630ba70:	e1a06000 	mov	r6, r0
e630ba74:	eaffff4c 	b	e630b7ac <InitDram+0x2488>
e630ba78:	e3a09001 	mov	r9, #1
e630ba7c:	eaffffe3 	b	e630ba10 <InitDram+0x26ec>
e630ba80:	e5921360 	ldr	r1, [r2, #864]	; 0x360
e630ba84:	e2844002 	add	r4, r4, #2
e630ba88:	e1a03804 	lsl	r3, r4, #16
e630ba8c:	e0834c04 	add	r4, r3, r4, lsl #24
e630ba90:	e0844001 	add	r4, r4, r1
e630ba94:	e5824360 	str	r4, [r2, #864]	; 0x360
e630ba98:	eaffff53 	b	e630b7ec <InitDram+0x24c8>
e630ba9c:	e2433c55 	sub	r3, r3, #21760	; 0x5500
e630baa0:	e3d33c01 	bics	r3, r3, #256	; 0x100
e630baa4:	1affff7d 	bne	e630b8a0 <InitDram+0x257c>
e630baa8:	e5d23001 	ldrb	r3, [r2, #1]
e630baac:	e3530000 	cmp	r3, #0
e630bab0:	0affff7a 	beq	e630b8a0 <InitDram+0x257c>
e630bab4:	e3a01401 	mov	r1, #16777216	; 0x1000000
e630bab8:	e3010010 	movw	r0, #4112	; 0x1010
e630babc:	ebffed6f 	bl	e6307080 <reg_ddrphy_write_a>
e630bac0:	eaffff76 	b	e630b8a0 <InitDram+0x257c>
e630bac4:	e3520c52 	cmp	r2, #20992	; 0x5200
e630bac8:	1a000003 	bne	e630badc <InitDram+0x27b8>
e630bacc:	e59f214c 	ldr	r2, [pc, #332]	; e630bc20 <InitDram+0x28fc>
e630bad0:	e5922000 	ldr	r2, [r2]
e630bad4:	e3520000 	cmp	r2, #0
e630bad8:	0affff87 	beq	e630b8fc <InitDram+0x25d8>
e630badc:	e3a05000 	mov	r5, #0
e630bae0:	e3a01004 	mov	r1, #4
e630bae4:	e3a00051 	mov	r0, #81	; 0x51
e630bae8:	e5835520 	str	r5, [r3, #1312]	; 0x520
e630baec:	ebffed0c 	bl	e6306f24 <ddr_setval_ach_as>
e630baf0:	e3a0100f 	mov	r1, #15
e630baf4:	e3a00055 	mov	r0, #85	; 0x55
e630baf8:	ebffed09 	bl	e6306f24 <ddr_setval_ach_as>
e630bafc:	e3a01050 	mov	r1, #80	; 0x50
e630bb00:	e3a000e0 	mov	r0, #224	; 0xe0
e630bb04:	ebffed06 	bl	e6306f24 <ddr_setval_ach_as>
e630bb08:	e3a01c03 	mov	r1, #768	; 0x300
e630bb0c:	e3a000c2 	mov	r0, #194	; 0xc2
e630bb10:	ebffed03 	bl	e6306f24 <ddr_setval_ach_as>
e630bb14:	e59f0154 	ldr	r0, [pc, #340]	; e630bc70 <InitDram+0x294c>
e630bb18:	e3001346 	movw	r1, #838	; 0x346
e630bb1c:	ebffede3 	bl	e63072b0 <ddrtbl_getval>
e630bb20:	e1a01000 	mov	r1, r0
e630bb24:	e3000346 	movw	r0, #838	; 0x346
e630bb28:	ebffecf1 	bl	e6306ef4 <ddr_setval_ach>
e630bb2c:	e3a0101f 	mov	r1, #31
e630bb30:	e300040a 	movw	r0, #1034	; 0x40a
e630bb34:	ebffecee 	bl	e6306ef4 <ddr_setval_ach>
e630bb38:	e1a01005 	mov	r1, r5
e630bb3c:	e300033d 	movw	r0, #829	; 0x33d
e630bb40:	ebffeceb 	bl	e6306ef4 <ddr_setval_ach>
e630bb44:	e3a01001 	mov	r1, #1
e630bb48:	e3000345 	movw	r0, #837	; 0x345
e630bb4c:	ebffece8 	bl	e6306ef4 <ddr_setval_ach>
e630bb50:	e1a01005 	mov	r1, r5
e630bb54:	e3a00e23 	mov	r0, #560	; 0x230
e630bb58:	ebffece5 	bl	e6306ef4 <ddr_setval_ach>
e630bb5c:	e1a01005 	mov	r1, r5
e630bb60:	e3000232 	movw	r0, #562	; 0x232
e630bb64:	ebffece2 	bl	e6306ef4 <ddr_setval_ach>
e630bb68:	e3a00f8d 	mov	r0, #564	; 0x234
e630bb6c:	e1a01005 	mov	r1, r5
e630bb70:	ebffecdf 	bl	e6306ef4 <ddr_setval_ach>
e630bb74:	e5943000 	ldr	r3, [r4]
e630bb78:	e3a01002 	mov	r1, #2
e630bb7c:	e3530c52 	cmp	r3, #20992	; 0x5200
e630bb80:	0300035f 	movweq	r0, #863	; 0x35f
e630bb84:	1300035d 	movwne	r0, #861	; 0x35d
e630bb88:	ebffecd9 	bl	e6306ef4 <ddr_setval_ach>
e630bb8c:	e3a01001 	mov	r1, #1
e630bb90:	e3000355 	movw	r0, #853	; 0x355
e630bb94:	ebffecd6 	bl	e6306ef4 <ddr_setval_ach>
e630bb98:	e59f3070 	ldr	r3, [pc, #112]	; e630bc10 <InitDram+0x28ec>
e630bb9c:	e3a02011 	mov	r2, #17
e630bba0:	e5832520 	str	r2, [r3, #1312]	; 0x520
e630bba4:	eaffff54 	b	e630b8fc <InitDram+0x25d8>
e630bba8:	e3520c52 	cmp	r2, #20992	; 0x5200
e630bbac:	1affff5c 	bne	e630b924 <InitDram+0x2600>
e630bbb0:	e59f2068 	ldr	r2, [pc, #104]	; e630bc20 <InitDram+0x28fc>
e630bbb4:	e5922000 	ldr	r2, [r2]
e630bbb8:	e352001f 	cmp	r2, #31
e630bbbc:	eaffff57 	b	e630b920 <InitDram+0x25fc>
e630bbc0:	e3520c52 	cmp	r2, #20992	; 0x5200
e630bbc4:	1a000003 	bne	e630bbd8 <InitDram+0x28b4>
e630bbc8:	e59f3050 	ldr	r3, [pc, #80]	; e630bc20 <InitDram+0x28fc>
e630bbcc:	e5933000 	ldr	r3, [r3]
e630bbd0:	e3530000 	cmp	r3, #0
e630bbd4:	0affff65 	beq	e630b970 <InitDram+0x264c>
e630bbd8:	e3a01c01 	mov	r1, #256	; 0x100
e630bbdc:	e300035b 	movw	r0, #859	; 0x35b
e630bbe0:	ebffecc3 	bl	e6306ef4 <ddr_setval_ach>
e630bbe4:	eaffff61 	b	e630b970 <InitDram+0x264c>
e630bbe8:	e7856300 	str	r6, [r5, r0, lsl #6]
e630bbec:	e2800001 	add	r0, r0, #1
e630bbf0:	ebffeac9 	bl	e630671c <vch_nxt>
e630bbf4:	eaffff68 	b	e630b99c <InitDram+0x2678>
e630bbf8:	e3530c52 	cmp	r3, #20992	; 0x5200
e630bbfc:	1affff70 	bne	e630b9c4 <InitDram+0x26a0>
e630bc00:	e59f3018 	ldr	r3, [pc, #24]	; e630bc20 <InitDram+0x28fc>
e630bc04:	e5933000 	ldr	r3, [r3]
e630bc08:	e353001f 	cmp	r3, #31
e630bc0c:	eaffff6b 	b	e630b9c0 <InitDram+0x269c>
e630bc10:	e6790000 	.word	0xe6790000
e630bc14:	eb023fe8 	.word	0xeb023fe8
e630bc18:	eb023fb4 	.word	0xeb023fb4
e630bc1c:	eb023fe9 	.word	0xeb023fe9
e630bc20:	eb022054 	.word	0xeb022054
e630bc24:	eb022058 	.word	0xeb022058
e630bc28:	d1b71759 	.word	0xd1b71759
e630bc2c:	eb023ff8 	.word	0xeb023ff8
e630bc30:	e6312c64 	.word	0xe6312c64
e630bc34:	eb022d6c 	.word	0xeb022d6c
e630bc38:	e6790030 	.word	0xe6790030
e630bc3c:	00030a02 	.word	0x00030a02
e630bc40:	e6790070 	.word	0xe6790070
e630bc44:	eb02201c 	.word	0xeb02201c
e630bc48:	eb022d8c 	.word	0xeb022d8c
e630bc4c:	10624dd3 	.word	0x10624dd3
e630bc50:	eb022d90 	.word	0xeb022d90
e630bc54:	01000010 	.word	0x01000010
e630bc58:	28240001 	.word	0x28240001
e630bc5c:	eb023ff0 	.word	0xeb023ff0
e630bc60:	0a840001 	.word	0x0a840001
e630bc64:	eb022d9c 	.word	0xeb022d9c
e630bc68:	e6790620 	.word	0xe6790620
e630bc6c:	eb022000 	.word	0xeb022000
e630bc70:	eb02285c 	.word	0xeb02285c

e630bc74 <get_boardcnf_phyvalid>:
e630bc74:	e59f3004 	ldr	r3, [pc, #4]	; e630bc80 <get_boardcnf_phyvalid+0xc>
e630bc78:	e5d30000 	ldrb	r0, [r3]
e630bc7c:	e12fff1e 	bx	lr
e630bc80:	eb022d9c 	.word	0xeb022d9c

e630bc84 <dram_get_boot_status>:
e630bc84:	e3a03000 	mov	r3, #0
e630bc88:	e5803000 	str	r3, [r0]
e630bc8c:	e12fff1e 	bx	lr

e630bc90 <dram_update_boot_status>:
e630bc90:	e3a00000 	mov	r0, #0
e630bc94:	e12fff1e 	bx	lr

e630bc98 <qos_init_m3n_v10>:
e630bc98:	e3012234 	movw	r2, #4660	; 0x1234
e630bc9c:	e3a0c0a0 	mov	ip, #160	; 0xa0
e630bca0:	e59f3268 	ldr	r3, [pc, #616]	; e630bf10 <qos_init_m3n_v10+0x278>
e630bca4:	e3a00c01 	mov	r0, #256	; 0x100
e630bca8:	e92d4010 	push	{r4, lr}
e630bcac:	e5832100 	str	r2, [r3, #256]	; 0x100
e630bcb0:	e3a0e0f0 	mov	lr, #240	; 0xf0
e630bcb4:	e59f2258 	ldr	r2, [pc, #600]	; e630bf14 <qos_init_m3n_v10+0x27c>
e630bcb8:	e5832904 	str	r2, [r3, #2308]	; 0x904
e630bcbc:	e3a020f4 	mov	r2, #244	; 0xf4
e630bcc0:	e59f1250 	ldr	r1, [pc, #592]	; e630bf18 <qos_init_m3n_v10+0x280>
e630bcc4:	e5832908 	str	r2, [r3, #2312]	; 0x908
e630bcc8:	e59f324c 	ldr	r3, [pc, #588]	; e630bf1c <qos_init_m3n_v10+0x284>
e630bccc:	e59f224c 	ldr	r2, [pc, #588]	; e630bf20 <qos_init_m3n_v10+0x288>
e630bcd0:	e5032fff 	str	r2, [r3, #-4095]	; 0xfffff001
e630bcd4:	e3a02001 	mov	r2, #1
e630bcd8:	e5032fef 	str	r2, [r3, #-4079]	; 0xfffff011
e630bcdc:	e2822589 	add	r2, r2, #574619648	; 0x22400000
e630bce0:	e2822a21 	add	r2, r2, #135168	; 0x21000
e630bce4:	e2822e11 	add	r2, r2, #272	; 0x110
e630bce8:	e5032fdf 	str	r2, [r3, #-4063]	; 0xfffff021
e630bcec:	e59f2230 	ldr	r2, [pc, #560]	; e630bf24 <qos_init_m3n_v10+0x28c>
e630bcf0:	e5922060 	ldr	r2, [r2, #96]	; 0x60
e630bcf4:	e3a02c0f 	mov	r2, #3840	; 0xf00
e630bcf8:	e50318f3 	str	r1, [r3, #-2291]	; 0xfffff70d
e630bcfc:	e3a01000 	mov	r1, #0
e630bd00:	e5032fcf 	str	r2, [r3, #-4047]	; 0xfffff031
e630bd04:	e3a02c0b 	mov	r2, #2816	; 0xb00
e630bd08:	e5032fcb 	str	r2, [r3, #-4043]	; 0xfffff035
e630bd0c:	e3a02c03 	mov	r2, #768	; 0x300
e630bd10:	e5031fc7 	str	r1, [r3, #-4039]	; 0xfffff039
e630bd14:	e5031fc3 	str	r1, [r3, #-4035]	; 0xfffff03d
e630bd18:	e5032f8f 	str	r2, [r3, #-3983]	; 0xfffff071
e630bd1c:	e3a02e2f 	mov	r2, #752	; 0x2f0
e630bd20:	e5032f8b 	str	r2, [r3, #-3979]	; 0xfffff075
e630bd24:	e3a02c02 	mov	r2, #512	; 0x200
e630bd28:	e5032f87 	str	r2, [r3, #-3975]	; 0xfffff079
e630bd2c:	e3a02040 	mov	r2, #64	; 0x40
e630bd30:	e5030f83 	str	r0, [r3, #-3971]	; 0xfffff07d
e630bd34:	e5030f3f 	str	r0, [r3, #-3903]	; 0xfffff0c1
e630bd38:	e503ef3b 	str	lr, [r3, #-3899]	; 0xfffff0c5
e630bd3c:	e503cf37 	str	ip, [r3, #-3895]	; 0xfffff0c9
e630bd40:	e5032f33 	str	r2, [r3, #-3891]	; 0xfffff0cd
e630bd44:	e5030eff 	str	r0, [r3, #-3839]	; 0xfffff101
e630bd48:	e3a000c0 	mov	r0, #192	; 0xc0
e630bd4c:	e503eefb 	str	lr, [r3, #-3835]	; 0xfffff105
e630bd50:	e503cef7 	str	ip, [r3, #-3831]	; 0xfffff109
e630bd54:	e5032ef3 	str	r2, [r3, #-3827]	; 0xfffff10d
e630bd58:	e5030eef 	str	r0, [r3, #-3823]	; 0xfffff111
e630bd5c:	e3a000b0 	mov	r0, #176	; 0xb0
e630bd60:	e5030eeb 	str	r0, [r3, #-3819]	; 0xfffff115
e630bd64:	e3a00080 	mov	r0, #128	; 0x80
e630bd68:	e5030ee7 	str	r0, [r3, #-3815]	; 0xfffff119
e630bd6c:	e5032ee3 	str	r2, [r3, #-3811]	; 0xfffff11d
e630bd70:	e5032edf 	str	r2, [r3, #-3807]	; 0xfffff121
e630bd74:	e3a02030 	mov	r2, #48	; 0x30
e630bd78:	e59f01a8 	ldr	r0, [pc, #424]	; e630bf28 <qos_init_m3n_v10+0x290>
e630bd7c:	e5032edb 	str	r2, [r3, #-3803]	; 0xfffff125
e630bd80:	e3a02020 	mov	r2, #32
e630bd84:	e5032ed7 	str	r2, [r3, #-3799]	; 0xfffff129
e630bd88:	e3a02010 	mov	r2, #16
e630bd8c:	e5032ed3 	str	r2, [r3, #-3795]	; 0xfffff12d
e630bd90:	e59f3178 	ldr	r3, [pc, #376]	; e630bf10 <qos_init_m3n_v10+0x278>
e630bd94:	e5831100 	str	r1, [r3, #256]	; 0x100
e630bd98:	eb0000b0 	bl	e630c060 <__tf_printf_veneer>
e630bd9c:	e59f1188 	ldr	r1, [pc, #392]	; e630bf2c <qos_init_m3n_v10+0x294>
e630bda0:	e59f0188 	ldr	r0, [pc, #392]	; e630bf30 <qos_init_m3n_v10+0x298>
e630bda4:	eb0000ad 	bl	e630c060 <__tf_printf_veneer>
e630bda8:	e59f0184 	ldr	r0, [pc, #388]	; e630bf34 <qos_init_m3n_v10+0x29c>
e630bdac:	eb0000ab 	bl	e630c060 <__tf_printf_veneer>
e630bdb0:	e59f0180 	ldr	r0, [pc, #384]	; e630bf38 <qos_init_m3n_v10+0x2a0>
e630bdb4:	eb0000a9 	bl	e630c060 <__tf_printf_veneer>
e630bdb8:	e59f317c 	ldr	r3, [pc, #380]	; e630bf3c <qos_init_m3n_v10+0x2a4>
e630bdbc:	e28f1f51 	add	r1, pc, #324	; 0x144
e630bdc0:	e1c100d0 	ldrd	r0, [r1]
e630bdc4:	e3a02028 	mov	r2, #40	; 0x28
e630bdc8:	e59fc170 	ldr	ip, [pc, #368]	; e630bf40 <qos_init_m3n_v10+0x2a8>
e630bdcc:	e5032fff 	str	r2, [r3, #-4095]	; 0xfffff001
e630bdd0:	e59f216c 	ldr	r2, [pc, #364]	; e630bf44 <qos_init_m3n_v10+0x2ac>
e630bdd4:	e1c203f0 	strd	r0, [r2, #48]	; 0x30
e630bdd8:	e59f2168 	ldr	r2, [pc, #360]	; e630bf48 <qos_init_m3n_v10+0x2b0>
e630bddc:	e5032fc7 	str	r2, [r3, #-4039]	; 0xfffff039
e630bde0:	e3a0200a 	mov	r2, #10
e630bde4:	e5032fb7 	str	r2, [r3, #-4023]	; 0xfffff049
e630bde8:	e59f215c 	ldr	r2, [pc, #348]	; e630bf4c <qos_init_m3n_v10+0x2b4>
e630bdec:	e5032faf 	str	r2, [r3, #-4015]	; 0xfffff051
e630bdf0:	e3a02001 	mov	r2, #1
e630bdf4:	e5032f9f 	str	r2, [r3, #-3999]	; 0xfffff061
e630bdf8:	e59f2150 	ldr	r2, [pc, #336]	; e630bf50 <qos_init_m3n_v10+0x2b8>
e630bdfc:	e5032f7f 	str	r2, [r3, #-3967]	; 0xfffff081
e630be00:	e2433902 	sub	r3, r3, #32768	; 0x8000
e630be04:	e28227c1 	add	r2, r2, #50593792	; 0x3040000
e630be08:	e282207a 	add	r2, r2, #122	; 0x7a
e630be0c:	e5032fff 	str	r2, [r3, #-4095]	; 0xfffff001
e630be10:	e3a0271e 	mov	r2, #7864320	; 0x780000
e630be14:	e5032ffb 	str	r2, [r3, #-4091]	; 0xfffff005
e630be18:	e59f2134 	ldr	r2, [pc, #308]	; e630bf54 <qos_init_m3n_v10+0x2bc>
e630be1c:	e59f3134 	ldr	r3, [pc, #308]	; e630bf58 <qos_init_m3n_v10+0x2c0>
e630be20:	e0c200d8 	ldrd	r0, [r2], #8
e630be24:	e283ea01 	add	lr, r3, #4096	; 0x1000
e630be28:	e1c300f0 	strd	r0, [r3]
e630be2c:	e2833008 	add	r3, r3, #8
e630be30:	e1ce00f0 	strd	r0, [lr]
e630be34:	e153000c 	cmp	r3, ip
e630be38:	1afffff8 	bne	e630be20 <qos_init_m3n_v10+0x188>
e630be3c:	e59f2118 	ldr	r2, [pc, #280]	; e630bf5c <qos_init_m3n_v10+0x2c4>
e630be40:	e59f3118 	ldr	r3, [pc, #280]	; e630bf60 <qos_init_m3n_v10+0x2c8>
e630be44:	e59fc118 	ldr	ip, [pc, #280]	; e630bf64 <qos_init_m3n_v10+0x2cc>
e630be48:	e0c200d8 	ldrd	r0, [r2], #8
e630be4c:	e283ea01 	add	lr, r3, #4096	; 0x1000
e630be50:	e1c300f0 	strd	r0, [r3]
e630be54:	e2833008 	add	r3, r3, #8
e630be58:	e1ce00f0 	strd	r0, [lr]
e630be5c:	e153000c 	cmp	r3, ip
e630be60:	1afffff8 	bne	e630be48 <qos_init_m3n_v10+0x1b0>
e630be64:	e59f20fc 	ldr	r2, [pc, #252]	; e630bf68 <qos_init_m3n_v10+0x2d0>
e630be68:	e59f30fc 	ldr	r3, [pc, #252]	; e630bf6c <qos_init_m3n_v10+0x2d4>
e630be6c:	e59fc0fc 	ldr	ip, [pc, #252]	; e630bf70 <qos_init_m3n_v10+0x2d8>
e630be70:	e0c200d8 	ldrd	r0, [r2], #8
e630be74:	e283ea01 	add	lr, r3, #4096	; 0x1000
e630be78:	e1c300f0 	strd	r0, [r3]
e630be7c:	e2833008 	add	r3, r3, #8
e630be80:	e1ce00f0 	strd	r0, [lr]
e630be84:	e153000c 	cmp	r3, ip
e630be88:	1afffff8 	bne	e630be70 <qos_init_m3n_v10+0x1d8>
e630be8c:	e59f20e0 	ldr	r2, [pc, #224]	; e630bf74 <qos_init_m3n_v10+0x2dc>
e630be90:	e59f30e0 	ldr	r3, [pc, #224]	; e630bf78 <qos_init_m3n_v10+0x2e0>
e630be94:	e59fc0e0 	ldr	ip, [pc, #224]	; e630bf7c <qos_init_m3n_v10+0x2e4>
e630be98:	e0c200d8 	ldrd	r0, [r2], #8
e630be9c:	e283ea01 	add	lr, r3, #4096	; 0x1000
e630bea0:	e1c300f0 	strd	r0, [r3]
e630bea4:	e2833008 	add	r3, r3, #8
e630bea8:	e1ce00f0 	strd	r0, [lr]
e630beac:	e153000c 	cmp	r3, ip
e630beb0:	1afffff8 	bne	e630be98 <qos_init_m3n_v10+0x200>
e630beb4:	e59f20c4 	ldr	r2, [pc, #196]	; e630bf80 <qos_init_m3n_v10+0x2e8>
e630beb8:	e3a03000 	mov	r3, #0
e630bebc:	e59f10c0 	ldr	r1, [pc, #192]	; e630bf84 <qos_init_m3n_v10+0x2ec>
e630bec0:	e50237ff 	str	r3, [r2, #-2047]	; 0xfffff801
e630bec4:	e5823801 	str	r3, [r2, #2049]	; 0x801
e630bec8:	e3a03003 	mov	r3, #3
e630becc:	e59f20b4 	ldr	r2, [pc, #180]	; e630bf88 <qos_init_m3n_v10+0x2f0>
e630bed0:	e5823800 	str	r3, [r2, #2048]	; 0x800
e630bed4:	e2822701 	add	r2, r2, #262144	; 0x40000
e630bed8:	e5823800 	str	r3, [r2, #2048]	; 0x800
e630bedc:	e3a02001 	mov	r2, #1
e630bee0:	e59f3054 	ldr	r3, [pc, #84]	; e630bf3c <qos_init_m3n_v10+0x2a4>
e630bee4:	e5032fe7 	str	r2, [r3, #-4071]	; 0xfffff019
e630bee8:	e2433902 	sub	r3, r3, #32768	; 0x8000
e630beec:	e5031fcb 	str	r1, [r3, #-4043]	; 0xfffff035
e630bef0:	e59f1094 	ldr	r1, [pc, #148]	; e630bf8c <qos_init_m3n_v10+0x2f4>
e630bef4:	e5031fc7 	str	r1, [r3, #-4039]	; 0xfffff039
e630bef8:	e5031fc3 	str	r1, [r3, #-4035]	; 0xfffff03d
e630befc:	e5032fcf 	str	r2, [r3, #-4047]	; 0xfffff031
e630bf00:	e5032ff7 	str	r2, [r3, #-4087]	; 0xfffff009
e630bf04:	e8bd8010 	pop	{r4, pc}
e630bf08:	02020201 	.word	0x02020201
e630bf0c:	04020000 	.word	0x04020000
e630bf10:	e6790000 	.word	0xe6790000
e630bf14:	00043218 	.word	0x00043218
e630bf18:	012f1123 	.word	0x012f1123
e630bf1c:	e6791fff 	.word	0xe6791fff
e630bf20:	000f0037 	.word	0x000f0037
e630bf24:	e6160000 	.word	0xe6160000
e630bf28:	e6316da0 	.word	0xe6316da0
e630bf2c:	e6316dc1 	.word	0xe6316dc1
e630bf30:	e6316dca 	.word	0xe6316dca
e630bf34:	e6316df4 	.word	0xe6316df4
e630bf38:	e6316e23 	.word	0xe6316e23
e630bf3c:	e67f0fff 	.word	0xe67f0fff
e630bf40:	e67e0398 	.word	0xe67e0398
e630bf44:	e67f0000 	.word	0xe67f0000
e630bf48:	00100804 	.word	0x00100804
e630bf4c:	06330001 	.word	0x06330001
e630bf50:	00010003 	.word	0x00010003
e630bf54:	e6316a08 	.word	0xe6316a08
e630bf58:	e67e0000 	.word	0xe67e0000
e630bf5c:	e6316670 	.word	0xe6316670
e630bf60:	e67e2000 	.word	0xe67e2000
e630bf64:	e67e2398 	.word	0xe67e2398
e630bf68:	e63171e8 	.word	0xe63171e8
e630bf6c:	e67e0800 	.word	0xe67e0800
e630bf70:	e67e0b98 	.word	0xe67e0b98
e630bf74:	e6316e50 	.word	0xe6316e50
e630bf78:	e67e2800 	.word	0xe67e2800
e630bf7c:	e67e2b98 	.word	0xe67e2b98
e630bf80:	ffc50fff 	.word	0xffc50fff
e630bf84:	02080208 	.word	0x02080208
e630bf88:	f1300000 	.word	0xf1300000
e630bf8c:	2955040b 	.word	0x2955040b

e630bf90 <qos_init>:
e630bf90:	e92d4070 	push	{r4, r5, r6, lr}
e630bf94:	e59f5074 	ldr	r5, [pc, #116]	; e630c010 <qos_init+0x80>
e630bf98:	e3a04000 	mov	r4, #0
e630bf9c:	e5854000 	str	r4, [r5]
e630bfa0:	ebffff33 	bl	e630bc74 <get_boardcnf_phyvalid>
e630bfa4:	e59f3068 	ldr	r3, [pc, #104]	; e630c014 <qos_init+0x84>
e630bfa8:	e1a02004 	mov	r2, r4
e630bfac:	e5951000 	ldr	r1, [r5]
e630bfb0:	e5c30000 	strb	r0, [r3]
e630bfb4:	e1a03004 	mov	r3, r4
e630bfb8:	e1a0c250 	asr	ip, r0, r2
e630bfbc:	e31c0001 	tst	ip, #1
e630bfc0:	e2822001 	add	r2, r2, #1
e630bfc4:	13a03001 	movne	r3, #1
e630bfc8:	12811001 	addne	r1, r1, #1
e630bfcc:	e3520004 	cmp	r2, #4
e630bfd0:	1afffff8 	bne	e630bfb8 <qos_init+0x28>
e630bfd4:	e3530000 	cmp	r3, #0
e630bfd8:	e3e03aff 	mvn	r3, #1044480	; 0xff000
e630bfdc:	15851000 	strne	r1, [r5]
e630bfe0:	e5131fbb 	ldr	r1, [r3, #-4027]	; 0xfffff045
e630bfe4:	e2013c7f 	and	r3, r1, #32512	; 0x7f00
e630bfe8:	e3530c52 	cmp	r3, #20992	; 0x5200
e630bfec:	0a000004 	beq	e630c004 <qos_init+0x74>
e630bff0:	9a000003 	bls	e630c004 <qos_init+0x74>
e630bff4:	e3530c55 	cmp	r3, #21760	; 0x5500
e630bff8:	1a000001 	bne	e630c004 <qos_init+0x74>
e630bffc:	e8bd4070 	pop	{r4, r5, r6, lr}
e630c000:	eaffff24 	b	e630bc98 <qos_init_m3n_v10>
e630c004:	e59f000c 	ldr	r0, [pc, #12]	; e630c018 <qos_init+0x88>
e630c008:	eb000014 	bl	e630c060 <__tf_printf_veneer>
e630c00c:	eb000021 	bl	e630c098 <__do_panic_veneer>
e630c010:	eb02401c 	.word	0xeb02401c
e630c014:	eb024020 	.word	0xeb024020
e630c018:	e6317580 	.word	0xe6317580

e630c01c <get_refperiod>:
e630c01c:	e3000762 	movw	r0, #1890	; 0x762
e630c020:	e3e03aff 	mvn	r3, #1044480	; 0xff000
e630c024:	e5133fbb 	ldr	r3, [r3, #-4027]	; 0xfffff045
e630c028:	e12fff1e 	bx	lr
e630c02c:	00000000 	andeq	r0, r0, r0

e630c030 <__aif_enable_a_veneer>:
e630c030:	e51ff004 	ldr	pc, [pc, #-4]	; e630c034 <__aif_enable_a_veneer+0x4>
e630c034:	eb0005dc 	.word	0xeb0005dc

e630c038 <__swdt_init_veneer>:
e630c038:	e51ff004 	ldr	pc, [pc, #-4]	; e630c03c <__swdt_init_veneer+0x4>
e630c03c:	eb000c50 	.word	0xeb000c50

e630c040 <__aif_enable_i_veneer>:
e630c040:	e51ff004 	ldr	pc, [pc, #-4]	; e630c044 <__aif_enable_i_veneer+0x4>
e630c044:	eb0005cc 	.word	0xeb0005cc

e630c048 <__micro_wait_veneer>:
e630c048:	e51ff004 	ldr	pc, [pc, #-4]	; e630c04c <__micro_wait_veneer+0x4>
e630c04c:	eb000b8c 	.word	0xeb000b8c

e630c050 <__arm_gic_init_veneer>:
e630c050:	e51ff004 	ldr	pc, [pc, #-4]	; e630c054 <__arm_gic_init_veneer+0x4>
e630c054:	eb0006d4 	.word	0xeb0006d4

e630c058 <__ROM_GetLcs_veneer>:
e630c058:	e51ff004 	ldr	pc, [pc, #-4]	; e630c05c <__ROM_GetLcs_veneer+0x4>
e630c05c:	eb000c1c 	.word	0xeb000c1c

e630c060 <__tf_printf_veneer>:
e630c060:	e51ff004 	ldr	pc, [pc, #-4]	; e630c064 <__tf_printf_veneer+0x4>
e630c064:	eb001120 	.word	0xeb001120

e630c068 <____aeabi_idiv_veneer>:
e630c068:	e51ff004 	ldr	pc, [pc, #-4]	; e630c06c <____aeabi_idiv_veneer+0x4>
e630c06c:	eb001768 	.word	0xeb001768

e630c070 <__sprintf_veneer>:
e630c070:	e51ff004 	ldr	pc, [pc, #-4]	; e630c074 <__sprintf_veneer+0x4>
e630c074:	eb001248 	.word	0xeb001248

e630c078 <__cpg_init_veneer>:
e630c078:	e51ff004 	ldr	pc, [pc, #-4]	; e630c07c <__cpg_init_veneer+0x4>
e630c07c:	eb001634 	.word	0xeb001634

e630c080 <__arm_gic_setup_veneer>:
e630c080:	e51ff004 	ldr	pc, [pc, #-4]	; e630c084 <__arm_gic_setup_veneer+0x4>
e630c084:	eb000708 	.word	0xeb000708

e630c088 <____aeabi_uidiv_veneer>:
e630c088:	e51ff004 	ldr	pc, [pc, #-4]	; e630c08c <____aeabi_uidiv_veneer+0x4>
e630c08c:	eb001764 	.word	0xeb001764

e630c090 <__console_init_veneer>:
e630c090:	e51ff004 	ldr	pc, [pc, #-4]	; e630c094 <__console_init_veneer+0x4>
e630c094:	eb00047c 	.word	0xeb00047c

e630c098 <__do_panic_veneer>:
e630c098:	e51ff004 	ldr	pc, [pc, #-4]	; e630c09c <__do_panic_veneer+0x4>
e630c09c:	eb000050 	.word	0xeb000050

e630c0a0 <CSWTCH.3>:
e630c0a0:	e630c2dc e630c0e8 e630c2ef e630c0e8     ..0...0...0...0.
e630c0b0:	e630c301 e630c0e8 e630c0e8 e630c0e8     ..0...0...0...0.
e630c0c0:	e630c313                                ..0.

e630c0c4 <CSWTCH.4>:
e630c0c4:	e630c2cd e630c2d0 e630c0e8 e630c2d3     ..0...0...0...0.
e630c0d4:	e630c0e8 e630c2d6 e630c0e8 e630c2d9     ..0...0...0...0.

e630c0e4 <irq_sec_array.3954>:
e630c0e4:	000000ad 6e6b6e75 006e776f 45003348     ....unknown.H3.E
e630c0f4:	334d0033 4c4c5000 53532031 43204743     3.M3.PLL1 SSCG C
e630c104:	6b636f6c 6c657320 00746365 314c4c50     lock select.PLL1
e630c114:	6e6f6e20 47435353 6f6c4320 73206b63      nonSSCG Clock s
e630c124:	63656c65 2d520074 20726143 004e334d     elect.R-Car M3N.
e630c134:	49207325 6974696e 50206c61 72676f72     %s Initial Progr
e630c144:	4c206d61 6564616f 52432872 000a2937     am Loader(CR7)..
e630c154:	49544f4e 203a4543 00732520 74696e49     NOTICE:  %s.Init
e630c164:	206c6169 676f7250 206d6172 64616f4c     ial Program Load
e630c174:	28207265 2e766552 0a297325 544f4e00     er (Rev.%s)..NOT
e630c184:	3a454349 73252020 5250000a 73692052     ICE:  %s..PRR is
e630c194:	432d5220 25207261 65562073 2e312e72      R-Car %s Ver.1.
e630c1a4:	202f2031 2e726556 0a322e31 52525000     1 / Ver.1.2..PRR
e630c1b4:	20736920 61432d52 73252072 72655620      is R-Car %s Ver
e630c1c4:	252e312e 50000a64 69205252 2d522073     .1.%d..PRR is R-
e630c1d4:	20726143 56207325 252e7265 64252e64     Car %s Ver.%d.%d
e630c1e4:	5245000a 3a524f52 54202020 20736968     ..ERROR:   This 
e630c1f4:	204c5049 20736168 6e656562 69756220     IPL has been bui
e630c204:	6620746c 7420726f 25206568 000a2e73     lt for the %s...
e630c214:	4f525245 20203a52 656c5020 20657361     ERROR:   Please 
e630c224:	74697277 68742065 6f632065 63657272     write the correc
e630c234:	50492074 6f74204c 616c6620 6d206873     t IPL to flash m
e630c244:	726f6d65 000a2e79 746f6f42 76656420     emory...Boot dev
e630c254:	20656369 25207369 4e000a73 4349544f     ice is %s..NOTIC
e630c264:	20203a45 204d434c 74617473 73692065     E:  LCM state is
e630c274:	0a732520 544f4e00 3a454349 78302020      %s..NOTICE:  0x
e630c284:	30303034 30303030 202d2030 37347830     400000000 - 0x47
e630c294:	66666666 2c666666 47203220 000a4269     fffffff, 2 GiB..
e630c2a4:	4f525245 20203a52 69614620 2064656c     ERROR:   Failed 
e630c2b4:	44206f74 204d4152 74696e69 696c6169     to DRAM initiali
e630c2c4:	2820657a 0a296425 004d4300 53004d44     ze (%d)..CM.DM.S
e630c2d4:	45530044 00414600 65707948 616c4672     D.SE.FA.HyperFla
e630c2e4:	31286873 484d3036 4800297a 72657079     sh(160MHz).Hyper
e630c2f4:	73616c46 30382868 297a484d 50535100     Flash(80MHz).QSP
e630c304:	6c462049 28687361 484d3034 5100297a     I Flash(40MHz).Q
e630c314:	20495053 73616c46 30382868 297a484d     SPI Flash(80MHz)
e630c324:	52524500 203a524f 534c2020 72502049     .ERROR:   LSI Pr
e630c334:	6375646f 44492074 52525028 2578303d     oduct ID(PRR=0x%
e630c344:	50202978 69204346 6974696e 7a696c61     x) PFC initializ
e630c354:	6f6e2065 75732074 726f7070 2e646574     e not supported.
e630c364:	0000000a 00000194 00000195 0000019f     ................

e630c374 <DDR_PHY_ADR_G_REGSET_H3>:
e630c374:	00000001 00000000 00000005 04000f00     ................
e630c384:	00020080 00020055 00000000 00000000     ....U...........
e630c394:	00000000 00000050 00000000 01010100     ....P...........
e630c3a4:	00000200 00001102 00000000 000f1f00     ................
e630c3b4:	0f1f0f1f 0f1f0f1f 00020003 02000200     ................
e630c3c4:	00000200 00001102 00000064 00000000     ........d.......
e630c3d4:	00000000 00000502 027f6e00 007f007f     .........n......
e630c3e4:	00007f3c 00047f6e 0003154f 0001154f     <...n...O...O...
e630c3f4:	0001154f 0001154f 0001154f 00003fee     O...O...O....?..
e630c404:	0001154f 00003fee 0001154f 00007f3c     O....?..O...<...
e630c414:	0001154f 00000000 00000000 00000000     O...............
e630c424:	65000000 00000000 00000000 00000201     ...e............
	...

e630c460 <DDR_PHY_ADR_G_REGSET_H3VER2>:
e630c460:	00000000 00000100 00000000 00050000     ................
e630c470:	0f000000 00800400 00020032 00020055     ........2...U...
	...
e630c48c:	00000050 00000000 01010100 01000200     P...............
e630c49c:	00000000 00010100 00000000 00000000     ................
	...
e630c4b4:	00005064 01421142 00000142 00000000     dP..B.B.B.......
e630c4c4:	000f1100 0f110f11 09000f11 00000003     ................
e630c4d4:	0002c000 02c002c0 000002c0 03421342     ............B.B.
e630c4e4:	00000342 00000000 00000000 05020000     B...............
e630c4f4:	14000000 027f6e00 047f027f 00027f6e     .....n......n...
e630c504:	00047f6e 0003554f 0001554f 0001554f     n...OU..OU..OU..
e630c514:	0001554f 0001554f 00003fee 0001554f     OU..OU...?..OU..
e630c524:	00003fee 0001554f 00027f6e 0001554f     .?..OU..n...OU..
e630c534:	00004011 00004410 00000000 00000000     .@...D..........
e630c544:	00000000 00000065 00000000 00020201     ....e...........
e630c554:	00000000 03000000 00000008 00000000     ................
	...
e630c570:	00000001 00000000 00000000 00000000     ................
e630c580:	000000e4 00010198 00000000 00000000     ................
e630c590:	07010000 00000104 00000000              ............

e630c59c <DDR_PHY_ADR_G_REGSET_M3>:
e630c59c:	00000001 00000000 00000005 04000f00     ................
e630c5ac:	00020080 00020055 00000000 00000000     ....U...........
e630c5bc:	00000000 00000050 00000000 01010100     ....P...........
e630c5cc:	00000600 50640000 01421142 00000142     ......dPB.B.B...
e630c5dc:	00000000 000f1600 0f160f16 0f160f16     ................
e630c5ec:	00000003 0002c000 02c002c0 000002c0     ................
e630c5fc:	03421342 00000342 00000000 00000000     B.B.B...........
e630c60c:	05020000 00000000 00027f6e 047f027f     ........n.......
e630c61c:	00027f6e 00047f6e 0003554f 0001554f     n...n...OU..OU..
e630c62c:	0001554f 0001554f 0001554f 00003fee     OU..OU..OU...?..
e630c63c:	0001554f 00003fee 0001554f 00027f6e     OU...?..OU..n...
e630c64c:	0001554f 00000000 00000000 00000000     OU..............
e630c65c:	65000000 00000000 00000000 00000201     ...e............
	...
e630c68c:	06e40000 00000000 00000000 00010000     ................

e630c69c <DDR_PHY_ADR_G_REGSET_M3N>:
e630c69c:	00000000 00000100 00000000 00050000     ................
e630c6ac:	00000000 0004000f 00280080 02005502     ..........(..U..
	...
e630c6c8:	00000050 00000000 01010100 00010000     P...............
e630c6d8:	00000000 00000101 00000000 00000000     ................
	...
e630c6f0:	00005064 01421142 00000142 00000000     dP..B.B.B.......
e630c700:	000f1600 0f160f16 0f160f16 00000003     ................
e630c710:	0002c000 02c002c0 000002c0 08040201     ................
e630c720:	03421342 00000342 00000000 00000000     B.B.B...........
e630c730:	05030000 00010700 00000014 00027f6e     ............n...
e630c740:	047f027f 00027f6e 00047f6e 0003554f     ....n...n...OU..
e630c750:	0001554f 0001554f 0001554f 0001554f     OU..OU..OU..OU..
e630c760:	00003fee 0001554f 00003fee 0001554f     .?..OU...?..OU..
e630c770:	00027f6e 0001554f 00004011 00004410     n...OU...@...D..
	...
e630c78c:	00000265 00000000 00040401 00000000     e...............
e630c79c:	03000000 00000020 00000000 00000000     .... ...........
e630c7ac:	04102006 00041020 01c98c98 00400000     . .. .........@.
e630c7bc:	00000000 0001ffff 00000000 00000000     ................
e630c7cc:	00000001 00000000 00000000 00000000     ................
e630c7dc:	76543210 06010198 00000000 00000000     .2Tv............
e630c7ec:	04070000 00000001 00000f00              ............

e630c7f8 <DDR_PHY_ADR_I_REGSET_H3>:
e630c7f8:	04040404 00000404 00000000 00000000     ................
	...
e630c810:	00000002 00000000 00000000 00000000     ................
e630c820:	00400320 00000040 00000000 00000000      .@.@...........
e630c830:	00000000 01000000 00020003 00000000     ................
	...
e630c848:	00002a01 00000015 00000015 0000002a     .*..........*...
e630c858:	00000033 0000000c 0000000c 00000033     3...........3...
	...
e630c874:	0002006e 02000200 02000200 00000200     n...............
e630c884:	42080010 00000003                       ...B....

e630c88c <DDR_PHY_ADR_I_REGSET_M3>:
e630c88c:	04040404 00000404 00000000 00000000     ................
	...
e630c8a4:	00000002 00000000 00000000 00000000     ................
e630c8b4:	00400320 00000040 00000000 00000000      .@.@...........
e630c8c4:	00000000 01000000 00020003 00000000     ................
	...
e630c8dc:	0000002a 00000015 00000015 0000002a     *...........*...
e630c8ec:	00000033 0000000c 0000000c 00000033     3...........3...
	...
e630c908:	0002c06e 02c002c0 02c002c0 000002c0     n...............
e630c918:	42080010 00000003                       ...B....

e630c920 <DDR_PHY_ADR_I_REGSET_M3N>:
	...
e630c93c:	01000000 00020000 00000000 00000000     ................
e630c94c:	00000000 00400000 00000080 00000000     ......@.........
e630c95c:	03000000 00000200 00000000 00000000     ................
e630c96c:	00000000 0000002a 00000015 00000015     ....*...........
e630c97c:	0000002a 00000033 0000000c 0000000c     *...3...........
e630c98c:	00000033 00000000 00000000 00000000     3...............
e630c99c:	0002c06e 02c002c0 02c002c0 000002c0     n...............
e630c9ac:	42080010 0000033e                       ...B>...

e630c9b4 <DDR_PHY_ADR_V_REGSET_H3>:
	...
e630c9cc:	00000002 00000000 00000000 00000000     ................
e630c9dc:	00400320 00000040 00dcba98 00000000      .@.@...........
e630c9ec:	00dcba98 01000000 00020003 00000000     ................
	...
e630ca04:	00002a01 00000015 00000015 0000002a     .*..........*...
e630ca14:	00000033 0000000c 0000000c 00000033     3...........3...
e630ca24:	00418820 003f0000 0000003f 0002006e      .A...?.?...n...
e630ca34:	02000200 02000200 00000200 42080010     ...............B
e630ca44:	00000003                                ....

e630ca48 <DDR_PHY_ADR_V_REGSET_H3VER2>:
	...
e630ca64:	00010000 00000200 00000000 00000000     ................
e630ca74:	00000000 00400320 00000040 00dcba98     .... .@.@.......
e630ca84:	03000000 00000200 00000000 00000000     ................
e630ca94:	00000000 0000002a 00000015 00000015     ....*...........
e630caa4:	0000002a 00000033 0000000c 0000000c     *...3...........
e630cab4:	00000033 00418820 003f0000 0000003f     3... .A...?.?...
e630cac4:	0002c06e 02c002c0 02c002c0 000002c0     n...............
e630cad4:	42080010 0000033e                       ...B>...

e630cadc <DDR_PHY_ADR_V_REGSET_M3>:
	...
e630caf4:	00000002 00000000 00000000 00000000     ................
e630cb04:	00400320 00000040 00dcba98 00000000      .@.@...........
e630cb14:	00dcba98 01000000 00020003 00000000     ................
	...
e630cb2c:	0000002a 00000015 00000015 0000002a     *...........*...
e630cb3c:	00000033 0000000c 0000000c 00000033     3...........3...
e630cb4c:	0a418820 003f0000 0000003f 0002c06e      .A...?.?...n...
e630cb5c:	02c002c0 02c002c0 000002c0 42080010     ...............B
e630cb6c:	00000003                                ....

e630cb70 <DDR_PHY_ADR_V_REGSET_M3N>:
	...
e630cb8c:	01000000 00020000 00000000 00000000     ................
e630cb9c:	00000000 00400000 00000080 00dcba98     ......@.........
e630cbac:	03000000 00000200 00000000 00000000     ................
e630cbbc:	00000000 0000002a 00000015 00000015     ....*...........
e630cbcc:	0000002a 00000033 0000000c 0000000c     *...3...........
e630cbdc:	00000033 0a418820 003f0000 0000013f     3... .A...?.?...
e630cbec:	0002c06e 02c002c0 02c002c0 000002c0     n...............
e630cbfc:	42080010 0000033e                       ...B>...

e630cc04 <DDR_PHY_SLICE_REGSET_H3>:
e630cc04:	000004f0 00000000 00000000 00000100     ................
e630cc14:	01003c0c 02003c0c 00010300 04000100     .<...<..........
e630cc24:	00000300 000700c0 00b00201 00000020     ............ ...
	...
e630cc50:	09000000 04080000 04080400 00000000     ................
e630cc60:	32103210 00800708 000f000c 00000100     .2.2............
e630cc70:	55aa55aa 33cc33cc 0ff00ff0 0f0ff0f0     .U.U.3.3........
e630cc80:	00008e38 76543210 00000001 00000000     8....2Tv........
	...
e630ccd0:	00200000 08200820 08200820 08200820     .. . . . . . . .
e630cce0:	08200820 08200820 00000820 03000300      . . . . .......
e630ccf0:	03000300 03000300 03000300 00000300     ................
	...
e630cd10:	00a000a0 00a000a0 00a000a0 00a000a0     ................
e630cd20:	00a000a0 00a000a0 00a000a0 00a000a0     ................
e630cd30:	00a000a0 01040109 00000200 01000000     ................
e630cd40:	00000200 4041a151 c00141a0 0e0100c0     ....Q.A@.A......
e630cd50:	0010000c 0c064208 000f0c18 00e00140     .....B......@...
e630cd60:	00000c20                                 ...

e630cd64 <DDR_PHY_SLICE_REGSET_H3VER2>:
e630cd64:	76543210 0004f008 00020133 00000000     .2Tv....3.......
e630cd74:	00000000 00010000 016e6e0e 026e6e0e     .........nn..nn.
e630cd84:	00010300 04000100 01000000 00000000     ................
e630cd94:	00000000 00000100 001700c0 020100b0     ................
e630cda4:	00030020 00000000 00000000 00000000      ...............
	...
e630cdc4:	09000000 04080000 04080400 08000000     ................
e630cdd4:	0c008007 00000f00 00000100 55aa55aa     .............U.U
e630cde4:	33cc33cc 0ff00ff0 0f0ff0f0 00018e38     .3.3........8...
	...
e630ce44:	00000104 00082020 08200820 08200820     ....  .. . . . .
e630ce54:	08200820 08200820 08200820 00000000      . . . . . .....
e630ce64:	00000000 03000300 03000300 03000300     ................
e630ce74:	03000300 00000300 00000000 00000000     ................
	...
e630ce90:	00a000a0 00a000a0 00a000a0 00a000a0     ................
e630cea0:	00a000a0 00a000a0 00a000a0 00a000a0     ................
e630ceb0:	00a000a0 01040109 00000200 01000000     ................
e630cec0:	00000200 00000004 4041a151 c00141a0     ........Q.A@.A..
e630ced0:	0e0000c0 0010000c 063e4208 0f0c180c     .........B>.....
e630cee0:	00e00140 00000c20                       @... ...

e630cee8 <DDR_PHY_SLICE_REGSET_M3>:
e630cee8:	76543210 0004f008 00000000 00000000     .2Tv............
e630cef8:	00010000 036e6e0e 026e6e0e 00010300     .....nn..nn.....
e630cf08:	04000100 00000300 001700c0 00b00201     ................
e630cf18:	00030020 00000000 00000000 00000000      ...............
	...
e630cf38:	09000000 04080000 04080400 00000000     ................
e630cf48:	32103210 00800708 000f000c 00000100     .2.2............
e630cf58:	55aa55aa 33cc33cc 0ff00ff0 0f0ff0f0     .U.U.3.3........
e630cf68:	00018e38 00000000 00000000 00000000     8...............
	...
e630cfb4:	00200000 08200820 08200820 08200820     .. . . . . . . .
e630cfc4:	08200820 08200820 00000820 03000300      . . . . .......
e630cfd4:	03000300 03000300 03000300 00000300     ................
	...
e630cff4:	00a00000 00a000a0 00a000a0 00a000a0     ................
e630d004:	00a000a0 00a000a0 00a000a0 00a000a0     ................
e630d014:	00a000a0 010900a0 02000104 00000000     ................
e630d024:	00010000 00000200 4041a151 c00141a0     ........Q.A@.A..
e630d034:	0e0100c0 0010000c 0c064208 000f0c18     .........B......
e630d044:	00e00140 00000c20                       @... ...

e630d04c <DDR_PHY_SLICE_REGSET_M3N>:
e630d04c:	76543210 0004f008 00020200 00000000     .2Tv............
e630d05c:	00000000 00010000 036e6e0e 026e6e0e     .........nn..nn.
e630d06c:	00000103 00040001 00000103 00000001     ................
	...
e630d084:	00000100 001800c0 020100b0 00030020     ............ ...
	...
e630d09c:	0000aaaa 00005555 0000b5b5 00004a4a     ....UU......JJ..
e630d0ac:	00000000 09000000 04080000 08040000     ................
e630d0bc:	00000004 00800710 000f000c 00000100     ................
e630d0cc:	55aa55aa 33cc33cc 0ff00ff0 0f0ff0f0     .U.U.3.3........
e630d0dc:	00018e38 00000000 00000000 00000000     8...............
	...
e630d134:	00000104 00082020 08200820 08200820     ....  .. . . . .
e630d144:	08200820 08200820 08200820 00000000      . . . . . .....
e630d154:	00000000 03000300 03000300 03000300     ................
e630d164:	03000300 00000300 00000000 00000000     ................
	...
e630d180:	00a000a0 00a000a0 00a000a0 00a000a0     ................
e630d190:	00a000a0 00a000a0 00a000a0 00a000a0     ................
e630d1a0:	00a000a0 01040119 00000200 01000000     ................
e630d1b0:	00000200 00000004 4041a151 0141a0a0     ........Q.A@..A.
e630d1c0:	0000c0c0 0e0c000e 10001000 0c073e42     ............B>..
e630d1d0:	000f0c28 00e00140 000c0020 00000203     (...@... .......

e630d1e0 <DDR_PI_REGSET_H3>:
e630d1e0:	00000b00 00000100 00000000 0000ffff     ................
e630d1f0:	00000000 0000ffff 00000000 304cffff     ..............L0
e630d200:	00000200 00000200 00000200 00000200     ................
e630d210:	0000304c 00000200 00000200 00000200     L0..............
e630d220:	00000200 0000304c 00000200 00000200     ....L0..........
e630d230:	00000200 00000200 00010000 00000003     ................
e630d240:	01000001 00000000 00000000 00000000     ................
	...
e630d284:	0f000101 08492d25 500e0c04 0002500e     ....%-I....P.P..
e630d294:	00460003 182600cf 182600cf 00000005     ..F...&...&.....
	...
e630d2c0:	01000000 00040404 01280a00 00000000     ..........(.....
e630d2d0:	000f0000 00001803 00000000 00000000     ................
e630d2e0:	00060002 00010001 01000101 04020201     ................
e630d2f0:	00080804 00000000 08030000 15150408     ................
	...
e630d30c:	001e0f0f 00000000 01000300 00000000     ................
e630d31c:	00000000 01000000 00010101 000e0e0e     ................
e630d32c:	000c0c0c 02060601 00000000 00000003     ................
e630d33c:	00181703 00280006 00280016 00000016     ......(...(.....
	...
e630d358:	140a0000 0005010a 03018d03 000a018d     ................
e630d368:	00060100 01000006 018e018e 018e0100     ................
e630d378:	1111018e 10010204 09090650 20110202     ........P...... 
e630d388:	00201000 00201000 04041000 18020100     .. ... .........
e630d398:	00010118 004b004a 050f0000 0c01021e     ....J.K.........
e630d3a8:	34000000 00000000 00000000 00000000     ...4............
e630d3b8:	312ed400 d4111132 1132312e 312ed411     ...12....12....1
e630d3c8:	00111132 32312ed4 2ed41111 11113231     2.....12....12..
e630d3d8:	32312ed4 d4001111 1132312e 312ed411     ..12.....12....1
e630d3e8:	d4111132 1132312e 2ed40011 11113231     2....12.....12..
e630d3f8:	32312ed4 2ed41111 11113231 00020000     ..12....12......
e630d408:	018d018d 0c08018d 1f121d22 4301b344     ........"...D..C
e630d418:	10172006 121d220c 01b3441f 17200643     . ..."...D..C. .
e630d428:	1d220c10 00001f12 4301b344 10172006     ..".....D..C. ..
e630d438:	00020002 00020002 00020002 00020002     ................
e630d448:	00020002 00000000 00000000 00000000     ................
	...
e630d47c:	01000400 00304c00 0001e2f8 0000304c     .....L0.....L0..
e630d48c:	0001e2f8 0000304c 0001e2f8 08000000     ....L0..........
e630d49c:	00000100 00000000 00000000 00000000     ................
e630d4ac:	00000000 00000002                       ........

e630d4b4 <DDR_PI_REGSET_H3VER2>:
e630d4b4:	00000b00 00000100 00640000 00000000     ..........d.....
e630d4c4:	0000ffff 00000000 0000ffff 00000000     ................
e630d4d4:	0000ffff 0000304c 00000200 00000200     ....L0..........
e630d4e4:	00000200 00000200 0000304c 00000200     ........L0......
e630d4f4:	00000200 00000200 00000200 0000304c     ............L0..
e630d504:	00000200 00000200 00000200 00000200     ................
e630d514:	00010000 00000003 01000001 00000000     ................
	...
e630d560:	0f000101 08492d25 500e0c04 0002500e     ....%-I....P.P..
e630d570:	00000301 00000046 000000cf 00001826     ....F.......&...
e630d580:	000000cf 00001826 00000005 00000000     ....&...........
	...
e630d5ac:	04010000 00000404 0101280a 00000000     .........(......
e630d5bc:	00000000 0003000f 00000018 00000000     ................
e630d5cc:	00000000 00060002 00010001 01000101     ................
e630d5dc:	04020201 00080804 00000000 08030000     ................
e630d5ec:	15150408 00000000 00000000 00000000     ................
e630d5fc:	0f0f0000 0000001e 00000000 01000300     ................
e630d60c:	00000100 00000000 00000000 01000000     ................
e630d61c:	00000101 55555a5a 55555a5a 55555a5a     ....ZZUUZZUUZZUU
e630d62c:	55555a5a 0e0e0001 0c0c000e 0601000c     ZZUU............
e630d63c:	17170106 00020202 03000000 00000000     ................
e630d64c:	00181703 00280006 00280016 00000016     ......(...(.....
	...
e630d668:	0a000000 00010a14 00030005 0003018d     ................
e630d678:	000a018d 00060100 01000006 018e018e     ................
e630d688:	018e0100 1111018e 10010204 09090650     ............P...
e630d698:	ff110202 00ff1000 00ff1000 04041000     ................
e630d6a8:	18020100 01010018 004a004a 004b004a     ........J.J.J.K.
e630d6b8:	050f0000 0c01021e 34000000 00000000     ...........4....
	...
e630d6d4:	36312ed4 2ed41111 11113631 36312ed4     ..16....16....16
e630d6e4:	d4001111 1136312e 312ed411 d4111136     .....16....16...
e630d6f4:	1136312e 2ed40011 11113631 36312ed4     .16.....16....16
e630d704:	2ed41111 11113631 312ed400 d4111136     ....16.....16...
e630d714:	1136312e 312ed411 00111136 018d0200     .16....16.......
e630d724:	018d018d 1d220c08 00001f12 4301b344     ......".....D..C
e630d734:	10172006 121d220c 01b3441f 17200643     . ..."...D..C. .
e630d744:	1d220c10 00001f12 4301b344 10172006     ..".....D..C. ..
e630d754:	00020002 00020002 00020002 00020002     ................
e630d764:	00020002 00000000 00000000 00000000     ................
	...
e630d798:	00000400 05040302 01000f0e 07060504     ................
e630d7a8:	03020100 02010000 00000103 0000304c     ............L0..
e630d7b8:	0001e2f8 0000304c 0001e2f8 0000304c     ....L0......L0..
e630d7c8:	0001e2f8 08000000 00000100 00000000     ................
	...
e630d7e4:	00010000 00000000 00000000 00000000     ................
	...
e630d86c:	00000002 00000000 00000000 00000000     ................
	...

e630d888 <DDR_PI_REGSET_M3>:
e630d888:	00000b00 00000100 00000000 0000ffff     ................
e630d898:	00000000 0000ffff 00000000 304cffff     ..............L0
e630d8a8:	00000200 00000200 00000200 00000200     ................
e630d8b8:	0000304c 00000200 00000200 00000200     L0..............
e630d8c8:	00000200 0000304c 00000200 00000200     ....L0..........
e630d8d8:	00000200 00000200 00010000 00000003     ................
e630d8e8:	01000001 00000000 00000000 00000000     ................
	...
e630d92c:	0f000101 08492d25 0e0c0004 000e5000     ....%-I......P..
e630d93c:	00000250 00460003 182600cf 182600cf     P.....F...&...&.
e630d94c:	00000005 00000000 00000000 00000000     ................
	...
e630d96c:	01000000 00040404 01280a00 00000000     ..........(.....
e630d97c:	000f0000 00001803 00000000 00000000     ................
e630d98c:	00060002 00010001 01000101 04020201     ................
e630d99c:	00080804 00000000 08030000 15150408     ................
	...
e630d9b8:	000f0f00 0000001e 00000000 01000300     ................
	...
e630d9d0:	01000000 00010101 000e0e0e 000c0c0c     ................
e630d9e0:	02060601 00000000 00000003 00181703     ................
e630d9f0:	00280006 00280016 00000016 00000000     ..(...(.........
	...
e630da08:	140a0000 0005010a 03018d03 000a018d     ................
e630da18:	00060100 01000006 018e018e 018e0100     ................
e630da28:	1111018e 10010204 09090650 20110202     ........P...... 
e630da38:	00201000 00201000 04041000 18020100     .. ... .........
e630da48:	00010118 004b004a 050f0000 0c01021e     ....J.K.........
e630da58:	34000000 00000000 00000000 00000000     ...4............
e630da68:	0000d400 0031002e 00111136 002e00d4     ......1.6.......
e630da78:	11360031 0000d411 0031002e 00111136     1.6.......1.6...
e630da88:	002e00d4 11360031 0000d411 0031002e     ....1.6.......1.
e630da98:	00111136 002e00d4 11360031 00d40011     6.......1.6.....
e630daa8:	0031002e 00111136 002e00d4 11360031     ..1.6.......1.6.
e630dab8:	0000d411 0031002e 00111136 002e00d4     ......1.6.......
e630dac8:	11360031 0000d411 0031002e 00111136     1.6.......1.6...
e630dad8:	002e00d4 11360031 02000011 018d018d     ....1.6.........
e630dae8:	0c08018d 1f121d22 4301b344 10172006     ...."...D..C. ..
e630daf8:	1d220c10 00001f12 4301b344 10172006     ..".....D..C. ..
e630db08:	1d220c10 00001f12 4301b344 10172006     ..".....D..C. ..
e630db18:	02000210 02000200 02000200 02000200     ................
e630db28:	02000200 00000000 00000000 00000000     ................
	...
e630db5c:	00000400 15141312 11100f0e 080b0c0d     ................
e630db6c:	05040a09 01000706 00000302 01030201     ................
e630db7c:	00304c00 0001e2f8 0000304c 0001e2f8     .L0.....L0......
e630db8c:	0000304c 0001e2f8 08000000 00000100     L0..............
	...
e630dbac:	00000002                                ....

e630dbb0 <DDR_PI_REGSET_M3N>:
e630dbb0:	00000b00 00000101 01640000 00000014     ..........d.....
e630dbc0:	00000014 00000014 00000014 00000000     ................
e630dbd0:	00000000 0000ffff 00000000 0000ffff     ................
e630dbe0:	00000000 0000ffff 0000304c 00000200     ........L0......
e630dbf0:	00000200 00000200 00000200 0000304c     ............L0..
e630dc00:	00000200 00000200 00000200 00000200     ................
e630dc10:	0000304c 00000200 00000200 00000200     L0..............
e630dc20:	00000200 00010000 00000003 01000001     ................
	...
e630dc70:	0f000101 084d3129 0e0c0004 000e5000     ....)1M......P..
e630dc80:	01000250 00000003 00000046 000000cf     P.......F.......
e630dc90:	00001826 000000cf 00001826 00000000     &.......&.......
	...
e630dcc4:	01000000 00040404 01280a00 00000001     ..........(.....
e630dcd4:	00000000 03000f00 00200020 00000020     ........ . . ...
	...
e630dcec:	00010002 01010001 02010100 08040402     ................
e630dcfc:	00000008 00000000 04080803 00001515     ................
e630dd0c:	00000000 000000aa 00000055 000000b5     ........U.......
e630dd1c:	0000004a 00000056 000000a9 000000a9     J...V...........
e630dd2c:	000000b5 00000000 00000000 0f000000     ................
e630dd3c:	00001e0f 000007d0 01000300 00000100     ................
	...
e630dd54:	01000000 00010101 000e0e0e 000c0c0c     ................
e630dd64:	01060601 04041717 00000004 00000300     ................
e630dd74:	17030000 00060018 00160028 00160028     ........(...(...
	...
e630dd90:	0a000000 00010a14 00030005 0003018d     ................
e630dda0:	000a018d 00060100 01000006 018e018e     ................
e630ddb0:	018e0100 1e1a018e 1e1a1e1a 01010204     ................
e630ddc0:	06501001 090d0a07 090d0a07 0811180f     ..P.............
e630ddd0:	00ff1102 00ff1000 00ff1000 04041000     ................
e630dde0:	18020100 01010018 005f005f 005f005f     ........_._._._.
e630ddf0:	050f0000 051e051e 0c01021e 00000c0c     ................
e630de00:	00003400 00000000 00000000 00000000     .4..............
e630de10:	00000000 002e00d4 11360031 00d41611     ........1.6.....
e630de20:	0031002e 16111136 002e00d4 11360031     ..1.6.......1.6.
e630de30:	00001611 002e00d4 11360031 00d41611     ........1.6.....
e630de40:	0031002e 16111136 002e00d4 11360031     ..1.6.......1.6.
e630de50:	00001611 002e00d4 11360031 00d41611     ........1.6.....
e630de60:	0031002e 16111136 002e00d4 11360031     ..1.6.......1.6.
e630de70:	00001611 002e00d4 11360031 00d41611     ........1.6.....
e630de80:	0031002e 16111136 002e00d4 11360031     ..1.6.......1.6.
e630de90:	00001611 00018d00 018d018d 1d220c08     ..............".
e630dea0:	00001f12 4301b344 17032006 220c1010     ....D..C. ....."
e630deb0:	001f121d 4301b344 17062006 220c1010     ....D..C. ....."
e630dec0:	001f121d 4301b344 17182006 00021010     ....D..C. ......
e630ded0:	00020002 00020002 00020002 00020002     ................
e630dee0:	00000002 00000000 00000000 00000000     ................
	...
e630df14:	00000400 15141312 11100f0e 080b0c0d     ................
e630df24:	05040a09 01000706 00000302 01030201     ................
e630df34:	00304c08 0001e2f8 0000304c 0001e2f8     .L0.....L0......
e630df44:	0000304c 0001e2f8 08000000 00000100     L0..............
	...
e630df64:	00010000 00000000 00000000 00000000     ................
	...
e630dfec:	00050002 015c0057 01000100 01020001     ....W.\.........
e630dffc:	00010300 05000104 01060001 00010700     ................
	...
e630e014:	00000001 00000000 00000000 00000000     ................
e630e024:	20080101                                ... 

e630e028 <DDR_REGDEF_TBL>:
e630e028:	ffffffff ffffffff 000b0400 ffffffff     ................
e630e038:	ffffffff 10010400 18050400 00050401     ................
e630e048:	08050401 10050401 18050401 00050402     ................
e630e058:	08050402 10050402 18050402 00040403     ................
e630e068:	08030403 00180404 18030404 00180405     ................
e630e078:	18020405 00010406 08020406 10010406     ................
e630e088:	18010406 00020407 08040407 10040407     ................
e630e098:	18040407 000a0408 10040408 ffffffff     ................
e630e0a8:	ffffffff 18070408 ffffffff ffffffff     ................
e630e0b8:	ffffffff ffffffff ffffffff ffffffff     ................
e630e0c8:	000a0409 10040409 18010409 0001040a     ................
e630e0d8:	0802040a 1009040a 0009040b 1002040b     ................
e630e0e8:	0020040c ffffffff 0001040d ffffffff     .. .............
e630e0f8:	ffffffff ffffffff ffffffff 0020040e     .............. .
e630e108:	0020040f 00200410 00200411 00030412     .. ... ... .....
e630e118:	08010412 10030412 18030412 00040413     ................
e630e128:	08040413 10040413 18040413 00010414     ................
e630e138:	08010414 10060414 18040414 ffffffff     ................
e630e148:	00060415 08040415 10060415 18040415     ................
e630e158:	00020416 08050416 10080416 00200417     .............. .
e630e168:	00060418 08030418 100b0418 00040419     ................
e630e178:	08040419 10040419 ffffffff 18010419     ................
e630e188:	0009041a 0020041b 0020041c 0020041d     ...... ... ... .
e630e198:	0020041e 0010041f 00200420 00010421     .. ..... . .!...
e630e1a8:	08060421 10080421 00200422 ffffffff     !...!...". .....
e630e1b8:	000a0423 10060423 18070423 00080424     #...#...#...$...
e630e1c8:	08080424 100a0424 00070425 08080425     $...$...%...%...
e630e1d8:	10080425 18030425 000a0426 100a0426     %...%...&...&...
e630e1e8:	00110427 00090428 10090428 00100429     '...(...(...)...
e630e1f8:	100e0429 000e042a 100c042a 000a042b     )...*...*...+...
e630e208:	100a042b 0002042c 0020042d 000b042e     +...,...-. .....
e630e218:	100b042e 0020042f 00120430 00200431     ..../. .0...1. .
e630e228:	00200432 ffffffff ffffffff 00010433     2. .........3...
e630e238:	08010433 10080433 000c0434 100c0434     3...3...4...4...
e630e248:	000c0435 100c0435 000c0436 100c0436     5...5...6...6...
e630e258:	000c0437 100c0437 000c0438 100c0438     7...7...8...8...
e630e268:	000c0439 100b0439 ffffffff ffffffff     9...9...........
e630e278:	000b043a 100b043a 000b043b 100b043b     :...:...;...;...
e630e288:	000b043c 100b043c 000b043d 100b043d     <...<...=...=...
e630e298:	000b043e 100a043e ffffffff 000a043f     >...>.......?...
e630e2a8:	100a043f 000a0440 100a0440 000a0441     ?...@...@...A...
e630e2b8:	100a0441 000a0442 100a0442 ffffffff     A...B...B.......
e630e2c8:	000a0443 100a0443 000a0444 100a0444     C...C...D...D...
e630e2d8:	000a0445 100a0445 000a0446 100a0446     E...E...F...F...
e630e2e8:	000a0447 100a0447 000a0448 100a0448     G...G...H...H...
e630e2f8:	000a0449 100a0449 000a044a 100a044a     I...I...J...J...
e630e308:	000a044b 100a044b 000a044c 1004044c     K...K...L...L...
e630e318:	1803044c 000a044d 100a044d 0001044e     L...M...M...N...
e630e328:	080a044e 1804044e 000b044f 100a044f     N...N...O...O...
e630e338:	ffffffff 00080450 08080450 10080450     ....P...P...P...
e630e348:	18080450 00080451 ffffffff 08080451     P...Q.......Q...
e630e358:	10010451 18080451 00080452 08020452     Q...Q...R...R...
e630e368:	10020452 18040452 00040453 ffffffff     R...R...S.......
e630e378:	08040453 100a0453 00060454 08080454     S...S...T...T...
e630e388:	ffffffff 10040454 18040454 00050455     ....T...T...U...
e630e398:	08040455 10050455 000a0456 100a0456     U...U...V...V...
e630e3a8:	00080457 ffffffff 08040457 ffffffff     W.......W.......
e630e3b8:	ffffffff 00050600 08050600 10050600     ................
e630e3c8:	18050600 00050601 08050601 100b0601     ................
e630e3d8:	00010602 08030602 00200603 ffffffff     .......... .....
e630e3e8:	00030604 080a0604 ffffffff ffffffff     ................
e630e3f8:	18030604 00030605 08010605 10010605     ................
e630e408:	18060605 ffffffff ffffffff ffffffff     ................
e630e418:	00020606 08030606 10010606 000f0607     ................
e630e428:	00200608 00200609 000b060a 100b060a     .. ... .........
e630e438:	000b060b ffffffff ffffffff 0018060c     ................
e630e448:	0018060d 0018060e 0018060f 1804060f     ................
e630e458:	00050610 08020610 10040610 18040610     ................
e630e468:	00010611 08010611 10010611 18030611     ................
e630e478:	00200612 00200613 00010614 08140614     .. ... .........
e630e488:	00140615 00140616 00140617 00140618     ................
e630e498:	00140619 0014061a 0014061b 0018061c     ................
e630e4a8:	000a061d 1006061d 1806061d 0006061e     ................
e630e4b8:	ffffffff ffffffff 0008061f 080b061f     ................
e630e4c8:	000b0620 100b0620 000b0621 100b0621      ... ...!...!...
e630e4d8:	000b0622 10040622 000a0623 10060623     "..."...#...#...
e630e4e8:	18080623 ffffffff 00040624 ffffffff     #.......$.......
e630e4f8:	ffffffff 00010700 08020700 10050700     ................
e630e508:	18050700 00050701 08050701 100b0701     ................
e630e518:	00050702 08010702 10010702 ffffffff     ................
e630e528:	18010702 00010703 08040703 100b0703     ................
e630e538:	000b0704 ffffffff 10040704 000b0705     ................
e630e548:	10040705 18010705 00010706 08010706     ................
e630e558:	00200707 00200708 00080709 080a0709     .. ... .........
e630e568:	18050709 000a070a 1003070a 1803070a     ................
e630e578:	0001070b 0802070b 1001070b 1801070b     ................
e630e588:	0001070c 0802070c ffffffff ffffffff     ................
e630e598:	ffffffff ffffffff ffffffff ffffffff     ................
e630e5a8:	ffffffff ffffffff ffffffff ffffffff     ................
e630e5b8:	ffffffff ffffffff 1001070c 1801070c     ................
e630e5c8:	000d070d ffffffff ffffffff 0005070e     ................
e630e5d8:	0001070f 080e070f 000e0710 100e0710     ................
e630e5e8:	000e0711 100e0711 00040712 ffffffff     ................
e630e5f8:	ffffffff ffffffff ffffffff 080b0712     ................
e630e608:	000b0713 100b0713 000b0714 ffffffff     ................
e630e618:	ffffffff ffffffff ffffffff 000d0715     ................
e630e628:	ffffffff ffffffff 10100715 00080716     ................
e630e638:	ffffffff 08100716 00100717 10100717     ................
e630e648:	00100718 10100718 00030719 08040719     ................
e630e658:	10010719 18040719 ffffffff ffffffff     ................
e630e668:	0001071a 0812071a 000a071b 100c071b     ................
e630e678:	0012071c 0014071d 0012071e 0011071f     ................
e630e688:	00110720 00120721 00120722 00120723      ...!..."...#...
e630e698:	00120724 00120725 00120726 00120727     $...%...&...'...
e630e6a8:	00120728 ffffffff ffffffff 00190729     (...........)...
e630e6b8:	0019072a 0020072b 0017072c 1808072c     *...+. .,...,...
e630e6c8:	0001072d 0801072d 0020072e 0008072f     -...-..... ./...
e630e6d8:	ffffffff 0803072f 00180730 00180731     ..../...0...1...
e630e6e8:	ffffffff ffffffff ffffffff ffffffff     ................
e630e6f8:	ffffffff ffffffff ffffffff ffffffff     ................
e630e708:	ffffffff ffffffff ffffffff ffffffff     ................
e630e718:	ffffffff ffffffff ffffffff 00100732     ............2...
e630e728:	10010732 18010732 00050733 00200734     2...2...3...4. .
e630e738:	00090735 ffffffff ffffffff 00200736     5...........6. .
e630e748:	00040737 08100737 18060737 00100738     7...7...7...8...
e630e758:	ffffffff ffffffff ffffffff ffffffff     ................
e630e768:	ffffffff ffffffff ffffffff ffffffff     ................
e630e778:	00200739 000b073a ffffffff ffffffff     9. .:...........
e630e788:	ffffffff ffffffff ffffffff ffffffff     ................
e630e798:	ffffffff ffffffff 00010200 08040200     ................
e630e7a8:	10100200 00010201 08010201 ffffffff     ................
e630e7b8:	ffffffff 10100201 ffffffff ffffffff     ................
e630e7c8:	ffffffff ffffffff ffffffff ffffffff     ................
e630e7d8:	ffffffff ffffffff ffffffff 00200202     .............. .
e630e7e8:	00100203 00200204 00100205 00200206     ...... ....... .
e630e7f8:	00100207 10100207 00200208 00200209     .......... ... .
e630e808:	0020020a 0020020b 0010020c 0020020d     .. ... ....... .
e630e818:	0020020e 0020020f 00200210 00100211     .. ... ... .....
e630e828:	00200212 00200213 00200214 00200215     .. ... ... ... .
e630e838:	00090216 10010216 00200217 00050218     .......... .....
e630e848:	08010218 10080218 18080218 001c0219     ................
e630e858:	001c021a 001c021b 001c021c 001c021d     ................
e630e868:	001c021e 001c021f 001c0220 001c0221     ........ ...!...
e630e878:	001c0222 001c0223 001c0224 001c0225     "...#...$...%...
e630e888:	001c0226 001c0227 001c0228 00010229     &...'...(...)...
e630e898:	08010229 10010229 18040229 0008022a     )...)...)...*...
e630e8a8:	0808022a 1008022a 1804022a 0006022b     *...*...*...+...
e630e8b8:	ffffffff 0807022b 1006022b ffffffff     ....+...+.......
e630e8c8:	1807022b 0006022c ffffffff 0807022c     +...,.......,...
e630e8d8:	1002022c 1801022c ffffffff 000a022d     ,...,.......-...
e630e8e8:	1010022d 000a022e 1010022e 000a022f     -.........../...
e630e8f8:	1010022f ffffffff 00100230 ffffffff     /.......0.......
e630e908:	ffffffff 10010230 18010230 00010231     ....0...0...1...
e630e918:	08010231 10010231 18010231 00020232     1...1...1...2...
e630e928:	08020232 10020232 18020232 00020233     2...2...2...3...
e630e938:	08030233 10010233 18010233 00010234     3...3...3...4...
e630e948:	08010234 ffffffff 10020234 18010234     4.......4...4...
e630e958:	00010235 ffffffff 08020235 10010235     5.......5...5...
e630e968:	18010235 ffffffff 00020236 08010236     5.......6...6...
e630e978:	10010236 ffffffff 18020236 00070237     6.......6...7...
e630e988:	08010237 10010237 18010237 00010238     7...7...7...8...
e630e998:	08010238 10010238 ffffffff 18010238     8...8.......8...
e630e9a8:	00040239 08040239 10040239 18010239     9...9...9...9...
e630e9b8:	0002023a 0806023a 1006023a ffffffff     :...:...:.......
e630e9c8:	ffffffff ffffffff 1802023a 0010023b     ........:...;...
e630e9d8:	1001023b 1801023b ffffffff 0004023c     ;...;.......<...
e630e9e8:	0801023c 1004023c 1802023c 0008023d     <...<...<...=...
e630e9f8:	ffffffff ffffffff ffffffff 080a023d     ............=...
e630ea08:	0020023e 0020023f 00050240 08010240     >. .?. .@...@...
e630ea18:	10050240 18080240 00010241 08080241     @...@...A...A...
e630ea28:	10010241 18080241 00010242 08040242     A...A...B...B...
e630ea38:	10040242 18040242 00040243 08040243     B...B...C...C...
e630ea48:	10040243 18040243 00040244 08040244     C...C...D...D...
e630ea58:	10040244 18010244 00040245 08040245     D...D...E...E...
e630ea68:	10040245 18040245 00040246 08040246     E...E...F...F...
e630ea78:	10060246 18060246 00060247 08060247     F...F...G...G...
e630ea88:	10060247 18060247 ffffffff 00010248     G...G.......H...
e630ea98:	08010248 10020248 ffffffff ffffffff     H...H...........
e630eaa8:	ffffffff ffffffff ffffffff ffffffff     ................
e630eab8:	ffffffff ffffffff 18040248 00040249     ........H...I...
e630eac8:	08010249 10010249 ffffffff 18010249     I...I.......I...
e630ead8:	0001024a ffffffff 0801024a 1001024a     J.......J...J...
e630eae8:	1801024a 0004024b 0804024b 100a024b     J...K...K...K...
e630eaf8:	0020024c 0004024d 0808024d ffffffff     L. .M...M.......
e630eb08:	ffffffff ffffffff ffffffff ffffffff     ................
e630eb18:	ffffffff 1002024d 1802024d 0020024e     ....M...M...N. .
e630eb28:	0002024f 0810024f 00100250 10040250     O...O...P...P...
e630eb38:	18040250 00050251 08050251 ffffffff     P...Q...Q.......
e630eb48:	ffffffff ffffffff ffffffff 10010251     ............Q...
e630eb58:	18010251 00070252 08070252 10070252     Q...R...R...R...
e630eb68:	18070252 00070253 08070253 10070253     R...S...S...S...
e630eb78:	18070253 00070254 08070254 10070254     S...T...T...T...
e630eb88:	ffffffff ffffffff ffffffff ffffffff     ................
e630eb98:	ffffffff ffffffff 18030254 00010255     ........T...U...
e630eba8:	08020255 10010255 18040255 00020256     U...U...U...V...
e630ebb8:	08010256 10010256 ffffffff 18010256     V...V.......V...
e630ebc8:	00040257 08080257 100a0257 000a0258     W...W...W...X...
e630ebd8:	100a0258 000a0259 100a0259 000a025a     X...Y...Y...Z...
e630ebe8:	0020025b 0020025c 0001025d ffffffff     [. .\. .].......
e630ebf8:	ffffffff ffffffff 0802025d 1002025d     ........]...]...
e630ec08:	0010025e 1005025e 1806025e 0005025f     ^...^...^..._...
e630ec18:	0805025f 100e025f 00050260 080e0260     _..._...`...`...
e630ec28:	18050260 000e0261 10050261 18010261     `...a...a...a...
e630ec38:	00050262 08050262 100a0262 000a0263     b...b...b...c...
e630ec48:	10050263 18050263 000a0264 100a0264     c...c...d...d...
e630ec58:	00050265 08050265 100a0265 000a0266     e...e...e...f...
e630ec68:	ffffffff ffffffff ffffffff ffffffff     ................
e630ec78:	ffffffff ffffffff 10070266 18070266     ........f...f...
e630ec88:	00040267 08040267 ffffffff ffffffff     g...g...........
e630ec98:	ffffffff 10040267 18080267 00080268     ....g...g...h...
e630eca8:	08040268 ffffffff ffffffff ffffffff     h...............
e630ecb8:	10040268 ffffffff ffffffff ffffffff     h...............
e630ecc8:	18040268 ffffffff ffffffff ffffffff     h...............
e630ecd8:	00040269 08050269 10070269 18080269     i...i...i...i...
e630ece8:	0010026a 1008026a 0010026b 1008026b     j...j...k...k...
e630ecf8:	0010026c 1008026c 1808026c 0001026d     l...l...l...m...
e630ed08:	0801026d 1006026d 1806026d 0006026e     m...m...m...n...
e630ed18:	ffffffff 0801026e 1003026e ffffffff     ....n...n.......
e630ed28:	ffffffff ffffffff 000a026f 100a026f     ........o...o...
e630ed38:	00040270 08010270 10040270 ffffffff     p...p...p.......
e630ed48:	ffffffff ffffffff ffffffff ffffffff     ................
e630ed58:	ffffffff 18070270 00070271 08050271     ....p...q...q...
e630ed68:	10050271 ffffffff ffffffff ffffffff     q...............
e630ed78:	18040271 00010272 08010272 10020272     q...r...r...r...
e630ed88:	18080272 00200273 00200274 00100275     r...s. .t. .u...
e630ed98:	ffffffff ffffffff ffffffff 10020275     ............u...
e630eda8:	18010275 ffffffff 00020276 08080276     u.......v...v...
e630edb8:	10080276 18080276 00080277 08080277     v...v...w...w...
e630edc8:	10080277 ffffffff 18080277 00080278     w.......w...x...
e630edd8:	08080278 10080278 18080278 00080279     x...x...x...y...
e630ede8:	ffffffff 08080279 10080279 18080279     ....y...y...y...
e630edf8:	0008027a 0808027a 1008027a ffffffff     z...z...z.......
e630ee08:	1808027a 0008027b 0808027b 1008027b     z...{...{...{...
e630ee18:	1808027b 0008027c 0808027c ffffffff     {...|...|.......
e630ee28:	1008027c 1808027c 0008027d 0808027d     |...|...}...}...
e630ee38:	1008027d 1808027d ffffffff 0008027e     }...}.......~...
e630ee48:	0808027e 1008027e 1808027e 0008027f     ~...~...~.......
e630ee58:	0808027f ffffffff 1008027f 1808027f     ................
e630ee68:	00080280 08080280 10080280 18080280     ................
e630ee78:	00080281 ffffffff 08080281 10080281     ................
e630ee88:	18080281 00080282 08080282 10080282     ................
e630ee98:	ffffffff 18080282 00080283 08080283     ................
e630eea8:	10080283 18080283 00080284 ffffffff     ................
e630eeb8:	08080284 10080284 18080284 00080285     ................
e630eec8:	08080285 10080285 18080285 ffffffff     ................
e630eed8:	00080286 08080286 10080286 18080286     ................
e630eee8:	00080287 08080287 ffffffff 10080287     ................
e630eef8:	18080287 00080288 08080288 10080288     ................
e630ef08:	18080288 ffffffff 00080289 08020289     ................
e630ef18:	10030289 000a028a 100a028a 000a028b     ................
e630ef28:	1005028b 1804028b 0008028c 0808028c     ................
e630ef38:	1006028c 1806028c 0011028d 1808028d     ................
e630ef48:	0004028e 0806028e ffffffff 1006028e     ................
e630ef58:	1808028e ffffffff 0004028f 0808028f     ................
e630ef68:	1008028f 1806028f 00060290 08110290     ................
e630ef78:	00080291 08040291 10060291 ffffffff     ................
e630ef88:	18060291 00080292 ffffffff 08040292     ................
e630ef98:	10080292 18080292 00060293 08060293     ................
e630efa8:	00110294 18080294 00040295 08060295     ................
e630efb8:	ffffffff 10060295 18080295 ffffffff     ................
e630efc8:	00040296 08040296 10040296 18040296     ................
e630efd8:	00040297 08040297 10040297 18040297     ................
e630efe8:	00040298 08040298 10040298 18040298     ................
e630eff8:	00040299 08040299 10040299 18040299     ................
e630f008:	0004029a 0804029a 1004029a 1804029a     ................
e630f018:	0011029b 0010029c 0011029d 0020029e     .............. .
e630f028:	0020029f 002002a0 002002a1 002002a2     .. ... ... ... .
e630f038:	002002a3 002002a4 002002a5 002002a6     .. ... ... ... .
e630f048:	000202a7 080502a7 100502a7 ffffffff     ................
e630f058:	ffffffff ffffffff ffffffff ffffffff     ................
e630f068:	ffffffff ffffffff ffffffff ffffffff     ................
e630f078:	ffffffff ffffffff ffffffff ffffffff     ................
e630f088:	ffffffff ffffffff ffffffff ffffffff     ................
e630f098:	ffffffff ffffffff ffffffff ffffffff     ................
e630f0a8:	ffffffff ffffffff ffffffff ffffffff     ................
e630f0b8:	ffffffff ffffffff ffffffff 180102a7     ................
e630f0c8:	000402a8 081002a8 002002a9 001002aa     .......... .....
e630f0d8:	002002ab 001002ac 002002ad 000702ae     .. ....... .....
e630f0e8:	080102ae 100202ae 180602ae 000102af     ................
e630f0f8:	080102af 002002b0 000202b1 002002b2     ...... ....... .
e630f108:	002002b3 ffffffff ffffffff ffffffff     .. .............
e630f118:	ffffffff ffffffff ffffffff ffffffff     ................
e630f128:	ffffffff ffffffff ffffffff ffffffff     ................
e630f138:	ffffffff ffffffff ffffffff ffffffff     ................
e630f148:	ffffffff ffffffff ffffffff ffffffff     ................
e630f158:	ffffffff ffffffff ffffffff ffffffff     ................
e630f168:	ffffffff ffffffff ffffffff ffffffff     ................
e630f178:	ffffffff ffffffff ffffffff ffffffff     ................
e630f188:	ffffffff ffffffff ffffffff ffffffff     ................
e630f198:	ffffffff ffffffff ffffffff 000402b4     ................
e630f1a8:	ffffffff ffffffff ffffffff ffffffff     ................
e630f1b8:	ffffffff ffffffff ffffffff ffffffff     ................
e630f1c8:	ffffffff ffffffff ffffffff ffffffff     ................
e630f1d8:	ffffffff ffffffff ffffffff ffffffff     ................
e630f1e8:	ffffffff ffffffff ffffffff ffffffff     ................
e630f1f8:	ffffffff ffffffff ffffffff ffffffff     ................
e630f208:	ffffffff ffffffff ffffffff ffffffff     ................
e630f218:	ffffffff ffffffff ffffffff ffffffff     ................
e630f228:	ffffffff ffffffff ffffffff ffffffff     ................
e630f238:	ffffffff ffffffff ffffffff ffffffff     ................
e630f248:	ffffffff ffffffff ffffffff ffffffff     ................
e630f258:	ffffffff ffffffff ffffffff ffffffff     ................
e630f268:	ffffffff ffffffff ffffffff ffffffff     ................
e630f278:	ffffffff 00200800 00040801 080b0801     ...... .........
e630f288:	ffffffff ffffffff 18010801 00050802     ................
e630f298:	08050802 10050802 18050802 00050803     ................
e630f2a8:	08050803 10050803 18050803 00050804     ................
e630f2b8:	08040804 10030804 00180805 18030805     ................
e630f2c8:	00180806 18020806 00010807 08020807     ................
e630f2d8:	10010807 18010807 00020808 08040808     ................
e630f2e8:	10040808 18040808 000a0809 10040809     ................
e630f2f8:	ffffffff ffffffff 18070809 ffffffff     ................
e630f308:	ffffffff ffffffff ffffffff ffffffff     ................
e630f318:	ffffffff 000a080a 1005080a 1801080a     ................
e630f328:	0001080b 0802080b 1009080b 0009080c     ................
e630f338:	1002080c 0020080d ffffffff 0001080e     ...... .........
e630f348:	ffffffff ffffffff ffffffff ffffffff     ................
e630f358:	0020080f 00200810 00200811 00200812     .. ... ... ... .
e630f368:	00030813 08010813 10030813 18030813     ................
e630f378:	00040814 08040814 10040814 18040814     ................
e630f388:	00010815 08010815 10060815 18040815     ................
e630f398:	ffffffff 00060816 08040816 10060816     ................
e630f3a8:	18040816 00020817 08050817 10080817     ................
e630f3b8:	00200818 00060819 08030819 100b0819     .. .............
e630f3c8:	0004081a 0804081a 1004081a ffffffff     ................
e630f3d8:	1801081a 0009081b 0020081c 0020081d     .......... ... .
e630f3e8:	0020081e 0020081f 00100820 ffffffff     .. ... . .......
e630f3f8:	10010820 18060820 00080821 00200822      ... ...!...". .
e630f408:	ffffffff 000a0823 10060823 18070823     ....#...#...#...
e630f418:	00080824 08080824 100a0824 00070825     $...$...$...%...
e630f428:	08080825 10080825 18030825 000a0826     %...%...%...&...
e630f438:	100a0826 00110827 00090828 10090828     &...'...(...(...
e630f448:	00100829 100e0829 000e082a 100c082a     )...)...*...*...
e630f458:	000a082b 100a082b 0002082c 0020082d     +...+...,...-. .
e630f468:	000b082e 100b082e 0020082f 00120830     ......../. .0...
e630f478:	00200831 00200832 ffffffff ffffffff     1. .2. .........
e630f488:	00010833 08010833 10080833 000c0834     3...3...3...4...
e630f498:	100c0834 000c0835 100c0835 000c0836     4...5...5...6...
e630f4a8:	100c0836 000c0837 100c0837 000c0838     6...7...7...8...
e630f4b8:	100c0838 000c0839 100b0839 ffffffff     8...9...9.......
e630f4c8:	ffffffff 000b083a 100b083a 000b083b     ....:...:...;...
e630f4d8:	100b083b 000b083c 100b083c 000b083d     ;...<...<...=...
e630f4e8:	100b083d 000b083e 100a083e ffffffff     =...>...>.......
e630f4f8:	000a083f 100a083f 000a0840 100a0840     ?...?...@...@...
e630f508:	000a0841 100a0841 000a0842 100a0842     A...A...B...B...
e630f518:	000a0843 100a0843 000a0844 100a0844     C...C...D...D...
e630f528:	000a0845 100a0845 000a0846 100a0846     E...E...F...F...
e630f538:	000a0847 100a0847 000a0848 100a0848     G...G...H...H...
e630f548:	000a0849 100a0849 000a084a 100a084a     I...I...J...J...
e630f558:	000a084b 100a084b 000a084c 100a084c     K...K...L...L...
e630f568:	0004084d 0803084d 100a084d 000a084e     M...M...M...N...
e630f578:	1001084e 000a084f 1004084f 000b0850     N...O...O...P...
e630f588:	100a0850 ffffffff 00080851 08080851     P.......Q...Q...
e630f598:	10080851 18080851 00080852 ffffffff     Q...Q...R.......
e630f5a8:	08080852 10010852 18080852 00080853     R...R...R...S...
e630f5b8:	08020853 10020853 18040853 00040854     S...S...S...T...
e630f5c8:	ffffffff 08040854 100a0854 00060855     ....T...T...U...
e630f5d8:	08080855 ffffffff 10040855 18040855     U.......U...U...
e630f5e8:	00050856 08040856 10050856 000a0857     V...V...V...W...
e630f5f8:	100a0857 00080858 ffffffff 08040858     W...X.......X...
e630f608:	ffffffff ffffffff 00050a00 08050a00     ................
e630f618:	10050a00 18050a00 00050a01 08050a01     ................
e630f628:	100b0a01 00010a02 08030a02 00200a03     .............. .
e630f638:	ffffffff 00030a04 080a0a04 ffffffff     ................
e630f648:	ffffffff 18030a04 00030a05 08010a05     ................
e630f658:	10010a05 18060a05 ffffffff ffffffff     ................
e630f668:	ffffffff 00020a06 08030a06 10010a06     ................
e630f678:	000f0a07 00200a08 00200a09 000b0a0a     ...... ... .....
e630f688:	100b0a0a 000b0a0b ffffffff ffffffff     ................
e630f698:	00180a0c 00180a0d 00180a0e 00180a0f     ................
e630f6a8:	18040a0f 00020a10 08020a10 10040a10     ................
e630f6b8:	18040a10 00010a11 08010a11 10010a11     ................
e630f6c8:	18030a11 00200a12 00200a13 ffffffff     ...... ... .....
e630f6d8:	00140a14 00140a15 00140a16 00140a17     ................
e630f6e8:	00140a18 00140a19 00140a1a 00140a1b     ................
e630f6f8:	001e0a1c 000a0a1d 10060a1d 18060a1d     ................
e630f708:	00060a1e ffffffff 08060a1e 00080a1f     ................
e630f718:	080b0a1f 000b0a20 100b0a20 000b0a21     .... ... ...!...
e630f728:	100b0a21 000b0a22 10040a22 000a0a23     !..."..."...#...
e630f738:	10060a23 18080a23 ffffffff 00040a24     #...#.......$...
e630f748:	ffffffff ffffffff 00010b80 08020b80     ................
e630f758:	10050b80 18050b80 00050b81 08050b81     ................
e630f768:	100b0b81 00050b82 08010b82 10010b82     ................
e630f778:	ffffffff 18010b82 00010b83 08040b83     ................
e630f788:	100b0b83 000b0b84 ffffffff 10040b84     ................
e630f798:	000b0b85 10040b85 18010b85 00010b86     ................
e630f7a8:	08010b86 00200b87 00200b88 00080b89     ...... ... .....
e630f7b8:	080a0b89 18050b89 000a0b8a 10030b8a     ................
e630f7c8:	18030b8a 00010b8b 08020b8b 10010b8b     ................
e630f7d8:	18010b8b 00010b8c 08030b8c ffffffff     ................
e630f7e8:	10040b8c 18040b8c 00040b8d 08040b8d     ................
e630f7f8:	ffffffff ffffffff ffffffff ffffffff     ................
e630f808:	ffffffff ffffffff ffffffff ffffffff     ................
e630f818:	ffffffff 000d0b8e 100d0b8e 000d0b8f     ................
e630f828:	00050b90 00010b91 080e0b91 000e0b92     ................
e630f838:	100e0b92 000e0b93 100e0b93 00040b94     ................
e630f848:	08040b94 10040b94 18040b94 00040b95     ................
e630f858:	080b0b95 000b0b96 100b0b96 000b0b97     ................
e630f868:	ffffffff ffffffff ffffffff ffffffff     ................
e630f878:	000d0b98 100d0b98 000d0b99 10100b99     ................
e630f888:	10080b8d 18080b8d 00100b9a 10100b9a     ................
e630f898:	00100b9b 10100b9b 00100b9c 10030b9c     ................
e630f8a8:	18040b9c 00010b9d 08040b9d ffffffff     ................
e630f8b8:	ffffffff 10010b9d 00140b9e 000a0b9f     ................
e630f8c8:	100c0b9f 00120ba0 00140ba1 00120ba2     ................
e630f8d8:	00110ba3 00110ba4 00120ba5 00120ba6     ................
e630f8e8:	00120ba7 00120ba8 00120ba9 00120baa     ................
e630f8f8:	00120bab 00120bac ffffffff ffffffff     ................
e630f908:	00190bad 00190bae 00200baf 00170bb0     .......... .....
e630f918:	18080bb0 00010bb1 08010bb1 00200bb2     .............. .
e630f928:	00080bb3 ffffffff 08030bb3 00180bb4     ................
e630f938:	00180bb5 ffffffff ffffffff ffffffff     ................
e630f948:	ffffffff ffffffff ffffffff ffffffff     ................
e630f958:	ffffffff ffffffff ffffffff ffffffff     ................
e630f968:	ffffffff ffffffff ffffffff ffffffff     ................
e630f978:	00100bb6 10010bb6 18010bb6 00050bb7     ................
e630f988:	00200bb8 00090bb9 ffffffff ffffffff     .. .............
e630f998:	00200bba 00040bbb 08100bbb 18060bbb     .. .............
e630f9a8:	00100bbc ffffffff 10080bbc ffffffff     ................
e630f9b8:	ffffffff ffffffff 18030bbc 00020bbd     ................
e630f9c8:	ffffffff 00200bbe 000b0bbf ffffffff     ...... .........
e630f9d8:	ffffffff ffffffff 10020bbf ffffffff     ................
e630f9e8:	ffffffff ffffffff ffffffff 00010200     ................
e630f9f8:	08040200 10100200 00010201 08010201     ................
e630fa08:	ffffffff ffffffff 10100201 ffffffff     ................
e630fa18:	ffffffff ffffffff ffffffff ffffffff     ................
e630fa28:	ffffffff ffffffff ffffffff ffffffff     ................
e630fa38:	00200202 00100203 00200204 00100205     .. ....... .....
e630fa48:	00200206 00100207 10100207 00200208     .. ........... .
e630fa58:	00200209 0020020a 0020020b 0010020c     .. ... ... .....
e630fa68:	0020020d 0020020e 0020020f 00200210     .. ... ... ... .
e630fa78:	00100211 00200212 00200213 00200214     ...... ... ... .
e630fa88:	00200215 00090216 10010216 00200217     .. ........... .
e630fa98:	00050218 08010218 10080218 18080218     ................
e630faa8:	001e0219 001e021a 001e021b 001e021c     ................
e630fab8:	001e021d 001e021e 001e021f 001e0220     ............ ...
e630fac8:	001e0221 001e0222 001e0223 001e0224     !..."...#...$...
e630fad8:	001e0225 001e0226 001e0227 001e0228     %...&...'...(...
e630fae8:	00010229 08010229 10010229 18040229     )...)...)...)...
e630faf8:	0008022a 0808022a 1008022a 1804022a     *...*...*...*...
e630fb08:	0005022b 0806022b 1007022b 1805022b     +...+...+...+...
e630fb18:	0006022c 0807022c 1005022c 1806022c     ,...,...,...,...
e630fb28:	0007022d 0802022d 1001022d ffffffff     -...-...-.......
e630fb38:	000a022e 1010022e 000a022f 1010022f     ......../.../...
e630fb48:	000a0230 10100230 ffffffff 00100231     0...0.......1...
e630fb58:	ffffffff ffffffff 10010231 18010231     ........1...1...
e630fb68:	00010232 08010232 10010232 18010232     2...2...2...2...
e630fb78:	00020233 08020233 10020233 18020233     3...3...3...3...
e630fb88:	00020234 08030234 10010234 18010234     4...4...4...4...
e630fb98:	00010235 08010235 ffffffff 10020235     5...5.......5...
e630fba8:	18010235 00010236 ffffffff 08020236     5...6.......6...
e630fbb8:	10010236 18010236 ffffffff 00020237     6...6.......7...
e630fbc8:	08010237 10010237 ffffffff 18020237     7...7.......7...
e630fbd8:	00070238 08010238 10010238 18010238     8...8...8...8...
e630fbe8:	00010239 08010239 10010239 ffffffff     9...9...9.......
e630fbf8:	18010239 0004023a 0804023a 1004023a     9...:...:...:...
e630fc08:	1801023a 0002023b 0806023b 1006023b     :...;...;...;...
e630fc18:	ffffffff ffffffff ffffffff 1802023b     ............;...
e630fc28:	0010023c 1001023c 1801023c ffffffff     <...<...<.......
e630fc38:	0004023d 0801023d 1004023d 1802023d     =...=...=...=...
e630fc48:	0008023e ffffffff ffffffff ffffffff     >...............
e630fc58:	080a023e 0020023f 00200240 00050241     >...?. .@. .A...
e630fc68:	08010241 10050241 18080241 00010242     A...A...A...B...
e630fc78:	08080242 10010242 18080242 00010243     B...B...B...C...
e630fc88:	08040243 10040243 18040243 00040244     C...C...C...D...
e630fc98:	08040244 10040244 18040244 00040245     D...D...D...E...
e630fca8:	08040245 10040245 18010245 00040246     E...E...E...F...
e630fcb8:	08040246 10040246 18040246 00040247     F...F...F...G...
e630fcc8:	08040247 10060247 18060247 00060248     G...G...G...H...
e630fcd8:	08060248 10060248 18060248 00040249     H...H...H...I...
e630fce8:	08010249 10010249 18020249 ffffffff     I...I...I.......
e630fcf8:	ffffffff ffffffff ffffffff ffffffff     ................
e630fd08:	ffffffff ffffffff ffffffff 0004024a     ............J...
e630fd18:	0804024a 1001024a 1801024a ffffffff     J...J...J.......
e630fd28:	0001024b 0801024b ffffffff 1001024b     K...K.......K...
e630fd38:	1801024b 0001024c 0804024c 1004024c     K...L...L...L...
e630fd48:	000a024d 0020024e 0004024f 0808024f     M...N. .O...O...
e630fd58:	ffffffff ffffffff ffffffff ffffffff     ................
e630fd68:	ffffffff ffffffff 1002024f 1802024f     ........O...O...
e630fd78:	00200250 00020251 08100251 00100252     P. .Q...Q...R...
e630fd88:	10040252 18040252 00050253 08050253     R...R...S...S...
e630fd98:	ffffffff ffffffff ffffffff ffffffff     ................
e630fda8:	10010253 18010253 00080254 08080254     S...S...T...T...
e630fdb8:	10080254 18080254 00080255 08080255     T...T...U...U...
e630fdc8:	10080255 18080255 00080256 08080256     U...U...V...V...
e630fdd8:	10080256 ffffffff ffffffff ffffffff     V...............
e630fde8:	ffffffff ffffffff ffffffff 18030256     ............V...
e630fdf8:	00010257 08020257 10010257 18040257     W...W...W...W...
e630fe08:	00020258 08010258 10010258 ffffffff     X...X...X.......
e630fe18:	18010258 00040259 08080259 100a0259     X...Y...Y...Y...
e630fe28:	000a025a 100a025a 000a025b 100a025b     Z...Z...[...[...
e630fe38:	000a025c 0020025d 0020025e 0001025f     \...]. .^. ._...
e630fe48:	ffffffff ffffffff ffffffff 0802025f     ............_...
e630fe58:	1002025f 00100260 10050260 18060260     _...`...`...`...
e630fe68:	00050261 08050261 100e0261 00050262     a...a...a...b...
e630fe78:	080e0262 18050262 000e0263 10050263     b...b...c...c...
e630fe88:	18010263 00050264 08050264 100a0264     c...d...d...d...
e630fe98:	000a0265 10050265 18050265 000a0266     e...e...e...f...
e630fea8:	100a0266 00050267 08050267 100a0267     f...g...g...g...
e630feb8:	000a0268 ffffffff ffffffff ffffffff     h...............
e630fec8:	ffffffff ffffffff ffffffff 10070268     ............h...
e630fed8:	18070268 00040269 08040269 ffffffff     h...i...i.......
e630fee8:	ffffffff ffffffff 10040269 18080269     ........i...i...
e630fef8:	0008026a 0804026a ffffffff ffffffff     j...j...........
e630ff08:	ffffffff 1004026a ffffffff ffffffff     ....j...........
e630ff18:	ffffffff 1804026a ffffffff ffffffff     ....j...........
e630ff28:	ffffffff 0004026b 0805026b 1007026b     ....k...k...k...
e630ff38:	1808026b 0010026c 1008026c 0010026d     k...l...l...m...
e630ff48:	1008026d 0010026e 1008026e 1808026e     m...n...n...n...
e630ff58:	0001026f 0801026f 1006026f 1806026f     o...o...o...o...
e630ff68:	00060270 ffffffff 08010270 10030270     p.......p...p...
e630ff78:	ffffffff ffffffff ffffffff 000a0271     ............q...
e630ff88:	100a0271 00040272 08010272 10040272     q...r...r...r...
e630ff98:	ffffffff ffffffff ffffffff ffffffff     ................
e630ffa8:	ffffffff ffffffff 18070272 00070273     ........r...s...
e630ffb8:	08050273 10050273 ffffffff ffffffff     s...s...........
e630ffc8:	ffffffff 18040273 00010274 08010274     ....s...t...t...
e630ffd8:	10020274 18080274 00200275 00200276     t...t...u. .v. .
e630ffe8:	00100277 ffffffff ffffffff ffffffff     w...............
e630fff8:	10020277 18010277 ffffffff 00020278     w...w.......x...
e6310008:	08100278 00100279 10100279 0008027a     x...y...y...z...
e6310018:	0808027a 1008027a ffffffff 0010027b     z...z.......{...
e6310028:	1010027b 0010027c 1008027c 1808027c     {...|...|...|...
e6310038:	0008027d ffffffff 0810027d 0010027e     }.......}...~...
e6310048:	1010027e 0008027f 0808027f 1008027f     ~...............
e6310058:	ffffffff 1808027f 00100280 10100280     ................
e6310068:	00100281 10080281 18080281 00080282     ................
e6310078:	ffffffff 08100282 00100283 10100283     ................
e6310088:	00080284 08080284 10080284 ffffffff     ................
e6310098:	00100285 10100285 00100286 10080286     ................
e63100a8:	18080286 00080287 ffffffff 08080287     ................
e63100b8:	10100287 00100288 10100288 00080289     ................
e63100c8:	08080289 10080289 ffffffff 0010028a     ................
e63100d8:	1010028a 0010028b 1008028b 1808028b     ................
e63100e8:	0008028c ffffffff 0810028c 0010028d     ................
e63100f8:	1010028d 0008028e 0808028e 1008028e     ................
e6310108:	ffffffff 1808028e 0010028f 1010028f     ................
e6310118:	00100290 10080290 18080290 00080291     ................
e6310128:	ffffffff 08100291 00100292 10100292     ................
e6310138:	00080293 08080293 10080293 ffffffff     ................
e6310148:	00100294 10100294 00100295 10080295     ................
e6310158:	18080295 00080296 ffffffff 08080296     ................
e6310168:	10020296 18030296 000a0297 100a0297     ................
e6310178:	000a0298 10050298 18040298 00080299     ................
e6310188:	08080299 10060299 18060299 0011029a     ................
e6310198:	1808029a 0004029b 0806029b ffffffff     ................
e63101a8:	1006029b 1808029b 0008029c 0804029c     ................
e63101b8:	1008029c 1808029c 0006029d 0806029d     ................
e63101c8:	0011029e 1808029e 0004029f 0806029f     ................
e63101d8:	ffffffff 1006029f 1808029f 000802a0     ................
e63101e8:	080402a0 100802a0 180802a0 000602a1     ................
e63101f8:	080602a1 001102a2 180802a2 000402a3     ................
e6310208:	080602a3 ffffffff 100602a3 180802a3     ................
e6310218:	000802a4 080402a4 100402a4 180402a4     ................
e6310228:	000402a5 080402a5 100402a5 180402a5     ................
e6310238:	000402a6 080402a6 100402a6 180402a6     ................
e6310248:	000402a7 080402a7 100402a7 180402a7     ................
e6310258:	000402a8 080402a8 100402a8 180402a8     ................
e6310268:	000402a9 081202a9 001102aa 001202ab     ................
e6310278:	002002ac 002002ad 002002ae 002002af     .. ... ... ... .
e6310288:	002002b0 002002b1 002002b2 002002b3     .. ... ... ... .
e6310298:	002002b4 000302b5 080502b5 100502b5     .. .............
e63102a8:	180102b5 000502b6 080502b6 100502b6     ................
e63102b8:	180502b6 000502b7 080502b7 100502b7     ................
e63102c8:	180502b7 000502b8 080502b8 100502b8     ................
e63102d8:	180502b8 000502b9 080502b9 100502b9     ................
e63102e8:	180502b9 000502ba 080502ba 100502ba     ................
e63102f8:	180502ba 000502bb 080502bb 100102bb     ................
e6310308:	180202bb 000202bc 080202bc 100202bc     ................
e6310318:	180102bc 000402bd 081002bd 002002be     .............. .
e6310328:	001002bf 002002c0 001002c1 002002c2     ...... ....... .
e6310338:	000702c3 080102c3 100202c3 180602c3     ................
e6310348:	000102c4 080102c4 002002c5 000302c6     .......... .....
e6310358:	002002c7 002002c8 ffffffff ffffffff     .. ... .........
e6310368:	ffffffff ffffffff ffffffff ffffffff     ................
e6310378:	ffffffff ffffffff ffffffff ffffffff     ................
e6310388:	ffffffff ffffffff ffffffff ffffffff     ................
e6310398:	ffffffff ffffffff ffffffff ffffffff     ................
e63103a8:	ffffffff ffffffff ffffffff ffffffff     ................
e63103b8:	ffffffff ffffffff ffffffff ffffffff     ................
e63103c8:	ffffffff ffffffff ffffffff ffffffff     ................
e63103d8:	ffffffff ffffffff ffffffff ffffffff     ................
e63103e8:	ffffffff ffffffff ffffffff ffffffff     ................
e63103f8:	000402c9 ffffffff ffffffff ffffffff     ................
e6310408:	ffffffff ffffffff ffffffff ffffffff     ................
e6310418:	ffffffff ffffffff ffffffff ffffffff     ................
e6310428:	ffffffff ffffffff ffffffff ffffffff     ................
e6310438:	ffffffff ffffffff ffffffff ffffffff     ................
e6310448:	ffffffff ffffffff ffffffff ffffffff     ................
e6310458:	ffffffff ffffffff ffffffff ffffffff     ................
e6310468:	ffffffff ffffffff ffffffff ffffffff     ................
e6310478:	ffffffff ffffffff ffffffff ffffffff     ................
e6310488:	ffffffff ffffffff ffffffff ffffffff     ................
e6310498:	ffffffff ffffffff ffffffff ffffffff     ................
e63104a8:	ffffffff ffffffff ffffffff ffffffff     ................
e63104b8:	ffffffff ffffffff ffffffff ffffffff     ................
e63104c8:	ffffffff ffffffff 00200400 00040401     .......... .....
e63104d8:	080b0401 000a0402 10020402 18010402     ................
e63104e8:	00050403 08050403 10050403 18050403     ................
e63104f8:	00050404 08050404 10050404 18050404     ................
e6310508:	00050405 08040405 10030405 00180406     ................
e6310518:	18030406 00180407 18020407 00010408     ................
e6310528:	08020408 10010408 18010408 00020409     ................
e6310538:	08040409 10040409 18040409 ffffffff     ................
e6310548:	0004040a ffffffff ffffffff 0809040a     ................
e6310558:	1801040a 0020040b 001c040c 0001040d     ...... .........
e6310568:	0807040d 1009040d 000a040e 1005040e     ................
e6310578:	1801040e 1001040f 1802040f 0009040f     ................
e6310588:	00090410 10020410 00200411 00010412     .......... .....
e6310598:	08020412 ffffffff ffffffff ffffffff     ................
e63105a8:	ffffffff 00200413 00200414 00200415     ...... ... ... .
e63105b8:	00200416 00030417 08010417 10040417     .. .............
e63105c8:	18030417 00040418 08040418 10040418     ................
e63105d8:	18040418 00010419 08010419 10060419     ................
e63105e8:	18040419 ffffffff 0006041a 0804041a     ................
e63105f8:	1006041a 1804041a 0002041b 0805041b     ................
e6310608:	1008041b ffffffff 1806041b 0003041c     ................
e6310618:	080b041c 1804041c 0004041d 0804041d     ................
e6310628:	1001041d ffffffff 0009041e 0020041f     .............. .
e6310638:	00200420 00200421 00200422 00100423      . .!. .". .#...
e6310648:	ffffffff 10010423 18060423 00080424     ....#...#...$...
e6310658:	00200425 00100426 100a0426 00060427     %. .&...&...'...
e6310668:	08070427 10080427 18080427 000a0428     '...'...'...(...
e6310678:	10070428 18080428 00080429 08030429     (...(...)...)...
e6310688:	100a0429 000a042a 0011042b 0009042c     )...*...+...,...
e6310698:	1009042c 0010042d 100e042d 000e042e     ,...-...-.......
e63106a8:	0012042f 000a0430 100a0430 00020431     /...0...0...1...
e63106b8:	00200432 000b0433 100b0433 00200434     2. .3...3...4. .
e63106c8:	00120435 00200436 00200437 00080438     5...6. .7. .8...
e63106d8:	08010438 10010438 18010438 00080439     8...8...8...9...
e63106e8:	080c0439 000c043a 100c043a 000c043b     9...:...:...;...
e63106f8:	100c043b 000c043c 100c043c 000c043d     ;...<...<...=...
e6310708:	100c043d 000c043e 100c043e 000b043f     =...>...>...?...
e6310718:	1009043f 00010440 000b0441 100b0441     ?...@...A...A...
e6310728:	000b0442 100b0442 000b0443 100b0443     B...B...C...C...
e6310738:	000b0444 100b0444 000b0445 100a0445     D...D...E...E...
e6310748:	00020446 080a0446 000a0447 100a0447     F...F...G...G...
e6310758:	000a0448 100a0448 000a0449 100a0449     H...H...I...I...
e6310768:	000a044a 100a044a 000a044b 100a044b     J...J...K...K...
e6310778:	000a044c 100a044c 000a044d 100a044d     L...L...M...M...
e6310788:	000a044e 100a044e 000a044f 100a044f     N...N...O...O...
e6310798:	000a0450 100a0450 000a0451 100a0451     P...P...Q...Q...
e63107a8:	000a0452 100a0452 000a0453 100a0453     R...R...S...S...
e63107b8:	000a0454 10040454 18030454 000a0455     T...T...T...U...
e63107c8:	100a0455 00010456 080a0456 18040456     U...V...V...V...
e63107d8:	000b0457 100a0457 00030458 00080459     W...W...X...Y...
e63107e8:	08080459 10080459 18080459 0008045a     Y...Y...Y...Z...
e63107f8:	ffffffff 0808045a 1001045a 1808045a     ....Z...Z...Z...
e6310808:	0008045b 0802045b 1002045b 1805045b     [...[...[...[...
e6310818:	0005045c ffffffff 0804045c 100a045c     \.......\...\...
e6310828:	0006045d 0808045d 1008045d 1804045d     ]...]...]...]...
e6310838:	0004045e 0805045e 1004045e 1805045e     ^...^...^...^...
e6310848:	000a045f 100a045f 00080460 ffffffff     _..._...`.......
e6310858:	08040460 ffffffff ffffffff 00050600     `...............
e6310868:	08050600 10050600 18050600 00050601     ................
e6310878:	08050601 100b0601 00010602 08030602     ................
e6310888:	00200603 00100604 10040604 000a0605     .. .............
e6310898:	10090605 00080606 08030606 10030606     ................
e63108a8:	18010606 00010607 08070607 10070607     ................
e63108b8:	18050607 00010608 08020608 10030608     ................
e63108c8:	18010608 000f0609 0020060a 0020060b     .......... ... .
e63108d8:	000b060c 100b060c 000b060d 0018060e     ................
e63108e8:	0018060f ffffffff ffffffff ffffffff     ................
e63108f8:	ffffffff ffffffff 1802060f 00020610     ................
e6310908:	08040610 10040610 18010610 00010611     ................
e6310918:	08010611 10030611 00200612 00200613     .......... ... .
e6310928:	ffffffff 00140614 00140615 00140616     ................
e6310938:	00140617 00140618 00140619 0014061a     ................
e6310948:	0014061b 0018061c 000a061d 1006061d     ................
e6310958:	1806061d 0006061e ffffffff 0806061e     ................
e6310968:	0008061f 080b061f 000b0620 100b0620     ........ ... ...
e6310978:	000b0621 100b0621 000b0622 10040622     !...!..."..."...
e6310988:	000a0623 10060623 18080623 00080624     #...#...#...$...
e6310998:	08040624 00020680 00010681 08010681     $...............
e63109a8:	10020681 18050681 00050682 08050682     ................
e63109b8:	10050682 000b0683 10050683 18010683     ................
e63109c8:	00010684 ffffffff 08010684 10010684     ................
e63109d8:	18040684 000b0685 100b0685 000b0686     ................
e63109e8:	10040686 000b0687 10040687 18010687     ................
e63109f8:	00010688 08010688 00200689 0020068a     .......... ... .
e6310a08:	0008068b 080a068b 1805068b 000a068c     ................
e6310a18:	1003068c 1803068c 0001068d 0802068d     ................
e6310a28:	1001068d 1801068d 0001068e 0802068e     ................
e6310a38:	1001068e 0004068f 0804068f 1004068f     ................
e6310a48:	1804068f 00010690 08010690 10010690     ................
e6310a58:	00200691 00200692 00200693 00200694     .. ... ... ... .
e6310a68:	ffffffff 1801068e 000d0696 100d0696     ................
e6310a78:	000d0697 00050698 00010699 080e0699     ................
e6310a88:	000e069a 100e069a 000e069b 100e069b     ................
e6310a98:	0004069c 0804069c 1004069c 1804069c     ................
e6310aa8:	0004069d 080b069d 000b069e 100b069e     ................
e6310ab8:	000b069f ffffffff ffffffff ffffffff     ................
e6310ac8:	ffffffff 000d06a0 100d06a0 000d06a1     ................
e6310ad8:	101006a1 00080695 08080695 001006a2     ................
e6310ae8:	101006a2 001006a3 101006a3 001006a4     ................
e6310af8:	100306a4 180406a4 000106a5 080806a5     ................
e6310b08:	100106a5 180506a5 000106a6 081406a6     ................
e6310b18:	000a06a7 100c06a7 001206a8 001406a9     ................
e6310b28:	001206aa 001106ab 001106ac 001206ad     ................
e6310b38:	001206ae 001206af 001206b0 001206b1     ................
e6310b48:	001206b2 001206b3 001206b4 001206b5     ................
e6310b58:	001206b6 000e06b7 100d06b7 002006b8     .............. .
e6310b68:	001706b9 000906ba 100106ba 180106ba     ................
e6310b78:	002006bb 000806bc 080306bc 100306bc     .. .............
e6310b88:	001806bd 001806be 180706be 000506bf     ................
e6310b98:	080806bf 100806bf 180806bf 000106c0     ................
e6310ba8:	080106c0 002006c1 ffffffff ffffffff     ...... .........
e6310bb8:	ffffffff ffffffff ffffffff ffffffff     ................
e6310bc8:	ffffffff 001006c2 100106c2 180106c2     ................
e6310bd8:	000206c3 080406c3 100906c3 000706c4     ................
e6310be8:	080406c4 002006c5 000106c6 080206c6     ...... .........
e6310bf8:	100606c6 001006c7 100106c7 002006c8     .............. .
e6310c08:	000806c9 080106c9 100506c9 ffffffff     ................
e6310c18:	180206c9 000106ca 002006cb 000b06cc     .......... .....
e6310c28:	100106cc 180306cc 000806cd 080206cd     ................
e6310c38:	100c06cd 000406ce 080106ce ffffffff     ................
e6310c48:	00010200 08040200 10100200 00010201     ................
e6310c58:	08010201 10010201 ffffffff 00100202     ................
e6310c68:	10080202 ffffffff ffffffff ffffffff     ................
e6310c78:	ffffffff ffffffff ffffffff ffffffff     ................
e6310c88:	ffffffff 00200203 00100204 00200205     ...... ....... .
e6310c98:	00100206 00200207 00100208 00140209     ...... .........
e6310ca8:	0020020a 0020020b 0020020c 0020020d     .. ... ... ... .
e6310cb8:	0014020e 0020020f 00200210 00200211     ...... ... ... .
e6310cc8:	00200212 00140213 00200214 00200215     .. ....... ... .
e6310cd8:	00200216 00200217 00090218 10010218     .. ... .........
e6310ce8:	00200219 0005021a 0801021a 1008021a     .. .............
e6310cf8:	1808021a 001c021b 001c021c 001c021d     ................
e6310d08:	001c021e 001c021f 001c0220 001c0221     ........ ...!...
e6310d18:	001c0222 001c0223 001c0224 001c0225     "...#...$...%...
e6310d28:	001c0226 001c0227 001c0228 001c0229     &...'...(...)...
e6310d38:	001c022a 0001022b 0801022b 1001022b     *...+...+...+...
e6310d48:	1804022b 0008022c 0808022c 1008022c     +...,...,...,...
e6310d58:	1804022c 0007022d ffffffff 0807022d     ,...-.......-...
e6310d68:	1007022d ffffffff 1807022d 0007022e     -.......-.......
e6310d78:	ffffffff 0807022e 1002022e 1801022e     ................
e6310d88:	0001022f 080a022f 00140230 000a0231     /.../...0...1...
e6310d98:	00140232 000a0233 00140234 18010234     2...3...4...4...
e6310da8:	00100235 10050235 18010235 00010236     5...5...5...6...
e6310db8:	08010236 10010236 18010236 00010237     6...6...6...7...
e6310dc8:	08010237 10020237 18020237 00020238     7...7...7...8...
e6310dd8:	08020238 10020238 18030238 00010239     8...8...8...9...
e6310de8:	08010239 10010239 18010239 ffffffff     9...9...9.......
e6310df8:	0002023a 0801023a 1001023a ffffffff     :...:...:.......
e6310e08:	1802023a 0001023b 0801023b ffffffff     :...;...;.......
e6310e18:	1002023b 1801023b 0001023c ffffffff     ;...;...<.......
e6310e28:	0802023c 1007023c 1801023c 0001023d     <...<...<...=...
e6310e38:	0801023d 1001023d 1801023d 0001023e     =...=...=...>...
e6310e48:	0801023e 1001023e 1804023e 0004023f     >...>...>...?...
e6310e58:	0804023f 1001023f 1802023f 00060240     ?...?...?...@...
e6310e68:	08060240 10020240 18020240 00020241     @...@...@...A...
e6310e78:	ffffffff 08100241 18010241 00010242     ....A...A...B...
e6310e88:	08010242 10040242 18010242 00040243     B...B...B...C...
e6310e98:	08020243 10080243 ffffffff ffffffff     C...C...........
e6310ea8:	ffffffff 000a0244 00200245 00200246     ....D...E. .F. .
e6310eb8:	00050247 08010247 10050247 18080247     G...G...G...G...
e6310ec8:	00010248 08080248 10010248 18080248     H...H...H...H...
e6310ed8:	00010249 08040249 10040249 18040249     I...I...I...I...
e6310ee8:	0004024a 0804024a 1004024a 1804024a     J...J...J...J...
e6310ef8:	0004024b 0804024b 1004024b 1801024b     K...K...K...K...
e6310f08:	0004024c 0804024c 1004024c 1804024c     L...L...L...L...
e6310f18:	0004024d 0804024d 1006024d 1806024d     M...M...M...M...
e6310f28:	0006024e 0806024e 1006024e 1806024e     N...N...N...N...
e6310f38:	ffffffff 0001024f 0801024f 1002024f     ....O...O...O...
e6310f48:	ffffffff ffffffff ffffffff ffffffff     ................
e6310f58:	ffffffff ffffffff ffffffff ffffffff     ................
e6310f68:	1804024f 00040250 08010250 10010250     O...P...P...P...
e6310f78:	18010250 00010251 08010251 10010251     P...Q...Q...Q...
e6310f88:	18010251 00010252 08010252 10040252     Q...R...R...R...
e6310f98:	18040252 000a0253 00200254 00040255     R...S...T. .U...
e6310fa8:	08080255 10020255 18020255 00020256     U...U...U...V...
e6310fb8:	08020256 10020256 18020256 ffffffff     V...V...V.......
e6310fc8:	ffffffff 00200257 00020258 08100258     ....W. .X...X...
e6310fd8:	00100259 10040259 18040259 0005025a     Y...Y...Y...Z...
e6310fe8:	0805025a 0020025b 0020025c 0020025d     Z...[. .\. .]. .
e6310ff8:	0020025e 0001025f 0801025f 1007025f     ^. ._..._..._...
e6311008:	1807025f 00070260 08070260 10070260     _...`...`...`...
e6311018:	18070260 00070261 08070261 10070261     `...a...a...a...
e6311028:	18070261 00070262 08070262 10070262     a...b...b...b...
e6311038:	18070262 00030263 08030263 10030263     b...c...c...c...
e6311048:	ffffffff 18010263 00020264 08010264     ....c...d...d...
e6311058:	10040264 18020264 00010265 08010265     d...d...e...e...
e6311068:	10010265 18010265 00040266 08080266     e...e...f...f...
e6311078:	100a0266 000a0267 100a0267 000a0268     f...g...g...h...
e6311088:	100a0268 000a0269 0020026a 0020026b     h...i...j. .k. .
e6311098:	0001026c 0802026c 1002026c 1802026c     l...l...l...l...
e63110a8:	ffffffff 0002026d 0810026d 1805026d     ....m...m...m...
e63110b8:	0006026e 0805026e 1005026e 000e026f     n...n...n...o...
e63110c8:	1005026f 000e0270 10050270 000e0271     o...p...p...q...
e63110d8:	10050271 18010271 00050272 08050272     q...q...r...r...
e63110e8:	100a0272 000a0273 10050273 18050273     r...s...s...s...
e63110f8:	000a0274 100a0274 00050275 08050275     t...t...u...u...
e6311108:	100a0275 000a0276 ffffffff ffffffff     u...v...........
e6311118:	ffffffff ffffffff ffffffff ffffffff     ................
e6311128:	10070276 18070276 00040277 08040277     v...v...w...w...
e6311138:	ffffffff ffffffff ffffffff 10040277     ............w...
e6311148:	18080277 00080278 08040278 ffffffff     w...x...x.......
e6311158:	ffffffff ffffffff 10040278 ffffffff     ........x.......
e6311168:	ffffffff ffffffff 18040278 ffffffff     ........x.......
e6311178:	ffffffff ffffffff 00040279 08050279     ........y...y...
e6311188:	10070279 18080279 0010027a 1008027a     y...y...z...z...
e6311198:	0010027b 1008027b 0010027c 1008027c     {...{...|...|...
e63111a8:	1808027c 0001027d 0801027d 1006027d     |...}...}...}...
e63111b8:	1806027d 0006027e 0801027e 1001027e     }...~...~...~...
e63111c8:	1803027e 000a027f 100a027f 000a0280     ~...............
e63111d8:	ffffffff 100a0280 00040281 08010281     ................
e63111e8:	10040281 ffffffff ffffffff ffffffff     ................
e63111f8:	ffffffff ffffffff ffffffff 18070281     ................
e6311208:	00070282 08050282 10050282 ffffffff     ................
e6311218:	ffffffff ffffffff 18040282 00010283     ................
e6311228:	08010283 10020283 18080283 00200284     .............. .
e6311238:	00200285 00100286 10020286 18020286     .. .............
e6311248:	00020287 ffffffff 08010287 10010287     ................
e6311258:	18020287 00080288 08080288 10080288     ................
e6311268:	18080288 00080289 08080289 ffffffff     ................
e6311278:	10080289 18080289 0008028a 0808028a     ................
e6311288:	1008028a 1808028a ffffffff 0008028b     ................
e6311298:	0808028b 1008028b 1808028b 0008028c     ................
e63112a8:	0808028c ffffffff 1008028c 1808028c     ................
e63112b8:	0008028d 0808028d 1008028d 1808028d     ................
e63112c8:	0008028e ffffffff 0808028e 1008028e     ................
e63112d8:	1808028e 0008028f 0808028f 1008028f     ................
e63112e8:	ffffffff 1808028f 00080290 08080290     ................
e63112f8:	10080290 18080290 00080291 ffffffff     ................
e6311308:	08080291 10080291 18080291 00080292     ................
e6311318:	08080292 10080292 18080292 ffffffff     ................
e6311328:	00080293 08080293 10080293 18080293     ................
e6311338:	00080294 08080294 ffffffff 10080294     ................
e6311348:	18080294 00080295 08080295 10080295     ................
e6311358:	18080295 ffffffff 00080296 08080296     ................
e6311368:	10080296 18080296 00080297 08080297     ................
e6311378:	10080297 ffffffff 18080297 00080298     ................
e6311388:	08080298 10080298 18080298 00080299     ................
e6311398:	ffffffff 08080299 10080299 18080299     ................
e63113a8:	0008029a 0808029a 1008029a ffffffff     ................
e63113b8:	1808029a 0002029b 0803029b 100a029b     ................
e63113c8:	000a029c 100a029c 0005029d 0808029d     ................
e63113d8:	1008029d 1808029d 0006029e 0806029e     ................
e63113e8:	0011029f 1808029f 000402a0 080602a0     ................
e63113f8:	ffffffff 100602a0 180802a0 ffffffff     ................
e6311408:	000802a1 080802a1 100802a1 180602a1     ................
e6311418:	000602a2 081102a2 000802a3 080402a3     ................
e6311428:	100602a3 ffffffff 180602a3 000802a4     ................
e6311438:	ffffffff 080802a4 100802a4 180802a4     ................
e6311448:	000602a5 080602a5 001102a6 180802a6     ................
e6311458:	000402a7 080602a7 ffffffff 100602a7     ................
e6311468:	180802a7 ffffffff 000402a8 080402a8     ................
e6311478:	100402a8 180402a8 000402a9 080402a9     ................
e6311488:	100402a9 180402a9 000402aa 080402aa     ................
e6311498:	100402aa 180402aa 000402ab 080402ab     ................
e63114a8:	100402ab 180402ab 000402ac 080402ac     ................
e63114b8:	100402ac 180402ac 001202ad 001102ae     ................
e63114c8:	001202af 002002b0 002002b1 002002b2     ...... ... ... .
e63114d8:	002002b3 002002b4 002002b5 002002b6     .. ... ... ... .
e63114e8:	002002b7 002002b8 000202b9 080502b9     .. ... .........
e63114f8:	100502b9 180102b9 000402ba 080402ba     ................
e6311508:	100402ba 180402ba 000402bb 080402bb     ................
e6311518:	100402bb 180402bb ffffffff ffffffff     ................
e6311528:	ffffffff ffffffff ffffffff ffffffff     ................
e6311538:	000402bc 080402bc 100402bc 180402bc     ................
e6311548:	000402bd 080402bd 100402bd 180402bd     ................
e6311558:	000102be 080202be 100202be 180202be     ................
e6311568:	000202bf 080102bf 100402bf 001002c0     ................
e6311578:	002002c1 001002c2 002002c3 001002c4     .. ....... .....
e6311588:	002002c5 000702c6 080102c6 100202c6     .. .............
e6311598:	180602c6 000102c7 080102c7 002002c8     .............. .
e63115a8:	000202c9 002002ca 002002cb 000c02cc     ...... ... .....
e63115b8:	100c02cc 002002cd 000302ce 002002cf     ...... ....... .
e63115c8:	000302d0 002002d1 000302d2 002002d3     ...... ....... .
e63115d8:	000302d4 002002d5 000302d6 002002d7     ...... ....... .
e63115e8:	000302d8 002002d9 000302da 002002db     ...... ....... .
e63115f8:	000302dc 002002dd 000302de 002002df     ...... ....... .
e6311608:	000302e0 080302e0 100202e0 180202e0     ................
e6311618:	002002e1 002002e2 002002e3 002002e4     .. ... ... ... .
e6311628:	000402e5 001e02e6 001e02e7 001e02e8     ................
e6311638:	001e02e9 001e02ea 001e02eb 001e02ec     ................
e6311648:	001e02ed 000402ee ffffffff ffffffff     ................
e6311658:	ffffffff ffffffff 080402ee 100102ee     ................
e6311668:	180802ee 000402ef 080102ef 100802ef     ................
e6311678:	180402ef 000102f0 080802f0 100402f0     ................
e6311688:	180102f0 000802f1 080402f1 100102f1     ................
e6311698:	180802f1 000402f2 080102f2 100802f2     ................
e63116a8:	180402f2 000102f3 080802f3 100402f3     ................
e63116b8:	180102f3 000802f4 080802f4 100102f4     ................
e63116c8:	180502f4 ffffffff ffffffff ffffffff     ................
e63116d8:	ffffffff ffffffff ffffffff ffffffff     ................
e63116e8:	ffffffff ffffffff ffffffff ffffffff     ................
e63116f8:	ffffffff ffffffff ffffffff ffffffff     ................
e6311708:	ffffffff ffffffff ffffffff ffffffff     ................
e6311718:	ffffffff ffffffff ffffffff 00200800     .............. .
e6311728:	00040801 080b0801 000a0802 10020802     ................
e6311738:	18010802 00060803 08060803 10060803     ................
e6311748:	18060803 00060804 08060804 10050804     ................
e6311758:	18060804 00060805 08040805 10030805     ................
e6311768:	00180806 18030806 00180807 18020807     ................
e6311778:	0801085e 00020808 08010808 10010808     ^...............
e6311788:	18020808 00050809 08050809 10040809     ................
e6311798:	ffffffff 18040809 0002080a 0805080a     ................
e63117a8:	1009080a 0001080b 0020080c 001c080d     .......... .....
e63117b8:	0001080e 0807080e 1009080e 000a080f     ................
e63117c8:	1005080f 1801080f 10010810 18020810     ................
e63117d8:	00090810 00090811 10020811 00200812     .............. .
e63117e8:	00010813 08020813 00200814 00200815     .......... ... .
e63117f8:	00200816 00200817 ffffffff ffffffff     .. ... .........
e6311808:	ffffffff ffffffff 00030818 08010818     ................
e6311818:	10040818 18030818 00040819 08040819     ................
e6311828:	10040819 18040819 0001081a 0801081a     ................
e6311838:	1006081a 1804081a 0008081b 0806081b     ................
e6311848:	1004081b 1806081b 0004081c 0802081c     ................
e6311858:	1005081c 1808081c ffffffff 0006081d     ................
e6311868:	0803081d 100b081d 0004081e 0804081e     ................
e6311878:	1004081e 1801081e ffffffff 0009081f     ................
e6311888:	00200820 00200821 00200822 00200823      . .!. .". .#. .
e6311898:	00100824 ffffffff 10010824 18060824     $.......$...$...
e63118a8:	00080825 00200826 00100827 100b0827     %...&. .'...'...
e63118b8:	00070828 08070828 10090828 00090829     (...(...(...)...
e63118c8:	100b0829 0007082a 0808082a 1009082a     )...*...*...*...
e63118d8:	0003082b 080a082b 000a082c 0011082d     +...+...,...-...
e63118e8:	000a082e 100a082e 0010082f 100e082f     ......../.../...
e63118f8:	000e0830 00120831 000a0832 100a0832     0...1...2...2...
e6311908:	00020833 00200834 000b0835 100b0835     3...4. .5...5...
e6311918:	00200836 00130837 00200838 00200839     6. .7...8. .9. .
e6311928:	0008083a 0801083a 1001083a 1801083a     :...:...:...:...
e6311938:	0008083b 080c083b 000c083c 100c083c     ;...;...<...<...
e6311948:	000c083d 100c083d 000c083e 100c083e     =...=...>...>...
e6311958:	000c083f 100c083f 000c0840 100c0840     ?...?...@...@...
e6311968:	000b0841 10090841 00010842 000b0843     A...A...B...C...
e6311978:	100b0843 000b0844 100b0844 000b0845     C...D...D...E...
e6311988:	100b0845 000b0846 100b0846 000b0847     E...F...F...G...
e6311998:	100a0847 00020848 080a0848 000a0849     G...H...H...I...
e63119a8:	100a0849 000a084a 100a084a 000a084b     I...J...J...K...
e63119b8:	100a084b 000a084c 100a084c 000a084d     K...L...L...M...
e63119c8:	100a084d 000a084e 100a084e 000a084f     M...N...N...O...
e63119d8:	100a084f 000a0850 100a0850 000a0851     O...P...P...Q...
e63119e8:	100a0851 000a0852 100a0852 000a0853     Q...R...R...S...
e63119f8:	100a0853 000a0854 100a0854 000a0855     S...T...T...U...
e6311a08:	100a0855 000a0856 10040856 18030856     U...V...V...V...
e6311a18:	000a0857 100a0857 00010858 080a0858     W...W...X...X...
e6311a28:	18040858 000b0859 100a0859 0003085a     X...Y...Y...Z...
e6311a38:	0008085b 0808085b 1008085b 1808085b     [...[...[...[...
e6311a48:	0008085c 0808085c 1008085c 1801085c     \...\...\...\...
e6311a58:	0008085d 0808085d 1002085d 1802085d     ]...]...]...]...
e6311a68:	0005085e 1005085e 1805085e 0004085f     ^...^...^..._...
e6311a78:	080b085f 1806085f 00080860 08080860     _..._...`...`...
e6311a88:	10040860 18040860 00060861 08040861     `...`...a...a...
e6311a98:	10050861 000a0862 100a0862 00080863     a...b...b...c...
e6311aa8:	08010863 10040863 00020864 08030864     c...c...d...d...
e6311ab8:	00050a00 08050a00 10050a00 18050a00     ................
e6311ac8:	00050a01 08050a01 100b0a01 00010a02     ................
e6311ad8:	08030a02 00200a03 00100a04 10040a04     ...... .........
e6311ae8:	000b0a05 10070a05 00090a06 10030a06     ................
e6311af8:	18030a06 00010a07 08010a07 10070a07     ................
e6311b08:	18070a07 00050a08 08010a08 10020a08     ................
e6311b18:	18030a08 00010a09 080f0a09 00200a0a     .............. .
e6311b28:	00200a0b 000b0a0c 100b0a0c 000b0a0d     .. .............
e6311b38:	00180a0e 00180a0f ffffffff ffffffff     ................
e6311b48:	ffffffff ffffffff ffffffff 18020a0f     ................
e6311b58:	00020a10 08040a10 10040a10 18010a10     ................
e6311b68:	00010a11 08010a11 10030a11 00200a12     .............. .
e6311b78:	00200a13 ffffffff 00140a14 00140a15     .. .............
e6311b88:	00140a16 00140a17 00140a18 00140a19     ................
e6311b98:	00140a1a 00140a1b 001e0a1c 000a0a1d     ................
e6311ba8:	10060a1d 18060a1d 00060a1e 08060a1e     ................
e6311bb8:	10060a1e 00080a1f 080b0a1f 000b0a20     ............ ...
e6311bc8:	100b0a20 000b0a21 100b0a21 000b0a22      ...!...!..."...
e6311bd8:	10040a22 000b0a23 10060a23 18080a23     "...#...#...#...
e6311be8:	00080a24 08040a24 00020b80 00010b81     $...$...........
e6311bf8:	08010b81 10020b81 18050b81 00050b82     ................
e6311c08:	08050b82 10050b82 000b0b83 10050b83     ................
e6311c18:	18010b83 00010b84 08010b84 10010b84     ................
e6311c28:	18010b84 00040b85 080b0b85 000b0b86     ................
e6311c38:	100b0b86 00040b87 080b0b87 18040b87     ................
e6311c48:	00010b88 08010b88 10010b88 00200b89     .............. .
e6311c58:	00200b8a 00080b8b 080a0b8b 18050b8b     .. .............
e6311c68:	000b0b8c 10030b8c 18030b8c 00010b8d     ................
e6311c78:	08020b8d 10010b8d 18010b8d 00010b8e     ................
e6311c88:	ffffffff 08010b8e 18040b8e 00040b8f     ................
e6311c98:	08040b8f 10040b8f 18010b8f 00010b90     ................
e6311ca8:	08010b90 00200b91 00200b92 00200b93     ...... ... ... .
e6311cb8:	00200b94 ffffffff 10010b8e 000d0b96     .. .............
e6311cc8:	100d0b96 000d0b97 00050b98 00010b99     ................
e6311cd8:	080e0b99 000e0b9a 100e0b9a 000e0b9b     ................
e6311ce8:	100e0b9b 00040b9c 08040b9c 10040b9c     ................
e6311cf8:	18040b9c 00040b9d 080b0b9d 000b0b9e     ................
e6311d08:	100b0b9e 000b0b9f 00040ba0 08040ba0     ................
e6311d18:	10040ba0 18040ba0 000d0ba1 100d0ba1     ................
e6311d28:	000d0ba2 10100ba2 00080b95 08080b95     ................
e6311d38:	00100ba3 10100ba3 00100ba4 10100ba4     ................
e6311d48:	00100ba5 10030ba5 18040ba5 00010ba6     ................
e6311d58:	08080ba6 10010ba6 000a0ba7 10010ba7     ................
e6311d68:	00140ba8 000b0ba9 100c0ba9 00120baa     ................
e6311d78:	00140bab 00120bac 00110bad 00110bae     ................
e6311d88:	00120baf 00120bb0 00120bb1 00120bb2     ................
e6311d98:	00120bb3 00120bb4 00120bb5 00120bb6     ................
e6311da8:	00120bb7 00120bb8 000e0bb9 100d0bb9     ................
e6311db8:	00200bba 00170bbb 000d0bbc 10010bbc     .. .............
e6311dc8:	18010bbc 00200bbd 00080bbe 08030bbe     ...... .........
e6311dd8:	10030bbe 00180bbf 00180bc0 18070bc0     ................
e6311de8:	00070bc1 08080bc1 10080bc1 18080bc1     ................
e6311df8:	00010bc2 08010bc2 00200bc3 00070bc4     .......... .....
e6311e08:	08140bc4 00140bc5 00190bc6 00170bc7     ................
e6311e18:	00110bc8 00110bc9 00100bca 10010bca     ................
e6311e28:	18010bca 00020bcb 08040bcb 10090bcb     ................
e6311e38:	00070bcc 08040bcc 00200bcd 00010bce     .......... .....
e6311e48:	08020bce 10060bce 00100bcf 10010bcf     ................
e6311e58:	00200bd0 00080bd1 08010bd1 10050bd1     .. .............
e6311e68:	18030bd1 00020bd2 ffffffff 00200bd3     .............. .
e6311e78:	000b0bd4 ffffffff 10030bd4 18080bd4     ................
e6311e88:	00020bd5 080c0bd5 18040bd5 00010bd6     ................
e6311e98:	08050bd6 00010200 08040200 10100200     ................
e6311ea8:	00010201 08010201 10010201 18010201     ................
e6311eb8:	00100202 10080202 18010202 00200203     .............. .
e6311ec8:	00200204 00200205 00200206 00020207     .. ... ... .....
e6311ed8:	08010207 10010207 00200208 00140209     .......... .....
e6311ee8:	0020020a 0014020b 0020020c 0014020d     .. ....... .....
e6311ef8:	0014020e 0020020f 00200210 00200211     ...... ... ... .
e6311f08:	00200212 00140213 00200214 00200215     .. ....... ... .
e6311f18:	00200216 00200217 00140218 00200219     .. ... ....... .
e6311f28:	0020021a 0020021b 0020021c 0009021d     .. ... ... .....
e6311f38:	1001021d 0020021e 0005021f 0801021f     ...... .........
e6311f48:	1008021f 1808021f 001e0220 001e0221     ........ ...!...
e6311f58:	001e0222 001e0223 001e0224 001e0225     "...#...$...%...
e6311f68:	001e0226 001e0227 001e0228 001e0229     &...'...(...)...
e6311f78:	001e022a 001e022b 001e022c 001e022d     *...+...,...-...
e6311f88:	001e022e 001e022f 00010230 08010230     ..../...0...0...
e6311f98:	10010230 18040230 00080231 08080231     0...0...1...1...
e6311fa8:	10080231 18040231 00070232 08060232     1...1...2...2...
e6311fb8:	10070232 18070232 00060233 08070233     2...2...3...3...
e6311fc8:	10070233 18060233 00070234 08020234     3...3...4...4...
e6311fd8:	10010234 18010234 000a0235 00140236     4...4...5...6...
e6311fe8:	000a0237 00140238 000a0239 0014023a     7...8...9...:...
e6311ff8:	ffffffff ffffffff 0005023b 0001023c     ........;...<...
e6312008:	1001023c 1801023c 0001023d 0801023d     <...<...=...=...
e6312018:	1001023d 1801023d 0002023e 0802023e     =...=...>...>...
e6312028:	1002023e 1802023e 0002023f 0803023f     >...>...?...?...
e6312038:	1001023f 1801023f 00010240 08010240     ?...?...@...@...
e6312048:	10010240 18020240 00010241 08010241     @...@...A...A...
e6312058:	10010241 18020241 00010242 08010242     A...A...B...B...
e6312068:	10010242 18020242 00010243 08010243     B...B...C...C...
e6312078:	10010243 18020243 ffffffff 00010244     C...C.......D...
e6312088:	08010244 10010244 18010244 00010245     D...D...D...E...
e6312098:	08010245 10010245 18010245 00040246     E...E...E...F...
e63120a8:	08040246 10040246 18010246 00020247     F...F...F...G...
e63120b8:	08060247 10060247 18020247 00020248     G...G...G...H...
e63120c8:	08020248 ffffffff 10100248 00010249     H.......H...I...
e63120d8:	08010249 10010249 18040249 0001024a     I...I...I...J...
e63120e8:	0804024a 1003024a 1808024a 000a024b     J...J...J...K...
e63120f8:	100a024b 000a024c ffffffff 0020024d     K...L.......M. .
e6312108:	0020024e 0005024f 1801023a 0805023c     N. .O...:...<...
e6312118:	0808024f 1001024f 1808024f 00010250     O...O...O...P...
e6312128:	08080250 10010250 18040250 00040251     P...P...P...Q...
e6312138:	08040251 10040251 18040251 00040252     Q...Q...Q...R...
e6312148:	08040252 10040252 18040252 00040253     R...R...R...S...
e6312158:	08010253 10040253 18040253 00040254     S...S...S...T...
e6312168:	08040254 10040254 18040254 00060255     T...T...T...U...
e6312178:	08060255 10060255 18060255 00060256     U...U...U...V...
e6312188:	08060256 10040256 18010256 00010257     V...V...V...W...
e6312198:	08020257 00200258 00200259 0020025a     W...X. .Y. .Z. .
e63121a8:	0020025b 0020025c 0020025d 0020025e     [. .\. .]. .^. .
e63121b8:	0020025f 00040260 08040260 10010260     _. .`...`...`...
e63121c8:	18010260 00010261 08010261 10010261     `...a...a...a...
e63121d8:	18010261 00010262 08010262 10010262     a...b...b...b...
e63121e8:	18040262 00040263 080a0263 00200264     b...c...c...d. .
e63121f8:	00040265 08080265 10020265 18020265     e...e...e...e...
e6312208:	00020266 08020266 10020266 18020266     f...f...f...f...
e6312218:	ffffffff ffffffff 00200267 00030268     ........g. .h...
e6312228:	08100268 00100269 10040269 18040269     h...i...i...i...
e6312238:	0005026a 0805026a ffffffff ffffffff     j...j...........
e6312248:	ffffffff ffffffff 1001026a 1801026a     ........j...j...
e6312258:	0008026b 0808026b 1008026b 1808026b     k...k...k...k...
e6312268:	0008026c 0808026c 1008026c 1808026c     l...l...l...l...
e6312278:	0008026d 0808026d 1008026d 1808026d     m...m...m...m...
e6312288:	0008026e 0808026e 1003026e 1803026e     n...n...n...n...
e6312298:	0003026f ffffffff 0801026f 1002026f     o.......o...o...
e63122a8:	1801026f 00040270 08020270 10010270     o...p...p...p...
e63122b8:	18010270 00010271 08010271 10040271     p...q...q...q...
e63122c8:	18080271 000a0272 100a0272 000a0273     q...r...r...s...
e63122d8:	100a0273 000a0274 100a0274 00200275     s...t...t...u. .
e63122e8:	00200276 00010277 08020277 10020277     v. .w...w...w...
e63122f8:	18020277 ffffffff 00020278 08100278     w.......x...x...
e6312308:	18050278 00060279 08050279 10050279     x...y...y...y...
e6312318:	000e027a 1005027a 000e027b 1005027b     z...z...{...{...
e6312328:	000e027c 1005027c 1801027c 0005027d     |...|...|...}...
e6312338:	0805027d 100a027d 000a027e 1005027e     }...}...~...~...
e6312348:	1805027e 000a027f 100a027f 00050280     ~...............
e6312358:	08050280 100a0280 000a0281 10070281     ................
e6312368:	18070281 00070282 08070282 10070282     ................
e6312378:	18070282 ffffffff ffffffff 00040283     ................
e6312388:	08040283 10040283 18040283 00040284     ................
e6312398:	ffffffff 08080284 10080284 18040284     ................
e63123a8:	00050285 08080285 10050285 18040285     ................
e63123b8:	00050286 08080286 10050286 18040286     ................
e63123c8:	00050287 08080287 10050287 18040287     ................
e63123d8:	00050288 08070288 10080288 00100289     ................
e63123e8:	10080289 0010028a 1008028a 0010028b     ................
e63123f8:	1008028b 1808028b 0001028c 0801028c     ................
e6312408:	1006028c 1806028c 0006028d 0801028d     ................
e6312418:	1001028d 1803028d 000a028e 100a028e     ................
e6312428:	000a028f ffffffff 100a028f 00040290     ................
e6312438:	08010290 10040290 18070290 00070291     ................
e6312448:	08070291 10070291 18070291 00070292     ................
e6312458:	ffffffff ffffffff 08050292 10050292     ................
e6312468:	18040292 00040293 08040293 ffffffff     ................
e6312478:	10010293 18010293 00020294 08080294     ................
e6312488:	00200295 00200296 00100297 10020297     .. ... .........
e6312498:	18020297 00020298 ffffffff 08010298     ................
e63124a8:	10010298 18020298 00100299 10100299     ................
e63124b8:	0010029a 1008029a 1808029a 0008029b     ................
e63124c8:	0808029b 1010029b 0010029c 1010029c     ................
e63124d8:	0008029d 0808029d 1008029d 1808029d     ................
e63124e8:	0010029e 1010029e 0010029f 1008029f     ................
e63124f8:	1808029f 000802a0 080802a0 100802a0     ................
e6312508:	001002a1 101002a1 001002a2 100802a2     ................
e6312518:	180802a2 000802a3 080802a3 101002a3     ................
e6312528:	001002a4 101002a4 000802a5 080802a5     ................
e6312538:	100802a5 180802a5 001002a6 101002a6     ................
e6312548:	001002a7 100802a7 180802a7 000802a8     ................
e6312558:	080802a8 100802a8 001002a9 101002a9     ................
e6312568:	001002aa 100802aa 180802aa 000802ab     ................
e6312578:	080802ab 101002ab 001002ac 101002ac     ................
e6312588:	000802ad 080802ad 100802ad 180802ad     ................
e6312598:	001002ae 101002ae 001002af 100802af     ................
e63125a8:	180802af 000802b0 080802b0 100802b0     ................
e63125b8:	001002b1 101002b1 001002b2 100802b2     ................
e63125c8:	180802b2 000802b3 080802b3 101002b3     ................
e63125d8:	001002b4 101002b4 000802b5 080802b5     ................
e63125e8:	100802b5 180802b5 001002b6 101002b6     ................
e63125f8:	001002b7 100802b7 180802b7 000802b8     ................
e6312608:	080802b8 100802b8 180202b8 000302b9     ................
e6312618:	080a02b9 000a02ba 100a02ba 000502bb     ................
e6312628:	080802bb 100802bb 180802bb 000602bc     ................
e6312638:	080602bc 001102bd 180802bd 000402be     ................
e6312648:	080602be 100802be 180802be 000802bf     ................
e6312658:	080802bf 100802bf 180802bf 000802c0     ................
e6312668:	080602c0 100602c0 001102c1 180802c1     ................
e6312678:	000402c2 080602c2 100802c2 180802c2     ................
e6312688:	000802c3 080802c3 100802c3 180802c3     ................
e6312698:	000802c4 080602c4 100602c4 001102c5     ................
e63126a8:	180802c5 000402c6 080602c6 100802c6     ................
e63126b8:	180802c6 000802c7 080802c7 100402c7     ................
e63126c8:	180402c7 000402c8 080402c8 100402c8     ................
e63126d8:	180402c8 000402c9 080402c9 100402c9     ................
e63126e8:	180402c9 000402ca 080402ca 100402ca     ................
e63126f8:	180402ca 000402cb 080402cb 100402cb     ................
e6312708:	180402cb 000402cc 080402cc 001702cd     ................
e6312718:	001602ce 001702cf 002002d0 002002d1     .......... ... .
e6312728:	002002d2 002002d3 002002d4 002002d5     .. ... ... ... .
e6312738:	002002d6 002002d7 002002d8 000202d9     .. ... ... .....
e6312748:	080502d9 100502d9 180102d9 000502da     ................
e6312758:	080502da 100502da 180502da 000502db     ................
e6312768:	080502db 100502db 180502db 000502dc     ................
e6312778:	080502dc 100502dc 180502dc 000502dd     ................
e6312788:	080502dd 100502dd 180502dd 000502de     ................
e6312798:	080502de 100502de 180502de 000502df     ................
e63127a8:	080502df 100102df 180202df 000202e0     ................
e63127b8:	080202e0 100202e0 180102e0 000802e1     ................
e63127c8:	081502e1 002002e2 001502e3 002002e4     ...... ....... .
e63127d8:	001502e5 002002e6 000702e7 080102e7     ...... .........
e63127e8:	100202e7 180602e7 000102e8 080102e8     ................
e63127f8:	002002e9 000202ea 002002eb 002002ec     .. ....... ... .
e6312808:	000c02ed 100c02ed 002002ee 000302ef     .......... .....
e6312818:	002002f0 000302f1 002002f2 000302f3     .. ....... .....
e6312828:	002002f4 000302f5 002002f6 000302f7     .. ....... .....
e6312838:	002002f8 000302f9 002002fa 000302fb     .. ....... .....
e6312848:	002002fc 000302fd 002002fe 000302ff     .. ....... .....
e6312858:	00200300 00030301 08030301 10020301     .. .............
e6312868:	18020301 00200302 00200303 00200304     ...... ... ... .
e6312878:	00200305 00040306 001e0307 001e0308     .. .............
e6312888:	001e0309 001e030a 001e030b 001e030c     ................
e6312898:	001e030d 001e030e 0004030f 0801030f     ................
e63128a8:	1010030f 00100310 10100310 00040311     ................
e63128b8:	08010311 10080311 18040311 00010312     ................
e63128c8:	08080312 10040312 18010312 00080313     ................
e63128d8:	08040313 10010313 18080313 00040314     ................
e63128e8:	08010314 10080314 18040314 00010315     ................
e63128f8:	08080315 10040315 18010315 00080316     ................
e6312908:	08040316 10010316 18080316 00080317     ................
e6312918:	00010318 08050318 10010318 18020318     ................
e6312928:	00010319 08010319 10010319 18010319     ................
e6312938:	0001031a 0801031a 1001031a 1801031a     ................
e6312948:	0001031b 0801031b 1001031b 1801031b     ................
e6312958:	0001031c 0801031c 1001031c 1801031c     ................
e6312968:	0008031d 0808031d 1008031d 1808031d     ................
e6312978:	49544f4e 203a4543 324c4220 4444203a     NOTICE:  BL2: DD
e6312988:	6e553a52 776f6e6b 7250206e 6375646f     R:Unknown Produc
e6312998:	4e000a74 4349544f 20203a45 3a324c42     t..NOTICE:  BL2:
e63129a8:	52444420 6b6e553a 6e776f6e 616f4220      DDR:Unknown Boa
e63129b8:	000a6472 2e766572 31342e30 544f4e00     rd..rev.0.41.NOT
e63129c8:	3a454349 4c422020 44203a32 64255244     ICE:  BL2: DDR%d
e63129d8:	29732528 4f4e000a 45434954 4220203a     (%s)..NOTICE:  B
e63129e8:	203a324c 5241575b 4f425f4d 0a5d544f     L2: [WARM_BOOT].
e63129f8:	544f4e00 3a454349 4c422020 5b203a32     .NOTICE:  BL2: [
e6312a08:	444c4f43 4f4f425f 000a5d54 49544f4e     COLD_BOOT]..NOTI
e6312a18:	203a4543 324c4220 425b203a 5f544f4f     CE:  BL2: [BOOT_
e6312a28:	54415453 555f5355 54414450 52455f45     STATUS_UPDATE_ER
e6312a38:	5d524f52 0000000a                       ROR]....

e6312a40 <TermcodeBySample>:
e6312a40:	b866cc10 3b250421 000158d5 b866cc10     ..f.!.%;.X....f.
e6312a50:	3aa50421 00015955 b866cc10 3aa48421     !..:UY....f.!..:
e6312a60:	00015955 b866cc10 3ab00c21 00015690     UY....f.!..:.V..
e6312a70:	b866cc10 39b10c21 00015753 b866cc10     ..f.!..9SW....f.
e6312a80:	3aaf8c21 00015793 b866cc10 3ba39421     !..:.W....f.!..;
e6312a90:	00015996 b866cc10 3c231421 000159d7     .Y....f.!.#<.Y..
e6312aa0:	b866cc10 3c241421 00015997 ffffffff     ..f.!.$<.Y......
e6312ab0:	ffffffff 0001554f 00000000 00000000     ....OU..........
	...

e6312b30 <_reg_PHY_CLK_CACS_SLAVE_DELAY_X>:
e6312b30:	00000127 00000128 00000129 0000012a     '...(...)...*...
e6312b40:	0000012b 0000012c 00000177 00000178     +...,...w...x...
e6312b50:	00000179 0000017a                       y...z...

e6312b58 <_reg_PHY_CLK_WRX_SLAVE_DELAY>:
e6312b58:	00000094 00000095 00000096 00000097     ................
e6312b68:	00000098 00000099 0000009a 0000009b     ................
e6312b78:	0000009c 0000009d                       ........

e6312b80 <_reg_PHY_PAD_TERM_X>:
e6312b80:	00000196 00000197 00000198 00000199     ................
e6312b90:	0000019a 0000019c 0000019e 000001a0     ................

e6312ba0 <_reg_PHY_RDDQS_X_FALL_SLAVE_DELAY>:
e6312ba0:	000000a9 000000ab 000000ad 000000af     ................
e6312bb0:	000000b1 000000b3 000000b5 000000b7     ................
e6312bc0:	000000b9                                ....

e6312bc4 <_reg_PHY_RDDQS_X_RISE_SLAVE_DELAY>:
e6312bc4:	000000a8 000000aa 000000ac 000000ae     ................
e6312bd4:	000000b0 000000b2 000000b4 000000b6     ................
e6312be4:	000000b8                                ....

e6312be8 <_reg_PHY_RX_CAL_X>:
e6312be8:	00000086 00000087 00000088 00000089     ................
e6312bf8:	0000008a 0000008b 0000008c 0000008d     ................
e6312c08:	0000008e 0000008f 00000090              ............

e6312c14 <_reg_PI_MR11_DATA_Fx_CSx>:
e6312c14:	00000366 0000037c 00000392 000003a8     f...|...........
e6312c24:	0000036d 00000383 00000399 000003af     m...............

e6312c34 <_reg_PI_MR12_DATA_Fx_CSx>:
e6312c34:	00000367 0000037d 00000393 000003a9     g...}...........
e6312c44:	0000036e 00000384 0000039a 000003b0     n...............

e6312c54 <_reg_PI_MR14_DATA_Fx_CSx>:
e6312c54:	00000368 0000037e 00000394 000003aa     h...~...........
e6312c64:	0000036f 00000385 0000039b 000003b1     o...............

e6312c74 <_reg_PI_MR1_DATA_Fx_CSx>:
e6312c74:	00000363 00000379 0000038f 000003a5     c...y...........
e6312c84:	0000036a 00000380 00000396 000003ac     j...............

e6312c94 <_reg_PI_MR2_DATA_Fx_CSx>:
e6312c94:	00000364 0000037a 00000390 000003a6     d...z...........
e6312ca4:	0000036b 00000381 00000397 000003ad     k...............

e6312cb4 <_reg_PI_MR3_DATA_Fx_CSx>:
e6312cb4:	00000365 0000037b 00000391 000003a7     e...{...........
e6312cc4:	0000036c 00000382 00000398 000003ae     l...............
e6312cd4:	00000000                                ....

e6312cd8 <boardcnfs>:
e6312cd8:	02c00103 03000000 000000a0 00000000     ................
e6312ce8:	00000202 00000000 00543210 00000000     .........2T.....
e6312cf8:	00003201 70612543 43251670 45326170     .2..C%app.%Cpa2E
e6312d08:	10672534 08080808 005500aa 015500aa     4%g.......U...U.
e6312d18:	013301cc 003300cc 010f00f0 010f01f0     ..3...3.........
e6312d28:	00f000f0 010f000f 00000000 00000000     ................
	...
e6312d88:	00000202 00000000 00543210 00000000     .........2T.....
e6312d98:	00002310 01327654 34526107 35421670     .#..Tv2..aR4p.B5
e6312da8:	70615324 08080808 005500aa 015500aa     $Sap......U...U.
e6312db8:	013301cc 003300cc 010f00f0 010f01f0     ..3...3.........
e6312dc8:	00f000f0 010f000f 00000000 00000000     ................
	...
e6312f68:	02c00103 03000000 000000a0 00000000     ................
e6312f78:	00000202 00000000 00345201 00000000     .........R4.....
e6312f88:	00003201 01672543 45361207 45632107     .2..C%g...6E.!cE
e6312f98:	60715234 08080808 005500aa 015500aa     4Rq`......U...U.
e6312fa8:	013301cc 003300cc 010f00f0 010f01f0     ..3...3.........
e6312fb8:	00f000f0 010f000f 00000000 00000000     ................
	...
e6313018:	00000202 00000000 00302154 00000000     ........T!0.....
e6313028:	00002310 01672543 45361207 45632107     .#..C%g...6E.!cE
e6313038:	60715234 08080808 005500aa 015500aa     4Rq`......U...U.
e6313048:	013301cc 003300cc 010f00f0 010f01f0     ..3...3.........
e6313058:	00f000f0 010f000f 00000000 00000000     ................
	...
e63131f8:	0300000f 0300fec0 000000a0 00000000     ................
e6313208:	0000ff02 00000000 00543210 00000000     .........2T.....
e6313218:	00003210 20741365 34256107 57460321     .2..e.t .a%4!.FW
e6313228:	70614532 08080808 005500aa 015500aa     2Eap......U...U.
e6313238:	013301cc 003300cc 010f00f0 010f01f0     ..3...3.........
e6313248:	00f000f0 010f000f 00000000 00000000     ................
	...
e63132a8:	0000ff02 00000000 00543210 00000000     .........2T.....
e63132b8:	00003102 23547610 34526107 67452310     .1...vT#.aR4.#Eg
e63132c8:	32106754 08080808 005500aa 015500aa     Tg.2......U...U.
e63132d8:	013301cc 003300cc 010f00f0 010f01f0     ..3...3.........
e63132e8:	00f000f0 010f000f 00000000 00000000     ................
	...
e6313348:	0000ff02 00000000 00543210 00000000     .........2T.....
e6313358:	00000213 30216754 67453210 70165243     ....Tg!0.2EgCR.p
e6313368:	07162345 08080808 005500aa 015500aa     E#........U...U.
e6313378:	013301cc 003300cc 010f00f0 010f01f0     ..3...3.........
e6313388:	00f000f0 010f000f 00000000 00000000     ................
	...
e63133e8:	0000ff02 00000000 00543210 00000000     .........2T.....
e63133f8:	00000213 01327654 70615432 54760123     ....Tv2.2Tap#.vT
e6313408:	07162345 08080808 005500aa 015500aa     E#........U...U.
e6313418:	013301cc 003300cc 010f00f0 010f01f0     ..3...3.........
e6313428:	00f000f0 010f000f 00000000 00000000     ................
	...
e6313488:	02c00103 03000000 000000a0 00000000     ................
e6313498:	0000ff02 00000000 00543210 00000000     .........2T.....
e63134a8:	00003201 70612543 43251670 45326170     .2..C%app.%Cpa2E
e63134b8:	10672534 08080808 005500aa 015500aa     4%g.......U...U.
e63134c8:	013301cc 003300cc 010f00f0 010f01f0     ..3...3.........
e63134d8:	00f000f0 010f000f 00000000 00000000     ................
	...
e6313538:	0000ff02 00000000 00543210 00000000     .........2T.....
e6313548:	00002310 01327654 34526107 35421670     .#..Tv2..aR4p.B5
e6313558:	70615324 08080808 005500aa 015500aa     $Sap......U...U.
e6313568:	013301cc 003300cc 010f00f0 010f01f0     ..3...3.........
e6313578:	00f000f0 010f000f 00000000 00000000     ................
	...
e6313718:	02c0000f 0300fec0 000000a0 00000000     ................
e6313728:	0000ff02 00000000 00315024 00000000     ........$P1.....
e6313738:	00003120 30671254 26541037 17054623      1..T.g07.T&#F..
e6313748:	12307645 08080808 005500aa 015500aa     Ev0.......U...U.
e6313758:	013301cc 003300cc 010f00f0 010f01f0     ..3...3.........
e6313768:	00f000f0 010f000f 00000000 00000000     ................
	...
e63137c8:	0000ff02 00000000 00025143 00000000     ........CQ......
e63137d8:	00003210 70613542 16245307 30712645     .2..B5ap.S$.E&q0
e63137e8:	21706354 08080808 005500aa 015500aa     Tcp!......U...U.
e63137f8:	013301cc 003300cc 010f00f0 010f01f0     ..3...3.........
e6313808:	00f000f0 010f000f 00000000 00000000     ................
	...
e6313868:	0000ff02 00000000 00523104 00000000     .........1R.....
e6313878:	00002301 70613542 16245307 30712645     .#..B5ap.S$.E&q0
e6313888:	21706354 08080808 005500aa 015500aa     Tcp!......U...U.
e6313898:	013301cc 003300cc 010f00f0 010f01f0     ..3...3.........
e63138a8:	00f000f0 010f000f 00000000 00000000     ................
	...
e6313908:	0000ff02 00000000 00153402 00000000     .........4......
e6313918:	00002031 30671254 26541037 17054623     1 ..T.g07.T&#F..
e6313928:	12307645 08080808 005500aa 015500aa     Ev0.......U...U.
e6313938:	013301cc 003300cc 010f00f0 010f01f0     ..3...3.........
e6313948:	00f000f0 010f000f 00000000 00000000     ................
	...
e63139a8:	02c00103 03000000 000000a0 00000000     ................
e63139b8:	0000ff02 00000000 00345201 00000000     .........R4.....
e63139c8:	00003201 01672543 45361207 45632107     .2..C%g...6E.!cE
e63139d8:	60715234 08080808 005500aa 015500aa     4Rq`......U...U.
e63139e8:	013301cc 003300cc 010f00f0 010f01f0     ..3...3.........
e63139f8:	00f000f0 010f000f 00000000 00000000     ................
	...
e6313a58:	0000ff02 00000000 00302154 00000000     ........T!0.....
e6313a68:	00002310 01672543 45361207 45632107     .#..C%g...6E.!cE
e6313a78:	60715234 08080808 005500aa 015500aa     4Rq`......U...U.
e6313a88:	013301cc 003300cc 010f00f0 010f01f0     ..3...3.........
e6313a98:	00f000f0 010f000f 00000000 00000000     ................
	...
e6313c38:	0300000f 0300fec0 000000a0 00000000     ................
e6313c48:	00000202 00000000 00543210 00000000     .........2T.....
e6313c58:	00003210 20741365 34256107 57460321     .2..e.t .a%4!.FW
e6313c68:	70614532 08080808 005500aa 015500aa     2Eap......U...U.
e6313c78:	013301cc 003300cc 010f00f0 010f01f0     ..3...3.........
e6313c88:	00f000f0 010f000f 00000000 00000000     ................
	...
e6313ce8:	00000202 00000000 00543210 00000000     .........2T.....
e6313cf8:	00003102 23547610 34526107 67452310     .1...vT#.aR4.#Eg
e6313d08:	32106754 08080808 005500aa 015500aa     Tg.2......U...U.
e6313d18:	013301cc 003300cc 010f00f0 010f01f0     ..3...3.........
e6313d28:	00f000f0 010f000f 00000000 00000000     ................
	...
e6313d88:	00000202 00000000 00543210 00000000     .........2T.....
e6313d98:	00000213 30216754 67453210 70165243     ....Tg!0.2EgCR.p
e6313da8:	07162345 08080808 005500aa 015500aa     E#........U...U.
e6313db8:	013301cc 003300cc 010f00f0 010f01f0     ..3...3.........
e6313dc8:	00f000f0 010f000f 00000000 00000000     ................
	...
e6313e28:	00000202 00000000 00543210 00000000     .........2T.....
e6313e38:	00000213 01327654 70615432 54760123     ....Tv2.2Tap#.vT
e6313e48:	07162345 08080808 005500aa 015500aa     E#........U...U.
e6313e58:	013301cc 003300cc 010f00f0 010f01f0     ..3...3.........
e6313e68:	00f000f0 010f000f 00000000 00000000     ................
	...
e6313ec8:	0300010f 03000000 000000a0 00000000     ................
e6313ed8:	0000ff02 00000000 00543210 00000000     .........2T.....
e6313ee8:	00002310 70631425 34527016 43527610     .#..%.cp.pR4.vRC
e6313ef8:	32104567 08080808 005500aa 015500aa     gE.2......U...U.
e6313f08:	013301cc 003300cc 010f00f0 010f01f0     ..3...3.........
e6313f18:	00f000f0 010f000f 00000000 00000000     ................
	...
e6313f78:	0000ff02 00000000 00105432 00000000     ........2T......
e6313f88:	00003210 43256107 07162354 10234567     .2...a%CT#..gE#.
e6313f98:	01235467 08080808 005500aa 015500aa     gT#.......U...U.
e6313fa8:	013301cc 003300cc 010f00f0 010f01f0     ..3...3.........
e6313fb8:	00f000f0 010f000f 00000000 00000000     ................
	...
e6314018:	0000ff02 00000000 00543210 00000000     .........2T.....
e6314028:	00002301 01327654 02316457 10234567     .#..Tv2.Wd1.gE#.
e6314038:	01325467 08080808 005500aa 015500aa     gT2.......U...U.
e6314048:	013301cc 003300cc 010f00f0 010f01f0     ..3...3.........
e6314058:	00f000f0 010f000f 00000000 00000000     ................
	...
e63140b8:	0000ff02 00000000 00543210 00000000     .........2T.....
e63140c8:	00002301 12034765 23105467 23017645     .#..eG..gT.#Ev.#
e63140d8:	32106745 08080808 005500aa 015500aa     Eg.2......U...U.
e63140e8:	013301cc 003300cc 010f00f0 010f01f0     ..3...3.........
e63140f8:	00f000f0 010f000f 00000000 00000000     ................
	...
e6314158:	0300010f 03000000 000000a0 00000000     ................
e6314168:	00000202 00000000 00543210 00000000     .........2T.....
e6314178:	00002310 70631425 34527016 43527610     .#..%.cp.pR4.vRC
e6314188:	32104567 08080808 005500aa 015500aa     gE.2......U...U.
e6314198:	013301cc 003300cc 010f00f0 010f01f0     ..3...3.........
e63141a8:	00f000f0 010f000f 00000000 00000000     ................
	...
e6314208:	00000202 00000000 00105432 00000000     ........2T......
e6314218:	00003210 43256107 07162354 10234567     .2...a%CT#..gE#.
e6314228:	01235467 08080808 005500aa 015500aa     gT#.......U...U.
e6314238:	013301cc 003300cc 010f00f0 010f01f0     ..3...3.........
e6314248:	00f000f0 010f000f 00000000 00000000     ................
	...
e63142a8:	00000202 00000000 00543210 00000000     .........2T.....
e63142b8:	00002301 01327654 02316457 10234567     .#..Tv2.Wd1.gE#.
e63142c8:	01325467 08080808 005500aa 015500aa     gT2.......U...U.
e63142d8:	013301cc 003300cc 010f00f0 010f01f0     ..3...3.........
e63142e8:	00f000f0 010f000f 00000000 00000000     ................
	...
e6314348:	00000202 00000000 00543210 00000000     .........2T.....
e6314358:	00002301 12034765 23105467 23017645     .#..eG..gT.#Ev.#
e6314368:	32106745 08080808 005500aa 015500aa     Eg.2......U...U.
e6314378:	013301cc 003300cc 010f00f0 010f01f0     ..3...3.........
e6314388:	00f000f0 010f000f 00000000 00000000     ................
	...
e63143e8:	0300010f 03000000 000000a0 00000000     ................
e63143f8:	0000ff02 00000000 00543210 00000000     .........2T.....
e6314408:	00003210 27645310 75346210 53467210     .2...Sd'.b4u.rFS
e6314418:	23674510 08080808 005500aa 015500aa     .Eg#......U...U.
e6314428:	013301cc 003300cc 010f00f0 010f01f0     ..3...3.........
e6314438:	00f000f0 010f000f 00000000 00000000     ................
	...
e6314498:	0000ff02 00000000 00543210 00000000     .........2T.....
e63144a8:	00002301 23764510 43257610 43752610     .#...Ev#.v%C.&uC
e63144b8:	37652401 08080808 005500aa 015500aa     .$e7......U...U.
e63144c8:	013301cc 003300cc 010f00f0 010f01f0     ..3...3.........
e63144d8:	00f000f0 010f000f 80808080 00008080     ................
	...
e6314538:	0000ff02 00000000 00452103 00000000     .........!E.....
e6314548:	00003210 32764510 43257610 43752610     .2...Ev2.v%C.&uC
e6314558:	26573401 08080808 005500aa 015500aa     .4W&......U...U.
e6314568:	013301cc 003300cc 010f00f0 010f01f0     ..3...3.........
e6314578:	00f000f0 010f000f 00000000 00000000     ................
	...
e63145d8:	0000ff02 00000000 00520413 00000000     ..........R.....
e63145e8:	00002301 47652301 75346210 53467210     .#...#eG.b4u.rFS
e63145f8:	32674501 08080808 005500aa 015500aa     .Eg2......U...U.
e6314608:	013301cc 003300cc 010f00f0 010f01f0     ..3...3.........
e6314618:	00f000f0 010f000f 1e1e1e1e 1e1e1e1e     ................
e6314628:	00001e1e 00000000 00000000 00000000     ................
	...
e6314678:	03000101 03000000 000000a0 00000000     ................
e6314688:	00000202 00000000 00345201 00000000     .........R4.....
e6314698:	00003201 01672543 45361207 45632107     .2..C%g...6E.!cE
e63146a8:	60715234 08080808 005500aa 015500aa     4Rq`......U...U.
e63146b8:	013301cc 003300cc 010f00f0 010f01f0     ..3...3.........
e63146c8:	00f000f0 010f000f 00000000 00000000     ................
	...
e6314908:	03000101 03000000 000000a0 00000000     ................
e6314918:	00000404 00000000 00345201 00000000     .........R4.....
e6314928:	00003201 01672543 45361207 45632107     .2..C%g...6E.!cE
e6314938:	60715234 08080808 005500aa 015500aa     4Rq`......U...U.
e6314948:	013301cc 003300cc 010f00f0 010f01f0     ..3...3.........
e6314958:	00f000f0 010f000f 00000000 00000000     ................
	...
e6314b98:	03000101 03000000 000000a0 00000000     ................
e6314ba8:	00000202 00000000 00501342 00000000     ........B.P.....
e6314bb8:	00003201 70562134 34526071 23147506     .2..4!Vpq`R4.u.#
e6314bc8:	12430567 08080808 005500aa 015500aa     g.C.......U...U.
e6314bd8:	013301cc 003300cc 010f00f0 010f01f0     ..3...3.........
e6314be8:	00f000f0 010f000f 00000000 00000000     ................
	...
e6314e28:	02c00005 0300fec0 000000a0 00000000     ................
e6314e38:	00000202 00000000 00345201 00000000     .........R4.....
e6314e48:	00003201 01672543 45361207 45632107     .2..C%g...6E.!cE
e6314e58:	60715234 08080808 005500aa 015500aa     4Rq`......U...U.
e6314e68:	013301cc 003300cc 010f00f0 010f01f0     ..3...3.........
e6314e78:	00f000f0 010f000f 00000000 00000000     ................
	...
e6314ed8:	00000202 00000000 00302154 00000000     ........T!0.....
e6314ee8:	00002310 01672543 45361207 45632107     .#..C%g...6E.!cE
e6314ef8:	60715234 08080808 005500aa 015500aa     4Rq`......U...U.
e6314f08:	013301cc 003300cc 010f00f0 010f01f0     ..3...3.........
e6314f18:	00f000f0 010f000f 00000000 00000000     ................
	...
e6314f78:	00000202 00000000 00302154 00000000     ........T!0.....
e6314f88:	00002310 01672543 45361207 45632107     .#..C%g...6E.!cE
e6314f98:	60715234 08080808 005500aa 015500aa     4Rq`......U...U.
e6314fa8:	013301cc 003300cc 010f00f0 010f01f0     ..3...3.........
e6314fb8:	00f000f0 010f000f 00000000 00000000     ................
	...
e6315018:	0000ffff 00000000 00000000 00000000     ................
	...
e6315040:	005500aa 015500aa 013301cc 003300cc     ..U...U...3...3.
e6315050:	010f00f0 010f01f0 00f000f0 010f000f     ................
	...
e63150b8:	0300010f 03000000 000000a0 00000000     ................
e63150c8:	0000ff04 00000000 00543210 00000000     .........2T.....
e63150d8:	00002310 70631425 34527016 43527610     .#..%.cp.pR4.vRC
e63150e8:	32104567 08080808 005500aa 015500aa     gE.2......U...U.
e63150f8:	013301cc 003300cc 010f00f0 010f01f0     ..3...3.........
e6315108:	00f000f0 010f000f 00000000 00000000     ................
	...
e6315168:	0000ff04 00000000 00105432 00000000     ........2T......
e6315178:	00003210 43256107 07162354 10234567     .2...a%CT#..gE#.
e6315188:	01235467 08080808 005500aa 015500aa     gT#.......U...U.
e6315198:	013301cc 003300cc 010f00f0 010f01f0     ..3...3.........
e63151a8:	00f000f0 010f000f 00000000 00000000     ................
	...
e6315208:	0000ff04 00000000 00543210 00000000     .........2T.....
e6315218:	00002301 01327654 02316457 10234567     .#..Tv2.Wd1.gE#.
e6315228:	01325467 08080808 005500aa 015500aa     gT2.......U...U.
e6315238:	013301cc 003300cc 010f00f0 010f01f0     ..3...3.........
e6315248:	00f000f0 010f000f 00000000 00000000     ................
	...
e63152a8:	0000ff04 00000000 00543210 00000000     .........2T.....
e63152b8:	00002301 12034765 23105467 23017645     .#..eG..gT.#Ev.#
e63152c8:	32106745 08080808 005500aa 015500aa     Eg.2......U...U.
e63152d8:	013301cc 003300cc 010f00f0 010f01f0     ..3...3.........
e63152e8:	00f000f0 010f000f 00000000 00000000     ................
	...
e6315348:	03000105 03000000 000000a0 00000000     ................
e6315358:	00000202 00000000 00345201 00000000     .........R4.....
e6315368:	00003201 01672543 45367012 45632107     .2..C%g..p6E.!cE
e6315378:	60715234 08080808 005500aa 015500aa     4Rq`......U...U.
e6315388:	013301cc 003300cc 010f00f0 010f01f0     ..3...3.........
e6315398:	00f000f0 010f000f 00000000 00000000     ................
	...
e63153f8:	00000202 00000000 00302154 00000000     ........T!0.....
e6315408:	00002310 01672543 45361207 45632107     .#..C%g...6E.!cE
e6315418:	60715234 08080808 005500aa 015500aa     4Rq`......U...U.
e6315428:	013301cc 003300cc 010f00f0 010f01f0     ..3...3.........
e6315438:	00f000f0 010f000f 00000000 00000000     ................
	...
e6315498:	00000202 00000000 00302154 00000000     ........T!0.....
e63154a8:	00002310 01672543 45361207 45632107     .#..C%g...6E.!cE
e63154b8:	60715234 08080808 005500aa 015500aa     4Rq`......U...U.
e63154c8:	013301cc 003300cc 010f00f0 010f01f0     ..3...3.........
e63154d8:	00f000f0 010f000f 00000000 00000000     ................
	...
e6315538:	0000ffff 00000000 00000000 00000000     ................
	...
e6315560:	005500aa 015500aa 013301cc 003300cc     ..U...U...3...3.
e6315570:	010f00f0 010f01f0 00f000f0 010f000f     ................
	...
e63155d8:	03200103 03000000 000000a0 00000000     .. .............
e63155e8:	00000404 00000000 ff523041 520314ff     ........A0R....R
e63155f8:	00003201 01672543 45361207 45632107     .2..C%g...6E.!cE
e6315608:	60715234 08080808 005500aa 015500aa     4Rq`......U...U.
e6315618:	013301cc 003300cc 010f00f0 010f01f0     ..3...3.........
e6315628:	00f000f0 010f000f 00000000 00000000     ................
	...
e6315688:	00000404 00000000 ff312405 314250ff     .........$1..PB1
e6315698:	00002310 01672543 45361207 45632107     .#..C%g...6E.!cE
e63156a8:	60715234 08080808 005500aa 015500aa     4Rq`......U...U.
e63156b8:	013301cc 003300cc 010f00f0 010f01f0     ..3...3.........
e63156c8:	00f000f0 010f000f 00000000 00000000     ................
	...
e6315868:	03000101 03000000 000000a0 00000000     ................
e6315878:	00000404 00000000 ff523041 520314ff     ........A0R....R
e6315888:	00003201 01672543 45361207 45632107     .2..C%g...6E.!cE
e6315898:	60715234 08080808 005500aa 015500aa     4Rq`......U...U.
e63158a8:	013301cc 003300cc 010f00f0 010f01f0     ..3...3.........
e63158b8:	00f000f0 010f000f 00000000 00000000     ................
	...
e6315af8:	02c00103 03000000 000000a0 00000000     ................
e6315b08:	00000404 00000000 00543210 00000000     .........2T.....
e6315b18:	00003201 70612543 43251670 45326170     .2..C%app.%Cpa2E
e6315b28:	10672534 08080808 005500aa 015500aa     4%g.......U...U.
e6315b38:	013301cc 003300cc 010f00f0 010f01f0     ..3...3.........
e6315b48:	00f000f0 010f000f 00000000 00000000     ................
	...
e6315ba8:	00000404 00000000 00543210 00000000     .........2T.....
e6315bb8:	00002310 01327654 34526107 35421670     .#..Tv2..aR4p.B5
e6315bc8:	70615324 08080808 005500aa 015500aa     $Sap......U...U.
e6315bd8:	013301cc 003300cc 010f00f0 010f01f0     ..3...3.........
e6315be8:	00f000f0 010f000f 00000000 00000000     ................
	...
e6315d88:	02c00103 03000000 000000a0 00000000     ................
e6315d98:	0000ff04 00000000 00543210 00000000     .........2T.....
e6315da8:	00003201 70612543 43251670 45326170     .2..C%app.%Cpa2E
e6315db8:	10672534 08080808 005500aa 015500aa     4%g.......U...U.
e6315dc8:	013301cc 003300cc 010f00f0 010f01f0     ..3...3.........
e6315dd8:	00f000f0 010f000f 00000000 00000000     ................
	...
e6315e38:	0000ff04 00000000 00543210 00000000     .........2T.....
e6315e48:	00002310 01327654 34526107 35421670     .#..Tv2..aR4p.B5
e6315e58:	70615324 08080808 005500aa 015500aa     $Sap......U...U.
e6315e68:	013301cc 003300cc 010f00f0 010f01f0     ..3...3.........
e6315e78:	00f000f0 010f000f 00000000 00000000     ................
	...
e6316018:	02c00103 03000000 000000a0 00000000     ................
e6316028:	00000404 00000000 00345201 00000000     .........R4.....
e6316038:	00003201 01672543 45361207 45632107     .2..C%g...6E.!cE
e6316048:	60715234 08080808 005500aa 015500aa     4Rq`......U...U.
e6316058:	013301cc 003300cc 010f00f0 010f01f0     ..3...3.........
e6316068:	00f000f0 010f000f 00000000 00000000     ................
	...
e63160c8:	00000404 00000000 00302154 00000000     ........T!0.....
e63160d8:	00002310 01672543 45361207 45632107     .#..C%g...6E.!cE
e63160e8:	60715234 08080808 005500aa 015500aa     4Rq`......U...U.
e63160f8:	013301cc 003300cc 010f00f0 010f01f0     ..3...3.........
e6316108:	00f000f0 010f000f 00000000 00000000     ................
	...
e63162a8:	02c00103 03000000 000000a0 00000000     ................
e63162b8:	0000ff04 00000000 00345201 00000000     .........R4.....
e63162c8:	00003201 01672543 45361207 45632107     .2..C%g...6E.!cE
e63162d8:	60715234 08080808 005500aa 015500aa     4Rq`......U...U.
e63162e8:	013301cc 003300cc 010f00f0 010f01f0     ..3...3.........
e63162f8:	00f000f0 010f000f 00000000 00000000     ................
	...
e6316358:	0000ff04 00000000 00302154 00000000     ........T!0.....
e6316368:	00002310 01672543 45361207 45632107     .#..C%g...6E.!cE
e6316378:	60715234 08080808 005500aa 015500aa     4Rq`......U...U.
e6316388:	013301cc 003300cc 010f00f0 010f01f0     ..3...3.........
e6316398:	00f000f0 010f000f 00000000 00000000     ................
	...

e6316538 <jedec_spec2>:
e6316538:	00033a98 00031d4c 00081d4c 00044650     .:..L...L...PF..
e6316548:	00034650 00035208 0003a410 00044650     PF...R......PF..
e6316558:	00082710 00042710 00000000 00009c40     .'...'......@...
e6316568:	00000dac 00031d4c 00031d4c 00031d4c     ....L...L...L...
e6316578:	00080000 000a2710 000a36b0 00002710     .....'...6...'..
e6316588:	000a7530 000030d4 000005dc 00033a98     0u...0.......:..
e6316598:	00031d4c 00081d4c 00044da3 00034da3     L...L....M...M..
e63165a8:	0003595b 0003ab63 00044650 00082710     [Y..c...PF...'..
e63165b8:	00042e63 00000000 00009c40 00000e10     c.......@.......
e63165c8:	00031d4c 00031d4c 00031d4c 00080000     L...L...L.......
e63165d8:	000a2710 000a36b0 00002710 000a7530     .'...6...'..0u..
e63165e8:	000030d4 000005dc                       .0......

e63165f0 <jedec_spec2_tRFC_ab>:
e63165f0:	00b40082 011800b4 02300118               ..........0.0.

e63165fe <js1>:
e63165fe:	06060320 00080604 06404004 0a080c0a      ........@@.....
e631660e:	49140008 100e0960 0608100c 0c805224     ...I`.......$R..
e631661e:	140a1614 1b340408 1c180fa0 040a180c     ......4.........
e631662e:	12c02444 1e0e201c 2d54060c 242015e0     D$... ....T-.. $
e631663e:	060e2210 19003664 28122824 3f740810     ."..d6..$(.(..t?
e631664e:	49544f4e 203a4543 324c4220 6954203a     NOTICE:  BL2: Ti
e631665e:	6f20656d 325b7475 00000a5d 00000000     me out[2].......
	...

e6316670 <mstat_be>:
	...
e6316698:	0bd03401 00120010 00000000 00000000     .4..............
	...
e6316830:	0bdffc01 00210600 0bdffc01 00210600     ......!.......!.
	...
e6316860:	0bdf2401 00210100 00000000 00000000     .$....!.........
	...
e6316880:	0bdf2401 00210100 0bdf2401 00110100     .$....!..$......
e6316890:	0bdf2401 00110100 00000000 00000000     .$..............
e63168a0:	0bdf2401 00110100 0bdf2401 00110100     .$.......$......
e63168b0:	0bdf2401 00120100 0bdf2401 00110100     .$.......$......
e63168c0:	0bdf2401 00120100 0bdf2401 00110100     .$.......$......
	...
e6316960:	0bdffc01 00110600 0bdffc01 00110600     ................
	...
e6316988:	0bd03401 00120010 00000000 00000000     .4..............
	...
e63169c8:	0bdffc01 00120600 0bdffc01 00120600     ................
e63169d8:	0bd03401 00120010 00000000 00000000     .4..............
	...
e6316a00:	0bd03401 00120010                       .4......

e6316a08 <mstat_fix>:
	...
e6316a38:	0000ffff 00100432 0000ffff 00100432     ....2.......2...
e6316a48:	0000ffff 00140c5d 00000000 00000000     ....]...........
e6316a58:	0000ffff 00140404 0000ffff 00140c94     ................
e6316a68:	0000ffff 00140c94 00000000 00000000     ................
e6316a78:	0000ffff 00140404 00000000 00000000     ................
	...
e6316a90:	0000ffff 0014041f 00000000 00000000     ................
	...
e6316aa8:	0000ffff 000c041d 0000ffff 000c0409     ................
e6316ab8:	0000ffff 000c040b 00000000 00000000     ................
e6316ac8:	0000ffff 000c041d 0000ffff 000c0409     ................
e6316ad8:	0000ffff 000c040b 00000000 00000000     ................
	...
e6316af8:	0000ffff 00102484 0000ffff 000c084f     .....$......O...
	...
e6316b18:	0000ffff 00100c84 0000ffff 000c21e6     .............!..
	...
e6316b40:	0000ffff 00100ca5 00000000 00000000     ................
	...
e6316b58:	0000ffff 001010c9 00000000 00000000     ................
e6316b68:	0000ffff 00100ca5 00000000 00000000     ................
	...
e6316b80:	0000ffff 00100853 00000000 00000000     ....S...........
	...
e6316b98:	0000ffff 00101d9d 00000000 00000000     ................
e6316ba8:	0000ffff 00100ca5 00000000 00000000     ................
	...
e6316bc8:	0000ffff 000c0401 0000ffff 000c0401     ................
	...
e6316bf0:	0000ffff 000c0401 0000ffff 000c0405     ................
	...
e6316c10:	0000ffff 000c0405 0000ffff 000c0405     ................
	...
e6316c68:	0000ffff 000c0815 0000ffff 00140802     ................
e6316c78:	0000ffff 00140401 0000ffff 000c0409     ................
	...
e6316c98:	0000ffff 00140802 0000ffff 00140401     ................
e6316ca8:	0000ffff 000c0405 0000ffff 000c0405     ................
e6316cb8:	0000ffff 00140805 0000ffff 000c0401     ................
	...
e6316cd8:	0000ffff 000c0405 0000ffff 000c0405     ................
e6316ce8:	0000ffff 00140805 0000ffff 000c0401     ................
	...
e6316d78:	0000ffff 000c0401 0000ffff 000c0401     ................
e6316d88:	0000ffff 000c0405 0000ffff 000c0405     ................
	...
e6316da0:	49544f4e 203a4543 324c4220 5244203a     NOTICE:  BL2: DR
e6316db0:	53204d41 74696c70 20736920 0a46464f     AM Split is OFF.
e6316dc0:	76657200 302e302e 4f4e0039 45434954     .rev.0.09.NOTICE
e6316dd0:	4220203a 203a324c 20536f51 64207369     :  BL2: QoS is d
e6316de0:	75616665 7320746c 69747465 2528676e     efault setting(%
e6316df0:	000a2973 49544f4e 203a4543 324c4220     s)..NOTICE:  BL2
e6316e00:	5244203a 72204d41 65726665 69206873     : DRAM refresh i
e6316e10:	7265746e 206c6176 35392e31 65737520     nterval 1.95 use
e6316e20:	4e000a63 4349544f 20203a45 3a324c42     c..NOTICE:  BL2:
e6316e30:	72655020 69646f69 72572063 20657469      Periodic Write 
e6316e40:	54205144 6e696172 0a676e69 00000000     DQ Training.....

e6316e50 <qoswt_be>:
	...

e63171e8 <qoswt_fix>:
	...
e6317218:	0000c010 00100432 0000c010 00100432     ....2.......2...
e6317228:	0000fff0 00140c5d 00000000 00000000     ....]...........
	...
e6317240:	0000c010 00140c94 0000c010 00140c94     ................
	...
e6317270:	0000fff0 0014041f 00000000 00000000     ................
	...
e6317448:	0000fff0 000c0815 0000fff0 00140802     ................
e6317458:	0000fff0 00140401 0000fff0 000c0409     ................
	...
e6317478:	0000fff0 00140802 0000fff0 00140401     ................
	...
e6317580:	4f525245 20203a52 49534c20 6f725020     ERROR:   LSI Pro
e6317590:	74637564 28444920 3d525250 78257830     duct ID(PRR=0x%x
e63175a0:	6f512029 6e692053 61697469 657a696c     ) QoS initialize
e63175b0:	746f6e20 70757320 74726f70 0a2e6465      not supported..
	...

e63175c1 <build_message>:
e63175c1:	6c697542 203a2074 353a3631 31303a37     Built : 16:57:01
e63175d1:	6f4e202c 34322076 32303220               , Nov 24 2025.

e63175df <__RO_END_UNALIGNED__>:
	...
